Archive member included because of file (symbol)

../libtransmission/libtransmission.a(bencode.o)
                              cli.o (tr_bencInitDict)
../libtransmission/libtransmission.a(ConvertUTF.o)
                              ../libtransmission/libtransmission.a(bencode.o) (ConvertUTF8toUTF32)
../libtransmission/libtransmission.a(fdlimit.o)
                              ../libtransmission/libtransmission.a(bencode.o) (tr_close_file)
../libtransmission/libtransmission.a(json.o)
                              ../libtransmission/libtransmission.a(bencode.o) (tr_jsonParse)
../libtransmission/libtransmission.a(JSON_parser.o)
                              ../libtransmission/libtransmission.a(json.o) (init_JSON_config)
../libtransmission/libtransmission.a(list.o)
                              ../libtransmission/libtransmission.a(bencode.o) (tr_list_pop_front)
../libtransmission/libtransmission.a(net.o)
                              ../libtransmission/libtransmission.a(fdlimit.o) (tr_address_from_sockaddr_storage)
../libtransmission/libtransmission.a(peer-io.o)
                              ../libtransmission/libtransmission.a(net.o) (tr_peerIoAddrStr)
../libtransmission/libtransmission.a(platform.o)
                              cli.o (tr_getDefaultConfigDir)
../libtransmission/libtransmission.a(ptrarray.o)
                              ../libtransmission/libtransmission.a(bencode.o) (tr_ptrArrayPop)
../libtransmission/libtransmission.a(session.o)
                              cli.o (tr_sessionClose)
../libtransmission/libtransmission.a(stats.o)
                              ../libtransmission/libtransmission.a(session.o) (tr_statsSaveDirty)
../libtransmission/libtransmission.a(torrent.o)
                              ../libtransmission/libtransmission.a(fdlimit.o) (tr_torrentId)
../libtransmission/libtransmission.a(torrent-ctor.o)
                              ../libtransmission/libtransmission.a(session.o) (tr_ctorSetSave)
../libtransmission/libtransmission.a(torrent-magnet.o)
                              ../libtransmission/libtransmission.a(torrent.o) (tr_torrentGetMetadataPercent)
../libtransmission/libtransmission.a(tr-dht.o)
                              ../libtransmission/libtransmission.a(session.o) (tr_dhtUninit)
../libtransmission/libtransmission.a(tr-lpd.o)
                              ../libtransmission/libtransmission.a(session.o) (tr_lpdUninit)
../libtransmission/libtransmission.a(tr-udp.o)
                              ../libtransmission/libtransmission.a(session.o) (tr_udpUninit)
../libtransmission/libtransmission.a(tr-utp.o)
                              ../libtransmission/libtransmission.a(session.o) (tr_utpClose)
../libtransmission/libtransmission.a(tr-getopt.o)
                              cli.o (tr_getopt_usage)
../libtransmission/libtransmission.a(trevent.o)
                              ../libtransmission/libtransmission.a(peer-io.o) (tr_runInEventThread)
../libtransmission/libtransmission.a(utils.o)
                              ../libtransmission/libtransmission.a(session.o) (tr_setMessageLevel)
../libtransmission/libtransmission.a(verify.o)
                              ../libtransmission/libtransmission.a(session.o) (tr_verifyClose)
../libtransmission/libtransmission.a(web.o)
                              ../libtransmission/libtransmission.a(torrent-magnet.o) (tr_http_escape)
../libtransmission/libtransmission.a(announcer.o)
                              ../libtransmission/libtransmission.a(torrent.o) (tr_announcerCanManualAnnounce)
../libtransmission/libtransmission.a(announcer-http.o)
                              ../libtransmission/libtransmission.a(announcer.o) (tr_tracker_http_scrape)
../libtransmission/libtransmission.a(announcer-udp.o)
                              ../libtransmission/libtransmission.a(session.o) (tr_tracker_udp_is_idle)
../libtransmission/libtransmission.a(bandwidth.o)
                              ../libtransmission/libtransmission.a(peer-io.o) (tr_bandwidthSetPeer)
../libtransmission/libtransmission.a(bitfield.o)
                              ../libtransmission/libtransmission.a(torrent.o) (tr_bitfieldCountRange)
../libtransmission/libtransmission.a(blocklist.o)
                              ../libtransmission/libtransmission.a(session.o) (_tr_blocklistGetFilename)
../libtransmission/libtransmission.a(cache.o)
                              ../libtransmission/libtransmission.a(session.o) (tr_cacheGetLimit)
../libtransmission/libtransmission.a(completion.o)
                              ../libtransmission/libtransmission.a(torrent.o) (tr_cpPercentComplete)
../libtransmission/libtransmission.a(crypto.o)
                              ../libtransmission/libtransmission.a(peer-io.o) (tr_cryptoGetTorrentHash)
../libtransmission/libtransmission.a(inout.o)
                              ../libtransmission/libtransmission.a(torrent.o) (tr_ioFindFileLocation)
../libtransmission/libtransmission.a(magnet.o)
                              ../libtransmission/libtransmission.a(torrent-ctor.o) (tr_magnetCreateMetainfo)
../libtransmission/libtransmission.a(metainfo.o)
                              ../libtransmission/libtransmission.a(torrent.o) (tr_metainfoFree)
../libtransmission/libtransmission.a(peer-mgr.o)
                              ../libtransmission/libtransmission.a(session.o) (tr_peerMgrOnBlocklistChanged)
../libtransmission/libtransmission.a(peer-msgs.o)
                              ../libtransmission/libtransmission.a(peer-mgr.o) (tr_peerMsgsFree)
../libtransmission/libtransmission.a(port-forwarding.o)
                              ../libtransmission/libtransmission.a(session.o) (tr_sharedTraversalIsEnabled)
../libtransmission/libtransmission.a(resume.o)
                              ../libtransmission/libtransmission.a(torrent.o) (tr_torrentRemoveResume)
../libtransmission/libtransmission.a(rpc-server.o)
                              ../libtransmission/libtransmission.a(session.o) (tr_rpcIsEnabled)
../libtransmission/libtransmission.a(upnp.o)
                              ../libtransmission/libtransmission.a(port-forwarding.o) (tr_upnpPulse)
../libtransmission/libtransmission.a(webseed.o)
                              ../libtransmission/libtransmission.a(peer-mgr.o) (tr_webseedFree)
../libtransmission/libtransmission.a(wildmat.o)
                              ../libtransmission/libtransmission.a(rpc-server.o) (tr_wildmat)
../libtransmission/libtransmission.a(clients.o)
                              ../libtransmission/libtransmission.a(peer-mgr.o) (tr_clientForId)
../libtransmission/libtransmission.a(handshake.o)
                              ../libtransmission/libtransmission.a(peer-mgr.o) (tr_handshakeStealIO)
../libtransmission/libtransmission.a(history.o)
                              ../libtransmission/libtransmission.a(peer-mgr.o) (tr_historyAdd)
../libtransmission/libtransmission.a(natpmp.o)
                              ../libtransmission/libtransmission.a(port-forwarding.o) (tr_natpmpPulse)
../libtransmission/libtransmission.a(rpcimpl.o)
                              ../libtransmission/libtransmission.a(rpc-server.o) (tr_rpc_request_exec_uri)
../third-party/libnatpmp/libnatpmp.a(natpmp.o)
                              ../libtransmission/libtransmission.a(natpmp.o) (strnatpmperr)
../third-party/libnatpmp/libnatpmp.a(getgateway.o)
                              ../third-party/libnatpmp/libnatpmp.a(natpmp.o) (getdefaultgateway)
../third-party/miniupnp/libminiupnp.a(miniupnpc.o)
                              ../libtransmission/libtransmission.a(upnp.o) (FreeUPNPUrls)
../third-party/miniupnp/libminiupnp.a(miniwget.o)
                              ../third-party/miniupnp/libminiupnp.a(miniupnpc.o) (parseURL)
../third-party/miniupnp/libminiupnp.a(minixml.o)
                              ../third-party/miniupnp/libminiupnp.a(miniupnpc.o) (parsexml)
../third-party/miniupnp/libminiupnp.a(receivedata.o)
                              ../third-party/miniupnp/libminiupnp.a(miniupnpc.o) (receivedata)
../third-party/miniupnp/libminiupnp.a(upnpcommands.o)
                              ../libtransmission/libtransmission.a(upnp.o) (UPNP_DeletePortMapping)
../third-party/miniupnp/libminiupnp.a(upnpreplyparse.o)
                              ../third-party/miniupnp/libminiupnp.a(upnpcommands.o) (GetValueFromNameValueList)
../third-party/miniupnp/libminiupnp.a(connecthostport.o)
                              ../third-party/miniupnp/libminiupnp.a(miniupnpc.o) (connecthostport)
../third-party/miniupnp/libminiupnp.a(igd_desc_parse.o)
                              ../third-party/miniupnp/libminiupnp.a(miniupnpc.o) (IGDdata)
../third-party/miniupnp/libminiupnp.a(minisoap.o)
                              ../third-party/miniupnp/libminiupnp.a(miniupnpc.o) (soapPostSubmit)
../third-party/miniupnp/libminiupnp.a(minissdpc.o)
                              ../third-party/miniupnp/libminiupnp.a(miniupnpc.o) (getDevicesFromMiniSSDPD)
../third-party/miniupnp/libminiupnp.a(portlistingparse.o)
                              ../third-party/miniupnp/libminiupnp.a(upnpcommands.o) (ParsePortListing)
../third-party/dht/libdht.a(dht.o)
                              ../libtransmission/libtransmission.a(tr-dht.o) (dht_nodes)
../third-party/libutp/libutp.a(utp.o)
                              ../libtransmission/libtransmission.a(peer-io.o) (UTP_SetCallbacks)
../third-party/libutp/libutp.a(utp_utils.o)
                              ../third-party/libutp/libutp.a(utp.o) (_Z13UTP_GetUDPMTUPK8sockaddrj)
/home/ql_xu/develop/trunk/uClinux-dist/lib/libevent/.libs/libevent.a(event.o)
                              ../libtransmission/libtransmission.a(session.o) (event_base_loopbreak)
/home/ql_xu/develop/trunk/uClinux-dist/lib/libevent/.libs/libevent.a(evthread.o)
                              /home/ql_xu/develop/trunk/uClinux-dist/lib/libevent/.libs/libevent.a(event.o) (_evthread_id_fn)
/home/ql_xu/develop/trunk/uClinux-dist/lib/libevent/.libs/libevent.a(buffer.o)
                              ../libtransmission/libtransmission.a(bencode.o) (evbuffer_get_length)
/home/ql_xu/develop/trunk/uClinux-dist/lib/libevent/.libs/libevent.a(bufferevent.o)
                              /home/ql_xu/develop/trunk/uClinux-dist/lib/libevent/.libs/libevent.a(buffer.o) (bufferevent_incref)
/home/ql_xu/develop/trunk/uClinux-dist/lib/libevent/.libs/libevent.a(bufferevent_ratelim.o)
                              /home/ql_xu/develop/trunk/uClinux-dist/lib/libevent/.libs/libevent.a(bufferevent.o) (bufferevent_remove_from_rate_limit_group_internal)
/home/ql_xu/develop/trunk/uClinux-dist/lib/libevent/.libs/libevent.a(evmap.o)
                              /home/ql_xu/develop/trunk/uClinux-dist/lib/libevent/.libs/libevent.a(event.o) (evmap_io_initmap)
/home/ql_xu/develop/trunk/uClinux-dist/lib/libevent/.libs/libevent.a(log.o)
                              ../libtransmission/libtransmission.a(trevent.o) (event_set_log_callback)
/home/ql_xu/develop/trunk/uClinux-dist/lib/libevent/.libs/libevent.a(evutil.o)
                              /home/ql_xu/develop/trunk/uClinux-dist/lib/libevent/.libs/libevent.a(event.o) (EVUTIL_TOUPPER)
/home/ql_xu/develop/trunk/uClinux-dist/lib/libevent/.libs/libevent.a(evutil_rand.o)
                              /home/ql_xu/develop/trunk/uClinux-dist/lib/libevent/.libs/libevent.a(event.o) (evutil_secure_rng_global_setup_locks_)
/home/ql_xu/develop/trunk/uClinux-dist/lib/libevent/.libs/libevent.a(select.o)
                              /home/ql_xu/develop/trunk/uClinux-dist/lib/libevent/.libs/libevent.a(event.o) (selectops)
/home/ql_xu/develop/trunk/uClinux-dist/lib/libevent/.libs/libevent.a(poll.o)
                              /home/ql_xu/develop/trunk/uClinux-dist/lib/libevent/.libs/libevent.a(event.o) (pollops)
/home/ql_xu/develop/trunk/uClinux-dist/lib/libevent/.libs/libevent.a(epoll.o)
                              /home/ql_xu/develop/trunk/uClinux-dist/lib/libevent/.libs/libevent.a(event.o) (epollops)
/home/ql_xu/develop/trunk/uClinux-dist/lib/libevent/.libs/libevent.a(signal.o)
                              /home/ql_xu/develop/trunk/uClinux-dist/lib/libevent/.libs/libevent.a(event.o) (evsig_set_base)
/home/ql_xu/develop/trunk/uClinux-dist/lib/libevent/.libs/libevent.a(http.o)
                              ../libtransmission/libtransmission.a(rpc-server.o) (evhttp_set_gencb)
/home/ql_xu/develop/trunk/uClinux-dist/lib/libevent/.libs/libevent.a(evdns.o)
                              ../libtransmission/libtransmission.a(announcer-udp.o) (evdns_err_to_string)
/home/ql_xu/develop/trunk/uClinux-dist/lib/libevent/.libs/libevent.a(bufferevent_sock.o)
                              /home/ql_xu/develop/trunk/uClinux-dist/lib/libevent/.libs/libevent.a(http.o) (bufferevent_base_set)
/home/ql_xu/develop/trunk/uClinux-dist/lib/libevent/.libs/libevent.a(listener.o)
                              /home/ql_xu/develop/trunk/uClinux-dist/lib/libevent/.libs/libevent.a(http.o) (evconnlistener_get_fd)
/home/ql_xu/develop/trunk/uClinux-dist/user/curl-7.36.0/lib/.libs/libcurl.a(libcurl_la-escape.o)
                              ../libtransmission/libtransmission.a(web.o) (curl_free)
/home/ql_xu/develop/trunk/uClinux-dist/user/curl-7.36.0/lib/.libs/libcurl.a(libcurl_la-mprintf.o)
                              /home/ql_xu/develop/trunk/uClinux-dist/user/curl-7.36.0/lib/.libs/libcurl.a(libcurl_la-escape.o) (curl_msnprintf)
/home/ql_xu/develop/trunk/uClinux-dist/user/curl-7.36.0/lib/.libs/libcurl.a(libcurl_la-easy.o)
                              ../libtransmission/libtransmission.a(web.o) (curl_global_init)
/home/ql_xu/develop/trunk/uClinux-dist/user/curl-7.36.0/lib/.libs/libcurl.a(libcurl_la-connect.o)
                              /home/ql_xu/develop/trunk/uClinux-dist/user/curl-7.36.0/lib/.libs/libcurl.a(libcurl_la-easy.o) (Curl_getconnectinfo)
/home/ql_xu/develop/trunk/uClinux-dist/user/curl-7.36.0/lib/.libs/libcurl.a(libcurl_la-multi.o)
                              /home/ql_xu/develop/trunk/uClinux-dist/user/curl-7.36.0/lib/.libs/libcurl.a(libcurl_la-easy.o) (Curl_expire)
/home/ql_xu/develop/trunk/uClinux-dist/user/curl-7.36.0/lib/.libs/libcurl.a(libcurl_la-strerror.o)
                              /home/ql_xu/develop/trunk/uClinux-dist/user/curl-7.36.0/lib/.libs/libcurl.a(libcurl_la-connect.o) (Curl_strerror)
/home/ql_xu/develop/trunk/uClinux-dist/user/curl-7.36.0/lib/.libs/libcurl.a(libcurl_la-select.o)
                              /home/ql_xu/develop/trunk/uClinux-dist/user/curl-7.36.0/lib/.libs/libcurl.a(libcurl_la-easy.o) (Curl_wait_ms)
/home/ql_xu/develop/trunk/uClinux-dist/user/curl-7.36.0/lib/.libs/libcurl.a(libcurl_la-splay.o)
                              /home/ql_xu/develop/trunk/uClinux-dist/user/curl-7.36.0/lib/.libs/libcurl.a(libcurl_la-multi.o) (Curl_splay)
/home/ql_xu/develop/trunk/uClinux-dist/user/curl-7.36.0/lib/.libs/libcurl.a(libcurl_la-slist.o)
                              /home/ql_xu/develop/trunk/uClinux-dist/user/curl-7.36.0/lib/.libs/libcurl.a(libcurl_la-easy.o) (curl_slist_free_all)
/home/ql_xu/develop/trunk/uClinux-dist/user/curl-7.36.0/lib/.libs/libcurl.a(libcurl_la-nonblock.o)
                              /home/ql_xu/develop/trunk/uClinux-dist/user/curl-7.36.0/lib/.libs/libcurl.a(libcurl_la-connect.o) (curlx_nonblock)
/home/ql_xu/develop/trunk/uClinux-dist/user/curl-7.36.0/lib/.libs/libcurl.a(libcurl_la-warnless.o)
                              /home/ql_xu/develop/trunk/uClinux-dist/user/curl-7.36.0/lib/.libs/libcurl.a(libcurl_la-escape.o) (curlx_ultouc)
/home/ql_xu/develop/trunk/uClinux-dist/user/curl-7.36.0/lib/.libs/libcurl.a(libcurl_la-conncache.o)
                              /home/ql_xu/develop/trunk/uClinux-dist/user/curl-7.36.0/lib/.libs/libcurl.a(libcurl_la-multi.o) (Curl_conncache_find_first_connection)
/home/ql_xu/develop/trunk/uClinux-dist/user/curl-7.36.0/lib/.libs/libcurl.a(libcurl_la-pipeline.o)
                              /home/ql_xu/develop/trunk/uClinux-dist/user/curl-7.36.0/lib/.libs/libcurl.a(libcurl_la-multi.o) (Curl_pipeline_set_server_blacklist)
/home/ql_xu/develop/trunk/uClinux-dist/user/curl-7.36.0/lib/.libs/libcurl.a(libcurl_la-timeval.o)
                              /home/ql_xu/develop/trunk/uClinux-dist/user/curl-7.36.0/lib/.libs/libcurl.a(libcurl_la-easy.o) (curlx_tvdiff)
/home/ql_xu/develop/trunk/uClinux-dist/user/curl-7.36.0/lib/.libs/libcurl.a(libcurl_la-hostip.o)
                              /home/ql_xu/develop/trunk/uClinux-dist/user/curl-7.36.0/lib/.libs/libcurl.a(libcurl_la-connect.o) (Curl_num_addresses)
/home/ql_xu/develop/trunk/uClinux-dist/user/curl-7.36.0/lib/.libs/libcurl.a(libcurl_la-progress.o)
                              /home/ql_xu/develop/trunk/uClinux-dist/user/curl-7.36.0/lib/.libs/libcurl.a(libcurl_la-multi.o) (Curl_pgrsUpdate)
/home/ql_xu/develop/trunk/uClinux-dist/user/curl-7.36.0/lib/.libs/libcurl.a(libcurl_la-cookie.o)
                              /home/ql_xu/develop/trunk/uClinux-dist/user/curl-7.36.0/lib/.libs/libcurl.a(libcurl_la-easy.o) (Curl_cookie_init)
/home/ql_xu/develop/trunk/uClinux-dist/user/curl-7.36.0/lib/.libs/libcurl.a(libcurl_la-http.o)
                              /home/ql_xu/develop/trunk/uClinux-dist/user/curl-7.36.0/lib/.libs/libcurl.a(libcurl_la-multi.o) (Curl_http_connect)
/home/ql_xu/develop/trunk/uClinux-dist/user/curl-7.36.0/lib/.libs/libcurl.a(libcurl_la-sendf.o)
                              /home/ql_xu/develop/trunk/uClinux-dist/user/curl-7.36.0/lib/.libs/libcurl.a(libcurl_la-easy.o) (Curl_write)
/home/ql_xu/develop/trunk/uClinux-dist/user/curl-7.36.0/lib/.libs/libcurl.a(libcurl_la-url.o)
                              /home/ql_xu/develop/trunk/uClinux-dist/user/curl-7.36.0/lib/.libs/libcurl.a(libcurl_la-easy.o) (Curl_freeset)
/home/ql_xu/develop/trunk/uClinux-dist/user/curl-7.36.0/lib/.libs/libcurl.a(libcurl_la-dict.o)
                              /home/ql_xu/develop/trunk/uClinux-dist/user/curl-7.36.0/lib/.libs/libcurl.a(libcurl_la-url.o) (Curl_handler_dict)
/home/ql_xu/develop/trunk/uClinux-dist/user/curl-7.36.0/lib/.libs/libcurl.a(libcurl_la-if2ip.o)
                              /home/ql_xu/develop/trunk/uClinux-dist/user/curl-7.36.0/lib/.libs/libcurl.a(libcurl_la-connect.o) (Curl_if2ip)
/home/ql_xu/develop/trunk/uClinux-dist/user/curl-7.36.0/lib/.libs/libcurl.a(libcurl_la-speedcheck.o)
                              /home/ql_xu/develop/trunk/uClinux-dist/user/curl-7.36.0/lib/.libs/libcurl.a(libcurl_la-multi.o) (Curl_speedcheck)
/home/ql_xu/develop/trunk/uClinux-dist/user/curl-7.36.0/lib/.libs/libcurl.a(libcurl_la-getenv.o)
                              /home/ql_xu/develop/trunk/uClinux-dist/user/curl-7.36.0/lib/.libs/libcurl.a(libcurl_la-url.o) (curl_getenv)
/home/ql_xu/develop/trunk/uClinux-dist/user/curl-7.36.0/lib/.libs/libcurl.a(libcurl_la-telnet.o)
                              /home/ql_xu/develop/trunk/uClinux-dist/user/curl-7.36.0/lib/.libs/libcurl.a(libcurl_la-url.o) (Curl_handler_telnet)
/home/ql_xu/develop/trunk/uClinux-dist/user/curl-7.36.0/lib/.libs/libcurl.a(libcurl_la-netrc.o)
                              /home/ql_xu/develop/trunk/uClinux-dist/user/curl-7.36.0/lib/.libs/libcurl.a(libcurl_la-url.o) (Curl_parsenetrc)
/home/ql_xu/develop/trunk/uClinux-dist/user/curl-7.36.0/lib/.libs/libcurl.a(libcurl_la-getinfo.o)
                              /home/ql_xu/develop/trunk/uClinux-dist/user/curl-7.36.0/lib/.libs/libcurl.a(libcurl_la-easy.o) (Curl_getinfo)
/home/ql_xu/develop/trunk/uClinux-dist/user/curl-7.36.0/lib/.libs/libcurl.a(libcurl_la-transfer.o)
                              /home/ql_xu/develop/trunk/uClinux-dist/user/curl-7.36.0/lib/.libs/libcurl.a(libcurl_la-multi.o) (Curl_single_getsock)
/home/ql_xu/develop/trunk/uClinux-dist/user/curl-7.36.0/lib/.libs/libcurl.a(libcurl_la-strequal.o)
                              /home/ql_xu/develop/trunk/uClinux-dist/user/curl-7.36.0/lib/.libs/libcurl.a(libcurl_la-cookie.o) (curl_strequal)
/home/ql_xu/develop/trunk/uClinux-dist/user/curl-7.36.0/lib/.libs/libcurl.a(libcurl_la-wildcard.o)
                              /home/ql_xu/develop/trunk/uClinux-dist/user/curl-7.36.0/lib/.libs/libcurl.a(libcurl_la-multi.o) (Curl_wildcard_dtor)
/home/ql_xu/develop/trunk/uClinux-dist/user/curl-7.36.0/lib/.libs/libcurl.a(libcurl_la-http_chunks.o)
                              /home/ql_xu/develop/trunk/uClinux-dist/user/curl-7.36.0/lib/.libs/libcurl.a(libcurl_la-http.o) (Curl_httpchunk_init)
/home/ql_xu/develop/trunk/uClinux-dist/user/curl-7.36.0/lib/.libs/libcurl.a(libcurl_la-llist.o)
                              /home/ql_xu/develop/trunk/uClinux-dist/user/curl-7.36.0/lib/.libs/libcurl.a(libcurl_la-multi.o) (Curl_llist_alloc)
/home/ql_xu/develop/trunk/uClinux-dist/user/curl-7.36.0/lib/.libs/libcurl.a(libcurl_la-hash.o)
                              /home/ql_xu/develop/trunk/uClinux-dist/user/curl-7.36.0/lib/.libs/libcurl.a(libcurl_la-multi.o) (Curl_hash_pick)
/home/ql_xu/develop/trunk/uClinux-dist/user/curl-7.36.0/lib/.libs/libcurl.a(libcurl_la-share.o)
                              /home/ql_xu/develop/trunk/uClinux-dist/user/curl-7.36.0/lib/.libs/libcurl.a(libcurl_la-hostip.o) (Curl_share_lock)
/home/ql_xu/develop/trunk/uClinux-dist/user/curl-7.36.0/lib/.libs/libcurl.a(libcurl_la-http_digest.o)
                              /home/ql_xu/develop/trunk/uClinux-dist/user/curl-7.36.0/lib/.libs/libcurl.a(libcurl_la-url.o) (Curl_digest_cleanup)
/home/ql_xu/develop/trunk/uClinux-dist/user/curl-7.36.0/lib/.libs/libcurl.a(libcurl_la-md5.o)
                              /home/ql_xu/develop/trunk/uClinux-dist/user/curl-7.36.0/lib/.libs/libcurl.a(libcurl_la-http_digest.o) (Curl_md5it)
/home/ql_xu/develop/trunk/uClinux-dist/user/curl-7.36.0/lib/.libs/libcurl.a(libcurl_la-hostip4.o)
                              /home/ql_xu/develop/trunk/uClinux-dist/user/curl-7.36.0/lib/.libs/libcurl.a(libcurl_la-hostip.o) (Curl_ipvalid)
/home/ql_xu/develop/trunk/uClinux-dist/user/curl-7.36.0/lib/.libs/libcurl.a(libcurl_la-hostsyn.o)
                              /home/ql_xu/develop/trunk/uClinux-dist/user/curl-7.36.0/lib/.libs/libcurl.a(libcurl_la-url.o) (Curl_set_dns_servers)
/home/ql_xu/develop/trunk/uClinux-dist/user/curl-7.36.0/lib/.libs/libcurl.a(libcurl_la-parsedate.o)
                              /home/ql_xu/develop/trunk/uClinux-dist/user/curl-7.36.0/lib/.libs/libcurl.a(libcurl_la-http.o) (Curl_gmtime)
/home/ql_xu/develop/trunk/uClinux-dist/user/curl-7.36.0/lib/.libs/libcurl.a(libcurl_la-tftp.o)
                              /home/ql_xu/develop/trunk/uClinux-dist/user/curl-7.36.0/lib/.libs/libcurl.a(libcurl_la-url.o) (Curl_handler_tftp)
/home/ql_xu/develop/trunk/uClinux-dist/user/curl-7.36.0/lib/.libs/libcurl.a(libcurl_la-socks.o)
                              /home/ql_xu/develop/trunk/uClinux-dist/user/curl-7.36.0/lib/.libs/libcurl.a(libcurl_la-url.o) (Curl_SOCKS5)
/home/ql_xu/develop/trunk/uClinux-dist/user/curl-7.36.0/lib/.libs/libcurl.a(libcurl_la-rawstr.o)
                              /home/ql_xu/develop/trunk/uClinux-dist/user/curl-7.36.0/lib/.libs/libcurl.a(libcurl_la-http.o) (Curl_raw_toupper)
/home/ql_xu/develop/trunk/uClinux-dist/user/curl-7.36.0/lib/.libs/libcurl.a(libcurl_la-curl_addrinfo.o)
                              /home/ql_xu/develop/trunk/uClinux-dist/user/curl-7.36.0/lib/.libs/libcurl.a(libcurl_la-hostip.o) (Curl_freeaddrinfo)
/home/ql_xu/develop/trunk/uClinux-dist/user/curl-7.36.0/lib/.libs/libcurl.a(libcurl_la-curl_memrchr.o)
                              /home/ql_xu/develop/trunk/uClinux-dist/user/curl-7.36.0/lib/.libs/libcurl.a(libcurl_la-cookie.o) (Curl_memrchr)
/home/ql_xu/develop/trunk/uClinux-dist/user/curl-7.36.0/lib/.libs/libcurl.a(libcurl_la-imap.o)
                              /home/ql_xu/develop/trunk/uClinux-dist/user/curl-7.36.0/lib/.libs/libcurl.a(libcurl_la-url.o) (Curl_handler_imap)
/home/ql_xu/develop/trunk/uClinux-dist/user/curl-7.36.0/lib/.libs/libcurl.a(libcurl_la-pop3.o)
                              /home/ql_xu/develop/trunk/uClinux-dist/user/curl-7.36.0/lib/.libs/libcurl.a(libcurl_la-url.o) (Curl_handler_pop3)
/home/ql_xu/develop/trunk/uClinux-dist/user/curl-7.36.0/lib/.libs/libcurl.a(libcurl_la-smtp.o)
                              /home/ql_xu/develop/trunk/uClinux-dist/user/curl-7.36.0/lib/.libs/libcurl.a(libcurl_la-url.o) (Curl_handler_smtp)
/home/ql_xu/develop/trunk/uClinux-dist/user/curl-7.36.0/lib/.libs/libcurl.a(libcurl_la-pingpong.o)
                              /home/ql_xu/develop/trunk/uClinux-dist/user/curl-7.36.0/lib/.libs/libcurl.a(libcurl_la-imap.o) (Curl_pp_getsock)
/home/ql_xu/develop/trunk/uClinux-dist/user/curl-7.36.0/lib/.libs/libcurl.a(libcurl_la-rtsp.o)
                              /home/ql_xu/develop/trunk/uClinux-dist/user/curl-7.36.0/lib/.libs/libcurl.a(libcurl_la-http.o) (Curl_rtsp_parseheader)
/home/ql_xu/develop/trunk/uClinux-dist/user/curl-7.36.0/lib/.libs/libcurl.a(libcurl_la-curl_gethostname.o)
                              /home/ql_xu/develop/trunk/uClinux-dist/user/curl-7.36.0/lib/.libs/libcurl.a(libcurl_la-smtp.o) (Curl_gethostname)
/home/ql_xu/develop/trunk/uClinux-dist/user/curl-7.36.0/lib/.libs/libcurl.a(libcurl_la-gopher.o)
                              /home/ql_xu/develop/trunk/uClinux-dist/user/curl-7.36.0/lib/.libs/libcurl.a(libcurl_la-url.o) (Curl_handler_gopher)
/home/ql_xu/develop/trunk/uClinux-dist/user/curl-7.36.0/lib/.libs/libcurl.a(libcurl_la-http_proxy.o)
                              /home/ql_xu/develop/trunk/uClinux-dist/user/curl-7.36.0/lib/.libs/libcurl.a(libcurl_la-http.o) (Curl_proxy_connect)
/home/ql_xu/develop/trunk/uClinux-dist/user/curl-7.36.0/lib/.libs/libcurl.a(libcurl_la-curl_sasl.o)
                              /home/ql_xu/develop/trunk/uClinux-dist/user/curl-7.36.0/lib/.libs/libcurl.a(libcurl_la-imap.o) (Curl_sasl_cleanup)
/home/ql_xu/develop/trunk/uClinux-dist/user/curl-7.36.0/lib/.libs/libcurl.a(libcurl_la-bundles.o)
                              /home/ql_xu/develop/trunk/uClinux-dist/user/curl-7.36.0/lib/.libs/libcurl.a(libcurl_la-conncache.o) (Curl_bundle_remove_conn)
/home/ql_xu/develop/trunk/uClinux-dist/user/curl-7.36.0/lib/.libs/libcurl.a(libcurl_la-dotdot.o)
                              /home/ql_xu/develop/trunk/uClinux-dist/user/curl-7.36.0/lib/.libs/libcurl.a(libcurl_la-url.o) (Curl_dedotdotify)
/home/ql_xu/develop/trunk/uClinux-dist/user/curl-7.36.0/lib/.libs/libcurl.a(libcurl_la-vtls.o)
                              /home/ql_xu/develop/trunk/uClinux-dist/user/curl-7.36.0/lib/.libs/libcurl.a(libcurl_la-url.o) (Curl_clone_ssl_config)
/home/ql_xu/develop/trunk/uClinux-dist/user/curl-7.36.0/lib/.libs/libcurl.a(libcurl_la-file.o)
                              /home/ql_xu/develop/trunk/uClinux-dist/user/curl-7.36.0/lib/.libs/libcurl.a(libcurl_la-url.o) (Curl_handler_file)
/home/ql_xu/develop/trunk/uClinux-dist/user/curl-7.36.0/lib/.libs/libcurl.a(libcurl_la-base64.o)
                              /home/ql_xu/develop/trunk/uClinux-dist/user/curl-7.36.0/lib/.libs/libcurl.a(libcurl_la-http.o) (Curl_base64_encode)
/home/ql_xu/develop/trunk/uClinux-dist/user/curl-7.36.0/lib/.libs/libcurl.a(libcurl_la-formdata.o)
                              /home/ql_xu/develop/trunk/uClinux-dist/user/curl-7.36.0/lib/.libs/libcurl.a(libcurl_la-http.o) (Curl_formclean)
/home/ql_xu/develop/trunk/uClinux-dist/user/curl-7.36.0/lib/.libs/libcurl.a(libcurl_la-ftp.o)
                              /home/ql_xu/develop/trunk/uClinux-dist/user/curl-7.36.0/lib/.libs/libcurl.a(libcurl_la-url.o) (Curl_handler_ftp)
/home/ql_xu/develop/trunk/uClinux-dist/user/curl-7.36.0/lib/.libs/libcurl.a(libcurl_la-fileinfo.o)
                              /home/ql_xu/develop/trunk/uClinux-dist/user/curl-7.36.0/lib/.libs/libcurl.a(libcurl_la-wildcard.o) (Curl_fileinfo_dtor)
/home/ql_xu/develop/trunk/uClinux-dist/user/curl-7.36.0/lib/.libs/libcurl.a(libcurl_la-ftplistparser.o)
                              /home/ql_xu/develop/trunk/uClinux-dist/user/curl-7.36.0/lib/.libs/libcurl.a(libcurl_la-ftp.o) (Curl_ftp_parselist_data_alloc)
/home/ql_xu/develop/trunk/uClinux-dist/user/curl-7.36.0/lib/.libs/libcurl.a(libcurl_la-hmac.o)
                              /home/ql_xu/develop/trunk/uClinux-dist/user/curl-7.36.0/lib/.libs/libcurl.a(libcurl_la-curl_sasl.o) (Curl_HMAC_init)
/home/ql_xu/develop/trunk/uClinux-dist/user/curl-7.36.0/lib/.libs/libcurl.a(libcurl_la-curl_fnmatch.o)
                              /home/ql_xu/develop/trunk/uClinux-dist/user/curl-7.36.0/lib/.libs/libcurl.a(libcurl_la-ftplistparser.o) (Curl_fnmatch)
/home/ql_xu/develop/trunk/uClinux-dist/lib/zlib/libz.a(deflate.o)
                              ../libtransmission/libtransmission.a(rpc-server.o) (deflateInit2_)
/home/ql_xu/develop/trunk/uClinux-dist/lib/zlib/libz.a(trees.o)
                              /home/ql_xu/develop/trunk/uClinux-dist/lib/zlib/libz.a(deflate.o) (_dist_code)
/home/ql_xu/develop/trunk/uClinux-dist/lib/zlib/libz.a(zutil.o)
                              /home/ql_xu/develop/trunk/uClinux-dist/lib/zlib/libz.a(deflate.o) (z_errmsg)
/home/ql_xu/develop/trunk/uClinux-dist/lib/zlib/libz.a(inflate.o)
                              ../libtransmission/libtransmission.a(rpcimpl.o) (inflateEnd)
/home/ql_xu/develop/trunk/uClinux-dist/lib/zlib/libz.a(infblock.o)
                              /home/ql_xu/develop/trunk/uClinux-dist/lib/zlib/libz.a(inflate.o) (inflate_blocks_reset)
/home/ql_xu/develop/trunk/uClinux-dist/lib/zlib/libz.a(inftrees.o)
                              /home/ql_xu/develop/trunk/uClinux-dist/lib/zlib/libz.a(infblock.o) (inflate_trees_bits)
/home/ql_xu/develop/trunk/uClinux-dist/lib/zlib/libz.a(infcodes.o)
                              /home/ql_xu/develop/trunk/uClinux-dist/lib/zlib/libz.a(infblock.o) (inflate_codes_new)
/home/ql_xu/develop/trunk/uClinux-dist/lib/zlib/libz.a(infutil.o)
                              /home/ql_xu/develop/trunk/uClinux-dist/lib/zlib/libz.a(infblock.o) (inflate_mask)
/home/ql_xu/develop/trunk/uClinux-dist/lib/zlib/libz.a(inffast.o)
                              /home/ql_xu/develop/trunk/uClinux-dist/lib/zlib/libz.a(infcodes.o) (inflate_fast)
/home/ql_xu/develop/trunk/uClinux-dist/lib/zlib/libz.a(adler32.o)
                              /home/ql_xu/develop/trunk/uClinux-dist/lib/zlib/libz.a(deflate.o) (adler32)
/rsdk-4.4.7-5281-EB-2.6.30-0.9.33-m32utb-140606/bin/../lib/gcc/mips-linux-uclibc/4.4.7/5281/libgcc.a(_fixunssfsi.o)
                              ../libtransmission/libtransmission.a(torrent.o) (__fixunssfsi)
/rsdk-4.4.7-5281-EB-2.6.30-0.9.33-m32utb-140606/bin/../lib/gcc/mips-linux-uclibc/4.4.7/5281/libgcc.a(_fixunsdfsi.o)
                              ../libtransmission/libtransmission.a(peer-io.o) (__fixunsdfsi)
/rsdk-4.4.7-5281-EB-2.6.30-0.9.33-m32utb-140606/bin/../lib/gcc/mips-linux-uclibc/4.4.7/5281/libgcc.a(_fixdfdi.o)
                              /home/ql_xu/develop/trunk/uClinux-dist/user/curl-7.36.0/lib/.libs/libcurl.a(libcurl_la-progress.o) (__fixdfdi)
/rsdk-4.4.7-5281-EB-2.6.30-0.9.33-m32utb-140606/bin/../lib/gcc/mips-linux-uclibc/4.4.7/5281/libgcc.a(_fixunsdfdi.o)
                              ../libtransmission/libtransmission.a(torrent.o) (__fixunsdfdi)
/rsdk-4.4.7-5281-EB-2.6.30-0.9.33-m32utb-140606/bin/../lib/gcc/mips-linux-uclibc/4.4.7/5281/libgcc.a(_floatdidf.o)
                              ../libtransmission/libtransmission.a(bencode.o) (__floatdidf)
/rsdk-4.4.7-5281-EB-2.6.30-0.9.33-m32utb-140606/bin/../lib/gcc/mips-linux-uclibc/4.4.7/5281/libgcc.a(_floatundisf.o)
                              ../libtransmission/libtransmission.a(torrent.o) (__floatundisf)
/rsdk-4.4.7-5281-EB-2.6.30-0.9.33-m32utb-140606/bin/../lib/gcc/mips-linux-uclibc/4.4.7/5281/libgcc.a(_floatundidf.o)
                              ../libtransmission/libtransmission.a(torrent.o) (__floatundidf)
/rsdk-4.4.7-5281-EB-2.6.30-0.9.33-m32utb-140606/bin/../lib/gcc/mips-linux-uclibc/4.4.7/5281/libgcc.a(_divdi3.o)
                              /home/ql_xu/develop/trunk/uClinux-dist/user/curl-7.36.0/lib/.libs/libcurl.a(libcurl_la-progress.o) (__divdi3)
/rsdk-4.4.7-5281-EB-2.6.30-0.9.33-m32utb-140606/bin/../lib/gcc/mips-linux-uclibc/4.4.7/5281/libgcc.a(_udivdi3.o)
                              ../libtransmission/libtransmission.a(session.o) (__udivdi3)
/rsdk-4.4.7-5281-EB-2.6.30-0.9.33-m32utb-140606/bin/../lib/gcc/mips-linux-uclibc/4.4.7/5281/libgcc.a(_umoddi3.o)
                              ../libtransmission/libtransmission.a(torrent.o) (__umoddi3)
/rsdk-4.4.7-5281-EB-2.6.30-0.9.33-m32utb-140606/bin/../lib/gcc/mips-linux-uclibc/4.4.7/5281/libgcc.a(addsf3.o)
                              ../libtransmission/libtransmission.a(peer-mgr.o) (__addsf3)
/rsdk-4.4.7-5281-EB-2.6.30-0.9.33-m32utb-140606/bin/../lib/gcc/mips-linux-uclibc/4.4.7/5281/libgcc.a(divsf3.o)
                              ../libtransmission/libtransmission.a(torrent.o) (__divsf3)
/rsdk-4.4.7-5281-EB-2.6.30-0.9.33-m32utb-140606/bin/../lib/gcc/mips-linux-uclibc/4.4.7/5281/libgcc.a(gesf2.o)
                              ../libtransmission/libtransmission.a(peer-mgr.o) (__gesf2)
/rsdk-4.4.7-5281-EB-2.6.30-0.9.33-m32utb-140606/bin/../lib/gcc/mips-linux-uclibc/4.4.7/5281/libgcc.a(lesf2.o)
                              ../libtransmission/libtransmission.a(torrent.o) (__ltsf2)
/rsdk-4.4.7-5281-EB-2.6.30-0.9.33-m32utb-140606/bin/../lib/gcc/mips-linux-uclibc/4.4.7/5281/libgcc.a(mulsf3.o)
                              cli.o (__mulsf3)
/rsdk-4.4.7-5281-EB-2.6.30-0.9.33-m32utb-140606/bin/../lib/gcc/mips-linux-uclibc/4.4.7/5281/libgcc.a(subsf3.o)
                              /rsdk-4.4.7-5281-EB-2.6.30-0.9.33-m32utb-140606/bin/../lib/gcc/mips-linux-uclibc/4.4.7/5281/libgcc.a(_fixunssfsi.o) (__subsf3)
/rsdk-4.4.7-5281-EB-2.6.30-0.9.33-m32utb-140606/bin/../lib/gcc/mips-linux-uclibc/4.4.7/5281/libgcc.a(fixsfsi.o)
                              ../libtransmission/libtransmission.a(peer-mgr.o) (__fixsfsi)
/rsdk-4.4.7-5281-EB-2.6.30-0.9.33-m32utb-140606/bin/../lib/gcc/mips-linux-uclibc/4.4.7/5281/libgcc.a(floatsisf.o)
                              ../libtransmission/libtransmission.a(completion.o) (__floatsisf)
/rsdk-4.4.7-5281-EB-2.6.30-0.9.33-m32utb-140606/bin/../lib/gcc/mips-linux-uclibc/4.4.7/5281/libgcc.a(floatunsisf.o)
                              ../libtransmission/libtransmission.a(completion.o) (__floatunsisf)
/rsdk-4.4.7-5281-EB-2.6.30-0.9.33-m32utb-140606/bin/../lib/gcc/mips-linux-uclibc/4.4.7/5281/libgcc.a(adddf3.o)
                              ../libtransmission/libtransmission.a(torrent.o) (__adddf3)
/rsdk-4.4.7-5281-EB-2.6.30-0.9.33-m32utb-140606/bin/../lib/gcc/mips-linux-uclibc/4.4.7/5281/libgcc.a(divdf3.o)
                              ../libtransmission/libtransmission.a(session.o) (__divdf3)
/rsdk-4.4.7-5281-EB-2.6.30-0.9.33-m32utb-140606/bin/../lib/gcc/mips-linux-uclibc/4.4.7/5281/libgcc.a(gedf2.o)
                              ../libtransmission/libtransmission.a(torrent.o) (__gedf2)
/rsdk-4.4.7-5281-EB-2.6.30-0.9.33-m32utb-140606/bin/../lib/gcc/mips-linux-uclibc/4.4.7/5281/libgcc.a(ledf2.o)
                              ../libtransmission/libtransmission.a(utils.o) (__ledf2)
/rsdk-4.4.7-5281-EB-2.6.30-0.9.33-m32utb-140606/bin/../lib/gcc/mips-linux-uclibc/4.4.7/5281/libgcc.a(muldf3.o)
                              ../libtransmission/libtransmission.a(peer-io.o) (__muldf3)
/rsdk-4.4.7-5281-EB-2.6.30-0.9.33-m32utb-140606/bin/../lib/gcc/mips-linux-uclibc/4.4.7/5281/libgcc.a(subdf3.o)
                              ../libtransmission/libtransmission.a(bencode.o) (__subdf3)
/rsdk-4.4.7-5281-EB-2.6.30-0.9.33-m32utb-140606/bin/../lib/gcc/mips-linux-uclibc/4.4.7/5281/libgcc.a(fixdfsi.o)
                              cli.o (__fixdfsi)
/rsdk-4.4.7-5281-EB-2.6.30-0.9.33-m32utb-140606/bin/../lib/gcc/mips-linux-uclibc/4.4.7/5281/libgcc.a(floatsidf.o)
                              ../libtransmission/libtransmission.a(bencode.o) (__floatsidf)
/rsdk-4.4.7-5281-EB-2.6.30-0.9.33-m32utb-140606/bin/../lib/gcc/mips-linux-uclibc/4.4.7/5281/libgcc.a(floatunsidf.o)
                              ../libtransmission/libtransmission.a(peer-io.o) (__floatunsidf)
/rsdk-4.4.7-5281-EB-2.6.30-0.9.33-m32utb-140606/bin/../lib/gcc/mips-linux-uclibc/4.4.7/5281/libgcc.a(extendsfdf2.o)
                              cli.o (__extendsfdf2)
/rsdk-4.4.7-5281-EB-2.6.30-0.9.33-m32utb-140606/bin/../lib/gcc/mips-linux-uclibc/4.4.7/5281/libgcc.a(truncdfsf2.o)
                              ../libtransmission/libtransmission.a(session.o) (__truncdfsf2)
/rsdk-4.4.7-5281-EB-2.6.30-0.9.33-m32utb-140606/bin/../lib/gcc/mips-linux-uclibc/4.4.7/5281/libgcc.a(_clz.o)
                              /rsdk-4.4.7-5281-EB-2.6.30-0.9.33-m32utb-140606/bin/../lib/gcc/mips-linux-uclibc/4.4.7/5281/libgcc.a(_divdi3.o) (__clz_tab)
/rsdk-4.4.7-5281-EB-2.6.30-0.9.33-m32utb-140606/bin/../lib/gcc/mips-linux-uclibc/4.4.7/5281/libgcc.a(_clzsi2.o)
                              /rsdk-4.4.7-5281-EB-2.6.30-0.9.33-m32utb-140606/bin/../lib/gcc/mips-linux-uclibc/4.4.7/5281/libgcc.a(addsf3.o) (__clzsi2)

Allocating common symbols
Common symbol       size              file

next_blacklisted    0x4               ../third-party/dht/libdht.a(dht.o)
curl_jmpenv         0x80              /home/ql_xu/develop/trunk/uClinux-dist/user/curl-7.36.0/lib/.libs/libcurl.a(libcurl_la-hostip.o)

Discarded input sections

 .note.GNU-stack
                0x0000000000000000        0x0 /rsdk-4.4.7-5281-EB-2.6.30-0.9.33-m32utb-140606/bin/../lib/gcc/mips-linux-uclibc/4.4.7/../../../../mips-linux-uclibc/lib/crt1.o
 .reginfo       0x0000000000000000       0x18 /rsdk-4.4.7-5281-EB-2.6.30-0.9.33-m32utb-140606/bin/../lib/gcc/mips-linux-uclibc/4.4.7/../../../../mips-linux-uclibc/lib/crti.o
 .note.GNU-stack
                0x0000000000000000        0x0 /rsdk-4.4.7-5281-EB-2.6.30-0.9.33-m32utb-140606/bin/../lib/gcc/mips-linux-uclibc/4.4.7/../../../../mips-linux-uclibc/lib/crti.o
 .reginfo       0x0000000000000000       0x18 /rsdk-4.4.7-5281-EB-2.6.30-0.9.33-m32utb-140606/bin/../lib/gcc/mips-linux-uclibc/4.4.7/5281/crtbegin.o
 .reginfo       0x0000000000000000       0x18 cli.o
 .reginfo       0x0000000000000000       0x18 ../libtransmission/libtransmission.a(bencode.o)
 .reginfo       0x0000000000000000       0x18 ../libtransmission/libtransmission.a(ConvertUTF.o)
 .reginfo       0x0000000000000000       0x18 ../libtransmission/libtransmission.a(fdlimit.o)
 .reginfo       0x0000000000000000       0x18 ../libtransmission/libtransmission.a(json.o)
 .reginfo       0x0000000000000000       0x18 ../libtransmission/libtransmission.a(JSON_parser.o)
 .reginfo       0x0000000000000000       0x18 ../libtransmission/libtransmission.a(list.o)
 .reginfo       0x0000000000000000       0x18 ../libtransmission/libtransmission.a(net.o)
 .reginfo       0x0000000000000000       0x18 ../libtransmission/libtransmission.a(peer-io.o)
 .reginfo       0x0000000000000000       0x18 ../libtransmission/libtransmission.a(platform.o)
 .reginfo       0x0000000000000000       0x18 ../libtransmission/libtransmission.a(ptrarray.o)
 .reginfo       0x0000000000000000       0x18 ../libtransmission/libtransmission.a(session.o)
 .reginfo       0x0000000000000000       0x18 ../libtransmission/libtransmission.a(stats.o)
 .reginfo       0x0000000000000000       0x18 ../libtransmission/libtransmission.a(torrent.o)
 .reginfo       0x0000000000000000       0x18 ../libtransmission/libtransmission.a(torrent-ctor.o)
 .reginfo       0x0000000000000000       0x18 ../libtransmission/libtransmission.a(torrent-magnet.o)
 .reginfo       0x0000000000000000       0x18 ../libtransmission/libtransmission.a(tr-dht.o)
 .reginfo       0x0000000000000000       0x18 ../libtransmission/libtransmission.a(tr-lpd.o)
 .reginfo       0x0000000000000000       0x18 ../libtransmission/libtransmission.a(tr-udp.o)
 .reginfo       0x0000000000000000       0x18 ../libtransmission/libtransmission.a(tr-utp.o)
 .reginfo       0x0000000000000000       0x18 ../libtransmission/libtransmission.a(tr-getopt.o)
 .reginfo       0x0000000000000000       0x18 ../libtransmission/libtransmission.a(trevent.o)
 .reginfo       0x0000000000000000       0x18 ../libtransmission/libtransmission.a(utils.o)
 .reginfo       0x0000000000000000       0x18 ../libtransmission/libtransmission.a(verify.o)
 .reginfo       0x0000000000000000       0x18 ../libtransmission/libtransmission.a(web.o)
 .reginfo       0x0000000000000000       0x18 ../libtransmission/libtransmission.a(announcer.o)
 .reginfo       0x0000000000000000       0x18 ../libtransmission/libtransmission.a(announcer-http.o)
 .reginfo       0x0000000000000000       0x18 ../libtransmission/libtransmission.a(announcer-udp.o)
 .reginfo       0x0000000000000000       0x18 ../libtransmission/libtransmission.a(bandwidth.o)
 .reginfo       0x0000000000000000       0x18 ../libtransmission/libtransmission.a(bitfield.o)
 .reginfo       0x0000000000000000       0x18 ../libtransmission/libtransmission.a(blocklist.o)
 .reginfo       0x0000000000000000       0x18 ../libtransmission/libtransmission.a(cache.o)
 .reginfo       0x0000000000000000       0x18 ../libtransmission/libtransmission.a(completion.o)
 .reginfo       0x0000000000000000       0x18 ../libtransmission/libtransmission.a(crypto.o)
 .reginfo       0x0000000000000000       0x18 ../libtransmission/libtransmission.a(inout.o)
 .reginfo       0x0000000000000000       0x18 ../libtransmission/libtransmission.a(magnet.o)
 .reginfo       0x0000000000000000       0x18 ../libtransmission/libtransmission.a(metainfo.o)
 .reginfo       0x0000000000000000       0x18 ../libtransmission/libtransmission.a(peer-mgr.o)
 .reginfo       0x0000000000000000       0x18 ../libtransmission/libtransmission.a(peer-msgs.o)
 .reginfo       0x0000000000000000       0x18 ../libtransmission/libtransmission.a(port-forwarding.o)
 .reginfo       0x0000000000000000       0x18 ../libtransmission/libtransmission.a(resume.o)
 .reginfo       0x0000000000000000       0x18 ../libtransmission/libtransmission.a(rpc-server.o)
 .reginfo       0x0000000000000000       0x18 ../libtransmission/libtransmission.a(upnp.o)
 .reginfo       0x0000000000000000       0x18 ../libtransmission/libtransmission.a(webseed.o)
 .reginfo       0x0000000000000000       0x18 ../libtransmission/libtransmission.a(wildmat.o)
 .reginfo       0x0000000000000000       0x18 ../libtransmission/libtransmission.a(clients.o)
 .reginfo       0x0000000000000000       0x18 ../libtransmission/libtransmission.a(handshake.o)
 .reginfo       0x0000000000000000       0x18 ../libtransmission/libtransmission.a(history.o)
 .reginfo       0x0000000000000000       0x18 ../libtransmission/libtransmission.a(natpmp.o)
 .reginfo       0x0000000000000000       0x18 ../libtransmission/libtransmission.a(rpcimpl.o)
 .reginfo       0x0000000000000000       0x18 ../third-party/libnatpmp/libnatpmp.a(natpmp.o)
 .reginfo       0x0000000000000000       0x18 ../third-party/libnatpmp/libnatpmp.a(getgateway.o)
 .reginfo       0x0000000000000000       0x18 ../third-party/miniupnp/libminiupnp.a(miniupnpc.o)
 .reginfo       0x0000000000000000       0x18 ../third-party/miniupnp/libminiupnp.a(miniwget.o)
 .reginfo       0x0000000000000000       0x18 ../third-party/miniupnp/libminiupnp.a(minixml.o)
 .reginfo       0x0000000000000000       0x18 ../third-party/miniupnp/libminiupnp.a(receivedata.o)
 .reginfo       0x0000000000000000       0x18 ../third-party/miniupnp/libminiupnp.a(upnpcommands.o)
 .reginfo       0x0000000000000000       0x18 ../third-party/miniupnp/libminiupnp.a(upnpreplyparse.o)
 .reginfo       0x0000000000000000       0x18 ../third-party/miniupnp/libminiupnp.a(connecthostport.o)
 .reginfo       0x0000000000000000       0x18 ../third-party/miniupnp/libminiupnp.a(igd_desc_parse.o)
 .reginfo       0x0000000000000000       0x18 ../third-party/miniupnp/libminiupnp.a(minisoap.o)
 .reginfo       0x0000000000000000       0x18 ../third-party/miniupnp/libminiupnp.a(minissdpc.o)
 .reginfo       0x0000000000000000       0x18 ../third-party/miniupnp/libminiupnp.a(portlistingparse.o)
 .reginfo       0x0000000000000000       0x18 ../third-party/dht/libdht.a(dht.o)
 .group         0x0000000000000000        0x8 ../third-party/libutp/libutp.a(utp.o)
 .group         0x0000000000000000        0x8 ../third-party/libutp/libutp.a(utp.o)
 .group         0x0000000000000000        0x8 ../third-party/libutp/libutp.a(utp.o)
 .group         0x0000000000000000        0x8 ../third-party/libutp/libutp.a(utp.o)
 .reginfo       0x0000000000000000       0x18 ../third-party/libutp/libutp.a(utp.o)
 .reginfo       0x0000000000000000       0x18 ../third-party/libutp/libutp.a(utp_utils.o)
 .reginfo       0x0000000000000000       0x18 /home/ql_xu/develop/trunk/uClinux-dist/lib/libevent/.libs/libevent.a(event.o)
 .reginfo       0x0000000000000000       0x18 /home/ql_xu/develop/trunk/uClinux-dist/lib/libevent/.libs/libevent.a(evthread.o)
 .reginfo       0x0000000000000000       0x18 /home/ql_xu/develop/trunk/uClinux-dist/lib/libevent/.libs/libevent.a(buffer.o)
 .reginfo       0x0000000000000000       0x18 /home/ql_xu/develop/trunk/uClinux-dist/lib/libevent/.libs/libevent.a(bufferevent.o)
 .reginfo       0x0000000000000000       0x18 /home/ql_xu/develop/trunk/uClinux-dist/lib/libevent/.libs/libevent.a(bufferevent_ratelim.o)
 .reginfo       0x0000000000000000       0x18 /home/ql_xu/develop/trunk/uClinux-dist/lib/libevent/.libs/libevent.a(evmap.o)
 .reginfo       0x0000000000000000       0x18 /home/ql_xu/develop/trunk/uClinux-dist/lib/libevent/.libs/libevent.a(log.o)
 .reginfo       0x0000000000000000       0x18 /home/ql_xu/develop/trunk/uClinux-dist/lib/libevent/.libs/libevent.a(evutil.o)
 .reginfo       0x0000000000000000       0x18 /home/ql_xu/develop/trunk/uClinux-dist/lib/libevent/.libs/libevent.a(evutil_rand.o)
 .reginfo       0x0000000000000000       0x18 /home/ql_xu/develop/trunk/uClinux-dist/lib/libevent/.libs/libevent.a(select.o)
 .reginfo       0x0000000000000000       0x18 /home/ql_xu/develop/trunk/uClinux-dist/lib/libevent/.libs/libevent.a(poll.o)
 .reginfo       0x0000000000000000       0x18 /home/ql_xu/develop/trunk/uClinux-dist/lib/libevent/.libs/libevent.a(epoll.o)
 .reginfo       0x0000000000000000       0x18 /home/ql_xu/develop/trunk/uClinux-dist/lib/libevent/.libs/libevent.a(signal.o)
 .reginfo       0x0000000000000000       0x18 /home/ql_xu/develop/trunk/uClinux-dist/lib/libevent/.libs/libevent.a(http.o)
 .reginfo       0x0000000000000000       0x18 /home/ql_xu/develop/trunk/uClinux-dist/lib/libevent/.libs/libevent.a(evdns.o)
 .reginfo       0x0000000000000000       0x18 /home/ql_xu/develop/trunk/uClinux-dist/lib/libevent/.libs/libevent.a(bufferevent_sock.o)
 .reginfo       0x0000000000000000       0x18 /home/ql_xu/develop/trunk/uClinux-dist/lib/libevent/.libs/libevent.a(listener.o)
 .reginfo       0x0000000000000000       0x18 /home/ql_xu/develop/trunk/uClinux-dist/user/curl-7.36.0/lib/.libs/libcurl.a(libcurl_la-escape.o)
 .reginfo       0x0000000000000000       0x18 /home/ql_xu/develop/trunk/uClinux-dist/user/curl-7.36.0/lib/.libs/libcurl.a(libcurl_la-mprintf.o)
 .reginfo       0x0000000000000000       0x18 /home/ql_xu/develop/trunk/uClinux-dist/user/curl-7.36.0/lib/.libs/libcurl.a(libcurl_la-easy.o)
 .reginfo       0x0000000000000000       0x18 /home/ql_xu/develop/trunk/uClinux-dist/user/curl-7.36.0/lib/.libs/libcurl.a(libcurl_la-connect.o)
 .reginfo       0x0000000000000000       0x18 /home/ql_xu/develop/trunk/uClinux-dist/user/curl-7.36.0/lib/.libs/libcurl.a(libcurl_la-multi.o)
 .reginfo       0x0000000000000000       0x18 /home/ql_xu/develop/trunk/uClinux-dist/user/curl-7.36.0/lib/.libs/libcurl.a(libcurl_la-strerror.o)
 .reginfo       0x0000000000000000       0x18 /home/ql_xu/develop/trunk/uClinux-dist/user/curl-7.36.0/lib/.libs/libcurl.a(libcurl_la-select.o)
 .reginfo       0x0000000000000000       0x18 /home/ql_xu/develop/trunk/uClinux-dist/user/curl-7.36.0/lib/.libs/libcurl.a(libcurl_la-splay.o)
 .reginfo       0x0000000000000000       0x18 /home/ql_xu/develop/trunk/uClinux-dist/user/curl-7.36.0/lib/.libs/libcurl.a(libcurl_la-slist.o)
 .reginfo       0x0000000000000000       0x18 /home/ql_xu/develop/trunk/uClinux-dist/user/curl-7.36.0/lib/.libs/libcurl.a(libcurl_la-nonblock.o)
 .reginfo       0x0000000000000000       0x18 /home/ql_xu/develop/trunk/uClinux-dist/user/curl-7.36.0/lib/.libs/libcurl.a(libcurl_la-warnless.o)
 .reginfo       0x0000000000000000       0x18 /home/ql_xu/develop/trunk/uClinux-dist/user/curl-7.36.0/lib/.libs/libcurl.a(libcurl_la-conncache.o)
 .reginfo       0x0000000000000000       0x18 /home/ql_xu/develop/trunk/uClinux-dist/user/curl-7.36.0/lib/.libs/libcurl.a(libcurl_la-pipeline.o)
 .reginfo       0x0000000000000000       0x18 /home/ql_xu/develop/trunk/uClinux-dist/user/curl-7.36.0/lib/.libs/libcurl.a(libcurl_la-timeval.o)
 .reginfo       0x0000000000000000       0x18 /home/ql_xu/develop/trunk/uClinux-dist/user/curl-7.36.0/lib/.libs/libcurl.a(libcurl_la-hostip.o)
 .reginfo       0x0000000000000000       0x18 /home/ql_xu/develop/trunk/uClinux-dist/user/curl-7.36.0/lib/.libs/libcurl.a(libcurl_la-progress.o)
 .reginfo       0x0000000000000000       0x18 /home/ql_xu/develop/trunk/uClinux-dist/user/curl-7.36.0/lib/.libs/libcurl.a(libcurl_la-cookie.o)
 .reginfo       0x0000000000000000       0x18 /home/ql_xu/develop/trunk/uClinux-dist/user/curl-7.36.0/lib/.libs/libcurl.a(libcurl_la-http.o)
 .reginfo       0x0000000000000000       0x18 /home/ql_xu/develop/trunk/uClinux-dist/user/curl-7.36.0/lib/.libs/libcurl.a(libcurl_la-sendf.o)
 .reginfo       0x0000000000000000       0x18 /home/ql_xu/develop/trunk/uClinux-dist/user/curl-7.36.0/lib/.libs/libcurl.a(libcurl_la-url.o)
 .reginfo       0x0000000000000000       0x18 /home/ql_xu/develop/trunk/uClinux-dist/user/curl-7.36.0/lib/.libs/libcurl.a(libcurl_la-dict.o)
 .reginfo       0x0000000000000000       0x18 /home/ql_xu/develop/trunk/uClinux-dist/user/curl-7.36.0/lib/.libs/libcurl.a(libcurl_la-if2ip.o)
 .reginfo       0x0000000000000000       0x18 /home/ql_xu/develop/trunk/uClinux-dist/user/curl-7.36.0/lib/.libs/libcurl.a(libcurl_la-speedcheck.o)
 .reginfo       0x0000000000000000       0x18 /home/ql_xu/develop/trunk/uClinux-dist/user/curl-7.36.0/lib/.libs/libcurl.a(libcurl_la-getenv.o)
 .reginfo       0x0000000000000000       0x18 /home/ql_xu/develop/trunk/uClinux-dist/user/curl-7.36.0/lib/.libs/libcurl.a(libcurl_la-telnet.o)
 .reginfo       0x0000000000000000       0x18 /home/ql_xu/develop/trunk/uClinux-dist/user/curl-7.36.0/lib/.libs/libcurl.a(libcurl_la-netrc.o)
 .reginfo       0x0000000000000000       0x18 /home/ql_xu/develop/trunk/uClinux-dist/user/curl-7.36.0/lib/.libs/libcurl.a(libcurl_la-getinfo.o)
 .reginfo       0x0000000000000000       0x18 /home/ql_xu/develop/trunk/uClinux-dist/user/curl-7.36.0/lib/.libs/libcurl.a(libcurl_la-transfer.o)
 .reginfo       0x0000000000000000       0x18 /home/ql_xu/develop/trunk/uClinux-dist/user/curl-7.36.0/lib/.libs/libcurl.a(libcurl_la-strequal.o)
 .reginfo       0x0000000000000000       0x18 /home/ql_xu/develop/trunk/uClinux-dist/user/curl-7.36.0/lib/.libs/libcurl.a(libcurl_la-wildcard.o)
 .reginfo       0x0000000000000000       0x18 /home/ql_xu/develop/trunk/uClinux-dist/user/curl-7.36.0/lib/.libs/libcurl.a(libcurl_la-http_chunks.o)
 .reginfo       0x0000000000000000       0x18 /home/ql_xu/develop/trunk/uClinux-dist/user/curl-7.36.0/lib/.libs/libcurl.a(libcurl_la-llist.o)
 .reginfo       0x0000000000000000       0x18 /home/ql_xu/develop/trunk/uClinux-dist/user/curl-7.36.0/lib/.libs/libcurl.a(libcurl_la-hash.o)
 .reginfo       0x0000000000000000       0x18 /home/ql_xu/develop/trunk/uClinux-dist/user/curl-7.36.0/lib/.libs/libcurl.a(libcurl_la-share.o)
 .reginfo       0x0000000000000000       0x18 /home/ql_xu/develop/trunk/uClinux-dist/user/curl-7.36.0/lib/.libs/libcurl.a(libcurl_la-http_digest.o)
 .reginfo       0x0000000000000000       0x18 /home/ql_xu/develop/trunk/uClinux-dist/user/curl-7.36.0/lib/.libs/libcurl.a(libcurl_la-md5.o)
 .reginfo       0x0000000000000000       0x18 /home/ql_xu/develop/trunk/uClinux-dist/user/curl-7.36.0/lib/.libs/libcurl.a(libcurl_la-hostip4.o)
 .reginfo       0x0000000000000000       0x18 /home/ql_xu/develop/trunk/uClinux-dist/user/curl-7.36.0/lib/.libs/libcurl.a(libcurl_la-hostsyn.o)
 .reginfo       0x0000000000000000       0x18 /home/ql_xu/develop/trunk/uClinux-dist/user/curl-7.36.0/lib/.libs/libcurl.a(libcurl_la-parsedate.o)
 .reginfo       0x0000000000000000       0x18 /home/ql_xu/develop/trunk/uClinux-dist/user/curl-7.36.0/lib/.libs/libcurl.a(libcurl_la-tftp.o)
 .reginfo       0x0000000000000000       0x18 /home/ql_xu/develop/trunk/uClinux-dist/user/curl-7.36.0/lib/.libs/libcurl.a(libcurl_la-socks.o)
 .reginfo       0x0000000000000000       0x18 /home/ql_xu/develop/trunk/uClinux-dist/user/curl-7.36.0/lib/.libs/libcurl.a(libcurl_la-rawstr.o)
 .reginfo       0x0000000000000000       0x18 /home/ql_xu/develop/trunk/uClinux-dist/user/curl-7.36.0/lib/.libs/libcurl.a(libcurl_la-curl_addrinfo.o)
 .reginfo       0x0000000000000000       0x18 /home/ql_xu/develop/trunk/uClinux-dist/user/curl-7.36.0/lib/.libs/libcurl.a(libcurl_la-curl_memrchr.o)
 .reginfo       0x0000000000000000       0x18 /home/ql_xu/develop/trunk/uClinux-dist/user/curl-7.36.0/lib/.libs/libcurl.a(libcurl_la-imap.o)
 .reginfo       0x0000000000000000       0x18 /home/ql_xu/develop/trunk/uClinux-dist/user/curl-7.36.0/lib/.libs/libcurl.a(libcurl_la-pop3.o)
 .reginfo       0x0000000000000000       0x18 /home/ql_xu/develop/trunk/uClinux-dist/user/curl-7.36.0/lib/.libs/libcurl.a(libcurl_la-smtp.o)
 .reginfo       0x0000000000000000       0x18 /home/ql_xu/develop/trunk/uClinux-dist/user/curl-7.36.0/lib/.libs/libcurl.a(libcurl_la-pingpong.o)
 .reginfo       0x0000000000000000       0x18 /home/ql_xu/develop/trunk/uClinux-dist/user/curl-7.36.0/lib/.libs/libcurl.a(libcurl_la-rtsp.o)
 .reginfo       0x0000000000000000       0x18 /home/ql_xu/develop/trunk/uClinux-dist/user/curl-7.36.0/lib/.libs/libcurl.a(libcurl_la-curl_gethostname.o)
 .reginfo       0x0000000000000000       0x18 /home/ql_xu/develop/trunk/uClinux-dist/user/curl-7.36.0/lib/.libs/libcurl.a(libcurl_la-gopher.o)
 .reginfo       0x0000000000000000       0x18 /home/ql_xu/develop/trunk/uClinux-dist/user/curl-7.36.0/lib/.libs/libcurl.a(libcurl_la-http_proxy.o)
 .reginfo       0x0000000000000000       0x18 /home/ql_xu/develop/trunk/uClinux-dist/user/curl-7.36.0/lib/.libs/libcurl.a(libcurl_la-curl_sasl.o)
 .reginfo       0x0000000000000000       0x18 /home/ql_xu/develop/trunk/uClinux-dist/user/curl-7.36.0/lib/.libs/libcurl.a(libcurl_la-bundles.o)
 .reginfo       0x0000000000000000       0x18 /home/ql_xu/develop/trunk/uClinux-dist/user/curl-7.36.0/lib/.libs/libcurl.a(libcurl_la-dotdot.o)
 .reginfo       0x0000000000000000       0x18 /home/ql_xu/develop/trunk/uClinux-dist/user/curl-7.36.0/lib/.libs/libcurl.a(libcurl_la-vtls.o)
 .reginfo       0x0000000000000000       0x18 /home/ql_xu/develop/trunk/uClinux-dist/user/curl-7.36.0/lib/.libs/libcurl.a(libcurl_la-file.o)
 .reginfo       0x0000000000000000       0x18 /home/ql_xu/develop/trunk/uClinux-dist/user/curl-7.36.0/lib/.libs/libcurl.a(libcurl_la-base64.o)
 .reginfo       0x0000000000000000       0x18 /home/ql_xu/develop/trunk/uClinux-dist/user/curl-7.36.0/lib/.libs/libcurl.a(libcurl_la-formdata.o)
 .reginfo       0x0000000000000000       0x18 /home/ql_xu/develop/trunk/uClinux-dist/user/curl-7.36.0/lib/.libs/libcurl.a(libcurl_la-ftp.o)
 .reginfo       0x0000000000000000       0x18 /home/ql_xu/develop/trunk/uClinux-dist/user/curl-7.36.0/lib/.libs/libcurl.a(libcurl_la-fileinfo.o)
 .reginfo       0x0000000000000000       0x18 /home/ql_xu/develop/trunk/uClinux-dist/user/curl-7.36.0/lib/.libs/libcurl.a(libcurl_la-ftplistparser.o)
 .reginfo       0x0000000000000000       0x18 /home/ql_xu/develop/trunk/uClinux-dist/user/curl-7.36.0/lib/.libs/libcurl.a(libcurl_la-hmac.o)
 .reginfo       0x0000000000000000       0x18 /home/ql_xu/develop/trunk/uClinux-dist/user/curl-7.36.0/lib/.libs/libcurl.a(libcurl_la-curl_fnmatch.o)
 .reginfo       0x0000000000000000       0x18 /home/ql_xu/develop/trunk/uClinux-dist/lib/zlib/libz.a(deflate.o)
 .reginfo       0x0000000000000000       0x18 /home/ql_xu/develop/trunk/uClinux-dist/lib/zlib/libz.a(trees.o)
 .reginfo       0x0000000000000000       0x18 /home/ql_xu/develop/trunk/uClinux-dist/lib/zlib/libz.a(zutil.o)
 .reginfo       0x0000000000000000       0x18 /home/ql_xu/develop/trunk/uClinux-dist/lib/zlib/libz.a(inflate.o)
 .reginfo       0x0000000000000000       0x18 /home/ql_xu/develop/trunk/uClinux-dist/lib/zlib/libz.a(infblock.o)
 .reginfo       0x0000000000000000       0x18 /home/ql_xu/develop/trunk/uClinux-dist/lib/zlib/libz.a(inftrees.o)
 .reginfo       0x0000000000000000       0x18 /home/ql_xu/develop/trunk/uClinux-dist/lib/zlib/libz.a(infcodes.o)
 .reginfo       0x0000000000000000       0x18 /home/ql_xu/develop/trunk/uClinux-dist/lib/zlib/libz.a(infutil.o)
 .reginfo       0x0000000000000000       0x18 /home/ql_xu/develop/trunk/uClinux-dist/lib/zlib/libz.a(inffast.o)
 .reginfo       0x0000000000000000       0x18 /home/ql_xu/develop/trunk/uClinux-dist/lib/zlib/libz.a(adler32.o)
 .reginfo       0x0000000000000000       0x18 /rsdk-4.4.7-5281-EB-2.6.30-0.9.33-m32utb-140606/bin/../lib/gcc/mips-linux-uclibc/4.4.7/5281/libgcc.a(_fixunssfsi.o)
 .reginfo       0x0000000000000000       0x18 /rsdk-4.4.7-5281-EB-2.6.30-0.9.33-m32utb-140606/bin/../lib/gcc/mips-linux-uclibc/4.4.7/5281/libgcc.a(_fixunsdfsi.o)
 .reginfo       0x0000000000000000       0x18 /rsdk-4.4.7-5281-EB-2.6.30-0.9.33-m32utb-140606/bin/../lib/gcc/mips-linux-uclibc/4.4.7/5281/libgcc.a(_fixdfdi.o)
 .reginfo       0x0000000000000000       0x18 /rsdk-4.4.7-5281-EB-2.6.30-0.9.33-m32utb-140606/bin/../lib/gcc/mips-linux-uclibc/4.4.7/5281/libgcc.a(_fixunsdfdi.o)
 .reginfo       0x0000000000000000       0x18 /rsdk-4.4.7-5281-EB-2.6.30-0.9.33-m32utb-140606/bin/../lib/gcc/mips-linux-uclibc/4.4.7/5281/libgcc.a(_floatdidf.o)
 .reginfo       0x0000000000000000       0x18 /rsdk-4.4.7-5281-EB-2.6.30-0.9.33-m32utb-140606/bin/../lib/gcc/mips-linux-uclibc/4.4.7/5281/libgcc.a(_floatundisf.o)
 .reginfo       0x0000000000000000       0x18 /rsdk-4.4.7-5281-EB-2.6.30-0.9.33-m32utb-140606/bin/../lib/gcc/mips-linux-uclibc/4.4.7/5281/libgcc.a(_floatundidf.o)
 .reginfo       0x0000000000000000       0x18 /rsdk-4.4.7-5281-EB-2.6.30-0.9.33-m32utb-140606/bin/../lib/gcc/mips-linux-uclibc/4.4.7/5281/libgcc.a(_divdi3.o)
 .reginfo       0x0000000000000000       0x18 /rsdk-4.4.7-5281-EB-2.6.30-0.9.33-m32utb-140606/bin/../lib/gcc/mips-linux-uclibc/4.4.7/5281/libgcc.a(_udivdi3.o)
 .reginfo       0x0000000000000000       0x18 /rsdk-4.4.7-5281-EB-2.6.30-0.9.33-m32utb-140606/bin/../lib/gcc/mips-linux-uclibc/4.4.7/5281/libgcc.a(_umoddi3.o)
 .reginfo       0x0000000000000000       0x18 /rsdk-4.4.7-5281-EB-2.6.30-0.9.33-m32utb-140606/bin/../lib/gcc/mips-linux-uclibc/4.4.7/5281/libgcc.a(addsf3.o)
 .reginfo       0x0000000000000000       0x18 /rsdk-4.4.7-5281-EB-2.6.30-0.9.33-m32utb-140606/bin/../lib/gcc/mips-linux-uclibc/4.4.7/5281/libgcc.a(divsf3.o)
 .reginfo       0x0000000000000000       0x18 /rsdk-4.4.7-5281-EB-2.6.30-0.9.33-m32utb-140606/bin/../lib/gcc/mips-linux-uclibc/4.4.7/5281/libgcc.a(gesf2.o)
 .reginfo       0x0000000000000000       0x18 /rsdk-4.4.7-5281-EB-2.6.30-0.9.33-m32utb-140606/bin/../lib/gcc/mips-linux-uclibc/4.4.7/5281/libgcc.a(lesf2.o)
 .reginfo       0x0000000000000000       0x18 /rsdk-4.4.7-5281-EB-2.6.30-0.9.33-m32utb-140606/bin/../lib/gcc/mips-linux-uclibc/4.4.7/5281/libgcc.a(mulsf3.o)
 .reginfo       0x0000000000000000       0x18 /rsdk-4.4.7-5281-EB-2.6.30-0.9.33-m32utb-140606/bin/../lib/gcc/mips-linux-uclibc/4.4.7/5281/libgcc.a(subsf3.o)
 .reginfo       0x0000000000000000       0x18 /rsdk-4.4.7-5281-EB-2.6.30-0.9.33-m32utb-140606/bin/../lib/gcc/mips-linux-uclibc/4.4.7/5281/libgcc.a(fixsfsi.o)
 .reginfo       0x0000000000000000       0x18 /rsdk-4.4.7-5281-EB-2.6.30-0.9.33-m32utb-140606/bin/../lib/gcc/mips-linux-uclibc/4.4.7/5281/libgcc.a(floatsisf.o)
 .reginfo       0x0000000000000000       0x18 /rsdk-4.4.7-5281-EB-2.6.30-0.9.33-m32utb-140606/bin/../lib/gcc/mips-linux-uclibc/4.4.7/5281/libgcc.a(floatunsisf.o)
 .reginfo       0x0000000000000000       0x18 /rsdk-4.4.7-5281-EB-2.6.30-0.9.33-m32utb-140606/bin/../lib/gcc/mips-linux-uclibc/4.4.7/5281/libgcc.a(adddf3.o)
 .reginfo       0x0000000000000000       0x18 /rsdk-4.4.7-5281-EB-2.6.30-0.9.33-m32utb-140606/bin/../lib/gcc/mips-linux-uclibc/4.4.7/5281/libgcc.a(divdf3.o)
 .reginfo       0x0000000000000000       0x18 /rsdk-4.4.7-5281-EB-2.6.30-0.9.33-m32utb-140606/bin/../lib/gcc/mips-linux-uclibc/4.4.7/5281/libgcc.a(gedf2.o)
 .reginfo       0x0000000000000000       0x18 /rsdk-4.4.7-5281-EB-2.6.30-0.9.33-m32utb-140606/bin/../lib/gcc/mips-linux-uclibc/4.4.7/5281/libgcc.a(ledf2.o)
 .reginfo       0x0000000000000000       0x18 /rsdk-4.4.7-5281-EB-2.6.30-0.9.33-m32utb-140606/bin/../lib/gcc/mips-linux-uclibc/4.4.7/5281/libgcc.a(muldf3.o)
 .reginfo       0x0000000000000000       0x18 /rsdk-4.4.7-5281-EB-2.6.30-0.9.33-m32utb-140606/bin/../lib/gcc/mips-linux-uclibc/4.4.7/5281/libgcc.a(subdf3.o)
 .reginfo       0x0000000000000000       0x18 /rsdk-4.4.7-5281-EB-2.6.30-0.9.33-m32utb-140606/bin/../lib/gcc/mips-linux-uclibc/4.4.7/5281/libgcc.a(fixdfsi.o)
 .reginfo       0x0000000000000000       0x18 /rsdk-4.4.7-5281-EB-2.6.30-0.9.33-m32utb-140606/bin/../lib/gcc/mips-linux-uclibc/4.4.7/5281/libgcc.a(floatsidf.o)
 .reginfo       0x0000000000000000       0x18 /rsdk-4.4.7-5281-EB-2.6.30-0.9.33-m32utb-140606/bin/../lib/gcc/mips-linux-uclibc/4.4.7/5281/libgcc.a(floatunsidf.o)
 .reginfo       0x0000000000000000       0x18 /rsdk-4.4.7-5281-EB-2.6.30-0.9.33-m32utb-140606/bin/../lib/gcc/mips-linux-uclibc/4.4.7/5281/libgcc.a(extendsfdf2.o)
 .reginfo       0x0000000000000000       0x18 /rsdk-4.4.7-5281-EB-2.6.30-0.9.33-m32utb-140606/bin/../lib/gcc/mips-linux-uclibc/4.4.7/5281/libgcc.a(truncdfsf2.o)
 .reginfo       0x0000000000000000       0x18 /rsdk-4.4.7-5281-EB-2.6.30-0.9.33-m32utb-140606/bin/../lib/gcc/mips-linux-uclibc/4.4.7/5281/libgcc.a(_clz.o)
 .reginfo       0x0000000000000000       0x18 /rsdk-4.4.7-5281-EB-2.6.30-0.9.33-m32utb-140606/bin/../lib/gcc/mips-linux-uclibc/4.4.7/5281/libgcc.a(_clzsi2.o)
 .reginfo       0x0000000000000000       0x18 /rsdk-4.4.7-5281-EB-2.6.30-0.9.33-m32utb-140606/bin/../lib/gcc/mips-linux-uclibc/4.4.7/5281/crtend.o
 .reginfo       0x0000000000000000       0x18 /rsdk-4.4.7-5281-EB-2.6.30-0.9.33-m32utb-140606/bin/../lib/gcc/mips-linux-uclibc/4.4.7/../../../../mips-linux-uclibc/lib/crtn.o
 .note.GNU-stack
                0x0000000000000000        0x0 /rsdk-4.4.7-5281-EB-2.6.30-0.9.33-m32utb-140606/bin/../lib/gcc/mips-linux-uclibc/4.4.7/../../../../mips-linux-uclibc/lib/crtn.o

Memory Configuration

Name             Origin             Length             Attributes
*default*        0x0000000000000000 0xffffffffffffffff

Linker script and memory map

LOAD /rsdk-4.4.7-5281-EB-2.6.30-0.9.33-m32utb-140606/bin/../lib/gcc/mips-linux-uclibc/4.4.7/../../../../mips-linux-uclibc/lib/crt1.o
LOAD /rsdk-4.4.7-5281-EB-2.6.30-0.9.33-m32utb-140606/bin/../lib/gcc/mips-linux-uclibc/4.4.7/../../../../mips-linux-uclibc/lib/crti.o
LOAD /rsdk-4.4.7-5281-EB-2.6.30-0.9.33-m32utb-140606/bin/../lib/gcc/mips-linux-uclibc/4.4.7/5281/crtbegin.o
LOAD cli.o
LOAD ../libtransmission/libtransmission.a
LOAD ../third-party/libnatpmp/libnatpmp.a
LOAD ../third-party/miniupnp/libminiupnp.a
LOAD ../third-party/dht/libdht.a
LOAD ../third-party/libutp/libutp.a
LOAD /rsdk-4.4.7-5281-EB-2.6.30-0.9.33-m32utb-140606/bin/../lib/gcc/mips-linux-uclibc/4.4.7/../../../../mips-linux-uclibc/lib/librt.so
LOAD /home/ql_xu/develop/trunk/uClinux-dist/lib/libevent/.libs/libevent.a
LOAD /home/ql_xu/develop/trunk/uClinux-dist/user/curl-7.36.0/lib/.libs/libcurl.a
LOAD /home/ql_xu/develop/trunk/uClinux-dist/lib/libssl/libssl.so
LOAD /home/ql_xu/develop/trunk/uClinux-dist/lib/libssl/libcrypto.so
LOAD /rsdk-4.4.7-5281-EB-2.6.30-0.9.33-m32utb-140606/bin/../lib/gcc/mips-linux-uclibc/4.4.7/../../../../mips-linux-uclibc/lib/libm.so
LOAD /home/ql_xu/develop/trunk/uClinux-dist/lib/zlib/libz.a
LOAD /rsdk-4.4.7-5281-EB-2.6.30-0.9.33-m32utb-140606/bin/../lib/gcc/mips-linux-uclibc/4.4.7/5281/libgcc.a
LOAD /rsdk-4.4.7-5281-EB-2.6.30-0.9.33-m32utb-140606/bin/../lib/gcc/mips-linux-uclibc/4.4.7/../../../../mips-linux-uclibc/lib/5281/libgcc_s.so
LOAD /rsdk-4.4.7-5281-EB-2.6.30-0.9.33-m32utb-140606/bin/../lib/gcc/mips-linux-uclibc/4.4.7/../../../../mips-linux-uclibc/lib/libpthread.so
START GROUP
LOAD /rsdk-4.4.7-5281-EB-2.6.30-0.9.33-m32utb-140606/bin/../lib/gcc/mips-linux-uclibc/4.4.7/../../../../mips-linux-uclibc/lib/libpthread.so.0
LOAD /rsdk-4.4.7-5281-EB-2.6.30-0.9.33-m32utb-140606/bin/../lib/gcc/mips-linux-uclibc/4.4.7/../../../../mips-linux-uclibc/lib/libpthread_nonshared.a
END GROUP
LOAD /rsdk-4.4.7-5281-EB-2.6.30-0.9.33-m32utb-140606/bin/../lib/gcc/mips-linux-uclibc/4.4.7/../../../../mips-linux-uclibc/lib/libc.so
START GROUP
LOAD /rsdk-4.4.7-5281-EB-2.6.30-0.9.33-m32utb-140606/bin/../lib/gcc/mips-linux-uclibc/4.4.7/../../../../mips-linux-uclibc/lib/libc.so.0
LOAD /rsdk-4.4.7-5281-EB-2.6.30-0.9.33-m32utb-140606/bin/../lib/gcc/mips-linux-uclibc/4.4.7/../../../../mips-linux-uclibc/lib/uclibc_nonshared.a
LOAD /rsdk-4.4.7-5281-EB-2.6.30-0.9.33-m32utb-140606/bin/../lib/gcc/mips-linux-uclibc/4.4.7/../../../../mips-linux-uclibc/lib/ld-uClibc.so.0
END GROUP
LOAD /rsdk-4.4.7-5281-EB-2.6.30-0.9.33-m32utb-140606/bin/../lib/gcc/mips-linux-uclibc/4.4.7/5281/libgcc.a
LOAD /rsdk-4.4.7-5281-EB-2.6.30-0.9.33-m32utb-140606/bin/../lib/gcc/mips-linux-uclibc/4.4.7/../../../../mips-linux-uclibc/lib/5281/libgcc_s.so
LOAD /rsdk-4.4.7-5281-EB-2.6.30-0.9.33-m32utb-140606/bin/../lib/gcc/mips-linux-uclibc/4.4.7/5281/crtend.o
LOAD /rsdk-4.4.7-5281-EB-2.6.30-0.9.33-m32utb-140606/bin/../lib/gcc/mips-linux-uclibc/4.4.7/../../../../mips-linux-uclibc/lib/crtn.o
                0x0000000000400000                PROVIDE (__executable_start, 0x400000)
                0x0000000000400154                . = (0x400000 + SIZEOF_HEADERS)

.interp         0x0000000000400154       0x14
 *(.interp)
 .interp        0x0000000000400154       0x14 /rsdk-4.4.7-5281-EB-2.6.30-0.9.33-m32utb-140606/bin/../lib/gcc/mips-linux-uclibc/4.4.7/../../../../mips-linux-uclibc/lib/crt1.o

.reginfo        0x0000000000400168       0x18
 *(.reginfo)
 .reginfo       0x0000000000400168       0x18 /rsdk-4.4.7-5281-EB-2.6.30-0.9.33-m32utb-140606/bin/../lib/gcc/mips-linux-uclibc/4.4.7/../../../../mips-linux-uclibc/lib/crt1.o

.note.gnu.build-id
 *(.note.gnu.build-id)

.dynamic        0x0000000000400180      0x140
 *(.dynamic)
 .dynamic       0x0000000000400180      0x140 /rsdk-4.4.7-5281-EB-2.6.30-0.9.33-m32utb-140606/bin/../lib/gcc/mips-linux-uclibc/4.4.7/../../../../mips-linux-uclibc/lib/crt1.o
                0x0000000000400180                _DYNAMIC

.hash           0x00000000004002c0      0x8ac
 *(.hash)
 .hash          0x00000000004002c0      0x8ac /rsdk-4.4.7-5281-EB-2.6.30-0.9.33-m32utb-140606/bin/../lib/gcc/mips-linux-uclibc/4.4.7/../../../../mips-linux-uclibc/lib/crt1.o

.gnu.hash
 *(.gnu.hash)

.dynsym         0x0000000000400b6c     0x1220
 *(.dynsym)
 .dynsym        0x0000000000400b6c     0x1220 /rsdk-4.4.7-5281-EB-2.6.30-0.9.33-m32utb-140606/bin/../lib/gcc/mips-linux-uclibc/4.4.7/../../../../mips-linux-uclibc/lib/crt1.o

.dynstr         0x0000000000401d8c      0xb50
 *(.dynstr)
 .dynstr        0x0000000000401d8c      0xb50 /rsdk-4.4.7-5281-EB-2.6.30-0.9.33-m32utb-140606/bin/../lib/gcc/mips-linux-uclibc/4.4.7/../../../../mips-linux-uclibc/lib/crt1.o

.gnu.version    0x00000000004028dc      0x244
 *(.gnu.version)
 .gnu.version   0x00000000004028dc      0x244 /rsdk-4.4.7-5281-EB-2.6.30-0.9.33-m32utb-140606/bin/../lib/gcc/mips-linux-uclibc/4.4.7/../../../../mips-linux-uclibc/lib/crt1.o

.gnu.version_d  0x0000000000402b20        0x0
 *(.gnu.version_d)
 .gnu.version_d
                0x0000000000000000        0x0 /rsdk-4.4.7-5281-EB-2.6.30-0.9.33-m32utb-140606/bin/../lib/gcc/mips-linux-uclibc/4.4.7/../../../../mips-linux-uclibc/lib/crt1.o

.gnu.version_r  0x0000000000402b20       0x20
 *(.gnu.version_r)
 .gnu.version_r
                0x0000000000402b20       0x20 /rsdk-4.4.7-5281-EB-2.6.30-0.9.33-m32utb-140606/bin/../lib/gcc/mips-linux-uclibc/4.4.7/../../../../mips-linux-uclibc/lib/crt1.o

.rel.dyn        0x0000000000402b40       0x40
 *(.rel.init)
 *(.rel.text .rel.text.* .rel.gnu.linkonce.t.*)
 *(.rel.fini)
 *(.rel.rodata .rel.rodata.* .rel.gnu.linkonce.r.*)
 *(.rel.data.rel.ro .rel.data.rel.ro.* .rel.gnu.linkonce.d.rel.ro.*)
 *(.rel.data .rel.data.* .rel.gnu.linkonce.d.*)
 *(.rel.tdata .rel.tdata.* .rel.gnu.linkonce.td.*)
 *(.rel.tbss .rel.tbss.* .rel.gnu.linkonce.tb.*)
 *(.rel.ctors)
 *(.rel.dtors)
 *(.rel.got)
 *(.rel.dyn)
 .rel.dyn       0x0000000000402b40       0x40 /rsdk-4.4.7-5281-EB-2.6.30-0.9.33-m32utb-140606/bin/../lib/gcc/mips-linux-uclibc/4.4.7/../../../../mips-linux-uclibc/lib/crt1.o
 *(.rel.sdata .rel.sdata.* .rel.gnu.linkonce.s.*)
 *(.rel.sbss .rel.sbss.* .rel.gnu.linkonce.sb.*)
 *(.rel.sdata2 .rel.sdata2.* .rel.gnu.linkonce.s2.*)
 *(.rel.sbss2 .rel.sbss2.* .rel.gnu.linkonce.sb2.*)
 *(.rel.bss .rel.bss.* .rel.gnu.linkonce.b.*)
 .rel.bss       0x0000000000000000        0x0 /rsdk-4.4.7-5281-EB-2.6.30-0.9.33-m32utb-140606/bin/../lib/gcc/mips-linux-uclibc/4.4.7/../../../../mips-linux-uclibc/lib/crt1.o
                0x0000000000402b80                PROVIDE (__rel_iplt_start, .)
 *(.rel.iplt)
                0x0000000000402b80                PROVIDE (__rel_iplt_end, .)
                0x0000000000402b80                PROVIDE (__rela_iplt_start, .)
                0x0000000000402b80                PROVIDE (__rela_iplt_end, .)

.rela.dyn       0x0000000000402b80        0x0
 *(.rela.init)
 *(.rela.text .rela.text.* .rela.gnu.linkonce.t.*)
 *(.rela.fini)
 *(.rela.rodata .rela.rodata.* .rela.gnu.linkonce.r.*)
 *(.rela.data .rela.data.* .rela.gnu.linkonce.d.*)
 *(.rela.tdata .rela.tdata.* .rela.gnu.linkonce.td.*)
 *(.rela.tbss .rela.tbss.* .rela.gnu.linkonce.tb.*)
 *(.rela.ctors)
 *(.rela.dtors)
 *(.rela.got)
 *(.rela.sdata .rela.sdata.* .rela.gnu.linkonce.s.*)
 *(.rela.sbss .rela.sbss.* .rela.gnu.linkonce.sb.*)
 *(.rela.sdata2 .rela.sdata2.* .rela.gnu.linkonce.s2.*)
 *(.rela.sbss2 .rela.sbss2.* .rela.gnu.linkonce.sb2.*)
 *(.rela.bss .rela.bss.* .rela.gnu.linkonce.b.*)
                0x0000000000402b80                PROVIDE (__rel_iplt_start, .)
                0x0000000000402b80                PROVIDE (__rel_iplt_end, .)
                0x0000000000402b80                PROVIDE (__rela_iplt_start, .)
 *(.rela.iplt)
                0x0000000000402b80                PROVIDE (__rela_iplt_end, .)

.rel.plt        0x0000000000402b80      0x6e8
 *(.rel.plt)
 .rel.plt       0x0000000000402b80      0x6e8 /rsdk-4.4.7-5281-EB-2.6.30-0.9.33-m32utb-140606/bin/../lib/gcc/mips-linux-uclibc/4.4.7/../../../../mips-linux-uclibc/lib/crt1.o

.rela.plt
 *(.rela.plt)

.init           0x0000000000403268       0x48
 *(SORT(.init))
 .init          0x0000000000403268       0x1c /rsdk-4.4.7-5281-EB-2.6.30-0.9.33-m32utb-140606/bin/../lib/gcc/mips-linux-uclibc/4.4.7/../../../../mips-linux-uclibc/lib/crti.o
                0x0000000000403268                _init
 .init          0x0000000000403284       0x10 /rsdk-4.4.7-5281-EB-2.6.30-0.9.33-m32utb-140606/bin/../lib/gcc/mips-linux-uclibc/4.4.7/5281/crtbegin.o
 .init          0x0000000000403294       0x10 /rsdk-4.4.7-5281-EB-2.6.30-0.9.33-m32utb-140606/bin/../lib/gcc/mips-linux-uclibc/4.4.7/5281/crtend.o
 .init          0x00000000004032a4        0xc /rsdk-4.4.7-5281-EB-2.6.30-0.9.33-m32utb-140606/bin/../lib/gcc/mips-linux-uclibc/4.4.7/../../../../mips-linux-uclibc/lib/crtn.o

.plt            0x00000000004032c0      0xdf4
 *(.plt)
 *fill*         0x00000000004032c0        0x0 
 .plt           0x00000000004032c0      0xdf4 /rsdk-4.4.7-5281-EB-2.6.30-0.9.33-m32utb-140606/bin/../lib/gcc/mips-linux-uclibc/4.4.7/../../../../mips-linux-uclibc/lib/crt1.o
                0x00000000004032c0                _PROCEDURE_LINKAGE_TABLE_
                0x00000000004032e0                pthread_detach
                0x00000000004032f0                printf
                0x0000000000403300                exit
                0x0000000000403310                alarm
                0x0000000000403320                inet_addr
                0x0000000000403330                realloc
                0x0000000000403340                BN_rand
                0x0000000000403350                memmove
                0x0000000000403360                munmap
                0x0000000000403370                rmdir
                0x0000000000403380                localeconv
                0x0000000000403390                pthread_mutex_lock
                0x00000000004033a0                __sigsetjmp
                0x00000000004033b0                setlocale
                0x00000000004033c0                pwrite64
                0x00000000004033d0                pthread_mutexattr_settype
                0x00000000004033e0                strcspn
                0x00000000004033f0                strstr
                0x0000000000403400                clock_gettime
                0x0000000000403410                fread
                0x0000000000403420                atof
                0x0000000000403430                fcntl64
                0x0000000000403440                strtoull
                0x0000000000403450                fgets
                0x0000000000403460                fopen64
                0x0000000000403470                close
                0x0000000000403480                sigfillset
                0x0000000000403490                pthread_self
                0x00000000004034a0                epoll_wait
                0x00000000004034b0                strchr
                0x00000000004034c0                siglongjmp
                0x00000000004034d0                umask
                0x00000000004034e0                calloc
                0x00000000004034f0                strncmp
                0x0000000000403500                freeaddrinfo
                0x0000000000403510                fputc
                0x0000000000403520                strrchr
                0x0000000000403530                valloc
                0x0000000000403540                pthread_equal
                0x0000000000403550                strerror
                0x0000000000403560                __register_frame_info@@GLIBC_2.0
                0x0000000000403570                free
                0x0000000000403580                BN_new
                0x0000000000403590                dirname
                0x00000000004035a0                BIO_push
                0x00000000004035b0                fputs
                0x00000000004035c0                abort
                0x00000000004035d0                getegid
                0x00000000004035e0                unlink
                0x00000000004035f0                strtoll
                0x0000000000403600                BN_num_bits
                0x0000000000403610                BIO_read
                0x0000000000403620                mmap
                0x0000000000403630                fflush
                0x0000000000403640                dup2
                0x0000000000403650                strpbrk
                0x0000000000403660                _exit
                0x0000000000403670                fprintf
                0x0000000000403680                waitpid
                0x0000000000403690                BIO_f_base64
                0x00000000004036a0                RC4
                0x00000000004036b0                BN_bin2bn
                0x00000000004036c0                fstat64
                0x00000000004036d0                memcpy
                0x00000000004036e0                getnameinfo
                0x00000000004036f0                getsockname
                0x0000000000403700                srand
                0x0000000000403710                __deregister_frame_info@@GLIBC_2.0
                0x0000000000403720                stat64
                0x0000000000403730                accept
                0x0000000000403740                fork
                0x0000000000403750                rand
                0x0000000000403760                recv
                0x0000000000403770                pthread_mutex_unlock
                0x0000000000403780                tolower
                0x0000000000403790                mkdtemp
                0x00000000004037a0                qsort
                0x00000000004037b0                open64
                0x00000000004037c0                writev
                0x00000000004037d0                fstat
                0x00000000004037e0                pthread_mutex_destroy
                0x00000000004037f0                readv
                0x0000000000403800                ftruncate64
                0x0000000000403810                getrlimit64
                0x0000000000403820                closedir
                0x0000000000403830                fileno
                0x0000000000403840                putchar
                0x0000000000403850                strsep
                0x0000000000403860                memset
                0x0000000000403870                sigaction
                0x0000000000403880                listen
                0x0000000000403890                getenv
                0x00000000004038a0                execvp
                0x00000000004038b0                ERR_error_string_n
                0x00000000004038c0                strtok_r
                0x00000000004038d0                __xpg_basename
                0x00000000004038e0                DH_new
                0x00000000004038f0                freeifaddrs
                0x0000000000403900                BN_free
                0x0000000000403910                __fputc_unlocked
                0x0000000000403920                perror
                0x0000000000403930                epoll_ctl
                0x0000000000403940                epoll_create
                0x0000000000403950                strncasecmp
                0x0000000000403960                strcpy
                0x0000000000403970                random
                0x0000000000403980                read
                0x0000000000403990                shutdown
                0x00000000004039a0                BIO_new_mem_buf
                0x00000000004039b0                DH_free
                0x00000000004039c0                setsockopt
                0x00000000004039d0                sendto
                0x00000000004039e0                difftime
                0x00000000004039f0                mkstemp64
                0x0000000000403a00                geteuid
                0x0000000000403a10                endpwent
                0x0000000000403a20                if_nametoindex
                0x0000000000403a30                iconv_close
                0x0000000000403a40                posix_fallocate64
                0x0000000000403a50                atoi
                0x0000000000403a60                SHA1_Update
                0x0000000000403a70                BIO_new
                0x0000000000403a80                BIO_ctrl
                0x0000000000403a90                lseek64
                0x0000000000403aa0                strftime
                0x0000000000403ab0                gmtime
                0x0000000000403ac0                opendir
                0x0000000000403ad0                iconv_open
                0x0000000000403ae0                RAND_pseudo_bytes
                0x0000000000403af0                realpath
                0x0000000000403b00                fwrite
                0x0000000000403b10                RC4_set_key
                0x0000000000403b20                strspn
                0x0000000000403b30                puts
                0x0000000000403b40                vsnprintf
                0x0000000000403b50                strlcpy
                0x0000000000403b60                statvfs64
                0x0000000000403b70                DH_compute_key
                0x0000000000403b80                DH_generate_key
                0x0000000000403b90                mkdir
                0x0000000000403ba0                BN_bn2bin
                0x0000000000403bb0                snprintf
                0x0000000000403bc0                mmap64
                0x0000000000403bd0                fcntl
                0x0000000000403be0                getpid
                0x0000000000403bf0                socketpair
                0x0000000000403c00                bsearch
                0x0000000000403c10                memchr
                0x0000000000403c20                write
                0x0000000000403c30                strcasecmp
                0x0000000000403c40                vfprintf
                0x0000000000403c50                SHA1_Init
                0x0000000000403c60                socket
                0x0000000000403c70                pipe
                0x0000000000403c80                pthread_create
                0x0000000000403c90                gettimeofday
                0x0000000000403ca0                pread64
                0x0000000000403cb0                __xpg_strerror_r
                0x0000000000403cc0                time
                0x0000000000403cd0                fseek
                0x0000000000403ce0                sysctl
                0x0000000000403cf0                remove
                0x0000000000403d00                strncpy
                0x0000000000403d10                memcmp
                0x0000000000403d20                getifaddrs
                0x0000000000403d30                fclose
                0x0000000000403d40                strdup
                0x0000000000403d50                ctime
                0x0000000000403d60                getprotobynumber
                0x0000000000403d70                inet_ntop
                0x0000000000403d80                ioctl
                0x0000000000403d90                getaddrinfo
                0x0000000000403da0                pthread_mutex_init
                0x0000000000403db0                gai_strerror
                0x0000000000403dc0                recvfrom
                0x0000000000403dd0                pthread_mutexattr_init
                0x0000000000403de0                ERR_get_error
                0x0000000000403df0                getpagesize
                0x0000000000403e00                BIO_free_all
                0x0000000000403e10                lseek
                0x0000000000403e20                fsync
                0x0000000000403e30                posix_fadvise64
                0x0000000000403e40                strtoul
                0x0000000000403e50                open
                0x0000000000403e60                __cxa_atexit
                0x0000000000403e70                getpwuid
                0x0000000000403e80                sprintf
                0x0000000000403e90                posix_memalign
                0x0000000000403ea0                signal
                0x0000000000403eb0                sendfile
                0x0000000000403ec0                getuid
                0x0000000000403ed0                iconv
                0x0000000000403ee0                connect
                0x0000000000403ef0                select
                0x0000000000403f00                poll
                0x0000000000403f10                sscanf
                0x0000000000403f20                bind
                0x0000000000403f30                strlen
                0x0000000000403f40                strtod
                0x0000000000403f50                strtol
                0x0000000000403f60                eventfd
                0x0000000000403f70                gethostname
                0x0000000000403f80                readdir64
                0x0000000000403f90                setrlimit64
                0x0000000000403fa0                BIO_write
                0x0000000000403fb0                nanosleep
                0x0000000000403fc0                rename
                0x0000000000403fd0                inet_pton
                0x0000000000403fe0                getsockopt
                0x0000000000403ff0                localtime_r
                0x0000000000404000                memmem
                0x0000000000404010                BIO_s_mem
                0x0000000000404020                getpeername
                0x0000000000404030                gmtime_r
                0x0000000000404040                putenv
                0x0000000000404050                SHA1_Final
                0x0000000000404060                __errno_location
                0x0000000000404070                getgid
                0x0000000000404080                malloc
                0x0000000000404090                send
                0x00000000004040a0                strcmp

.iplt
 *(.iplt)

.text           0x00000000004040c0    0xd6c50
                0x00000000004040c0                _ftext = .
 *(.text.unlikely .text.*_unlikely)
 *(.text.exit .text.exit.*)
 *(.text.startup .text.startup.*)
 *(.text.hot .text.hot.*)
 .text          0x00000000004040c0       0x80 linker stubs
                0x00000000004040c0                .pic.inflate
                0x00000000004040d0                .pic.zError
                0x00000000004040e0                .pic.deflateReset
                0x00000000004040f0                .pic.deflate
                0x0000000000404100                .pic.deflateInit2_
                0x0000000000404110                .pic.inflateEnd
                0x0000000000404120                .pic.deflateEnd
                0x0000000000404130                .pic.inflateInit2_
 .text.hot      0x0000000000404140       0xe0 ../libtransmission/libtransmission.a(utils.o)
                0x0000000000404140                tr_lowerBound
 *(.text .stub .text.* .gnu.linkonce.t.*)
 .text          0x0000000000404220       0x60 /rsdk-4.4.7-5281-EB-2.6.30-0.9.33-m32utb-140606/bin/../lib/gcc/mips-linux-uclibc/4.4.7/../../../../mips-linux-uclibc/lib/crt1.o
                0x0000000000404220                __start
 .text          0x0000000000404280        0x0 /rsdk-4.4.7-5281-EB-2.6.30-0.9.33-m32utb-140606/bin/../lib/gcc/mips-linux-uclibc/4.4.7/../../../../mips-linux-uclibc/lib/crti.o
 .text          0x0000000000404280      0x110 /rsdk-4.4.7-5281-EB-2.6.30-0.9.33-m32utb-140606/bin/../lib/gcc/mips-linux-uclibc/4.4.7/5281/crtbegin.o
 .text          0x0000000000404390      0xf40 cli.o
                0x0000000000404544                main
 .text          0x00000000004052d0     0x3470 ../libtransmission/libtransmission.a(bencode.o)
                0x0000000000405320                tr_bencListSize
                0x000000000040534c                tr_bencListChild
                0x0000000000405384                tr_bencGetStr
                0x00000000004053d4                tr_bencGetRaw
                0x000000000040543c                tr_bencDictChild
                0x000000000040590c                tr_bencInitInt
                0x0000000000405954                tr_bencInitReal
                0x000000000040599c                tr_bencInitBool
                0x0000000000406104                tr_bencDictReserve
                0x0000000000406110                tr_bencInitDict
                0x000000000040614c                tr_bencListReserve
                0x0000000000406154                tr_bencListAdd
                0x00000000004061ec                tr_bencListAddDict
                0x0000000000406224                tr_bencListAddBool
                0x0000000000406258                tr_bencListAddReal
                0x00000000004062a0                tr_bencListAddInt
                0x00000000004062d8                tr_bencInitList
                0x0000000000406314                tr_bencListAddList
                0x0000000000406960                tr_bencToBuf
                0x0000000000406a3c                tr_bencToFile
                0x0000000000406d38                tr_bencToStr
                0x0000000000406d84                tr_bencFree
                0x0000000000406de0                tr_bencGetBool
                0x0000000000406fe4                tr_bencDictRemove
                0x0000000000407124                tr_bencDictFind
                0x0000000000407170                tr_bencDictFindRaw
                0x00000000004071f0                tr_bencDictFindDict
                0x0000000000407224                tr_bencDictFindList
                0x0000000000407258                tr_bencDictFindStr
                0x00000000004072c8                tr_bencDictFindBool
                0x00000000004072f0                tr_bencInitRaw
                0x00000000004073a8                tr_bencListAddRaw
                0x00000000004073e0                tr_bencInitStr
                0x000000000040743c                tr_bencDictAdd
                0x00000000004074d4                tr_bencDictAddDict
                0x0000000000407510                tr_bencDictAddList
                0x00000000004075bc                tr_bencDictAddReal
                0x0000000000407608                tr_bencDictAddBool
                0x0000000000407644                tr_bencDictAddInt
                0x0000000000407690                tr_bencDictAddStr
                0x000000000040775c                tr_bencListAddStr
                0x0000000000407790                tr_bencDictAddRaw
                0x000000000040786c                tr_bencGetReal
                0x0000000000407a2c                tr_bencDictFindReal
                0x0000000000407a54                tr_bencGetInt
                0x0000000000407b10                tr_bencMergeDicts
                0x0000000000408080                tr_bencDictFindInt
                0x00000000004080a8                tr_bencListRemove
                0x0000000000408130                tr_bencParseStr
                0x0000000000408218                tr_bencParseInt
                0x0000000000408300                tr_bencParse
                0x0000000000408624                tr_bencLoad
                0x0000000000408668                tr_bencLoadFile
 .text          0x0000000000408740      0xf80 ../libtransmission/libtransmission.a(ConvertUTF.o)
                0x0000000000408740                ConvertUTF32toUTF16
                0x0000000000408830                ConvertUTF16toUTF32
                0x0000000000408920                ConvertUTF16toUTF8
                0x0000000000408ccc                isLegalUTF8Sequence
                0x0000000000408d6c                ConvertUTF8toUTF16
                0x00000000004090bc                ConvertUTF32toUTF8
                0x00000000004092a0                ConvertUTF8toUTF32
                0x00000000004095a0                tr_utf8_validate
 .text          0x00000000004096c0     0x1000 ../libtransmission/libtransmission.a(fdlimit.o)
                0x00000000004096c0                tr_fdSocketClose
                0x0000000000409834                tr_fdSocketAccept
                0x0000000000409900                tr_fdFileGetCached
                0x00000000004099dc                tr_fdSocketCreate
                0x0000000000409cec                tr_fdFileGetCachedMTime
                0x0000000000409dc0                tr_close_file
                0x0000000000409e24                tr_fdTorrentClose
                0x0000000000409ed8                tr_fdClose
                0x0000000000409f7c                tr_set_file_for_single_pass
                0x0000000000409fdc                tr_fdFileCheckout
                0x000000000040a52c                tr_open_file_for_scanning
                0x000000000040a55c                tr_open_file_for_writing
                0x000000000040a58c                tr_prefetch
                0x000000000040a5b8                tr_pwrite
                0x000000000040a5c0                tr_pread
                0x000000000040a5c8                tr_fsync
                0x000000000040a5d0                tr_fdFileClose
 .text          0x000000000040a6c0      0x470 ../libtransmission/libtransmission.a(json.o)
                0x000000000040a6c0                tr_jsonParse
 .text          0x000000000040ab30     0x1000 ../libtransmission/libtransmission.a(JSON_parser.o)
                0x000000000040ab30                JSON_parser_done
                0x000000000040ab78                JSON_parser_is_legal_white_space_string
                0x000000000040abf4                init_JSON_config
                0x000000000040ae70                JSON_parser_char
                0x000000000040b998                new_JSON_parser
                0x000000000040bac4                delete_JSON_parser
 .text          0x000000000040bb30      0x410 ../libtransmission/libtransmission.a(list.o)
                0x000000000040bb30                tr_list_free
                0x000000000040bc20                tr_list_pop_front
                0x000000000040bc6c                tr_list_remove_data
                0x000000000040bca4                tr_list_find
                0x000000000040bd0c                tr_list_remove
                0x000000000040bd40                tr_list_size
                0x000000000040bdb4                tr_list_append
                0x000000000040be14                tr_list_prepend
                0x000000000040be5c                tr_list_insert_sorted
 .text          0x000000000040bf40      0xe20 ../libtransmission/libtransmission.a(net.o)
                0x000000000040bf40                tr_netInit
                0x000000000040bf5c                tr_address_from_sockaddr_storage
                0x000000000040bfcc                tr_address_is_valid_for_peers
                0x000000000040c0fc                tr_address_compare
                0x000000000040c1d4                tr_address_from_string
                0x000000000040c28c                tr_netCloseSocket
                0x000000000040c294                tr_netClose
                0x000000000040c29c                tr_netAccept
                0x000000000040c2f8                tr_netSetTOS
                0x000000000040c328                tr_netOpenPeerUTPSocket
                0x000000000040c37c                tr_netSetCongestionControl
                0x000000000040c3c4                tr_address_to_string_with_buf
                0x000000000040c3fc                tr_address_to_string
                0x000000000040c6d4                tr_net_hasIPv6
                0x000000000040c794                tr_netBindTCP
                0x000000000040c7b8                tr_netOpenPeerSocket
                0x000000000040caf0                tr_net_strerror
                0x000000000040cb34                tr_globalIPv6
 .text          0x000000000040cd60     0x2970 ../libtransmission/libtransmission.a(peer-io.o)
                0x000000000040cd80                tr_peerIoGetAddress
                0x000000000040cd98                tr_peerIoSetIOFuncs
                0x000000000040cdb0                tr_peerIoSetEncryption
                0x000000000040d018                tr_peerIoReadBytes
                0x000000000040d0b8                tr_peerIoDrain
                0x000000000040d138                tr_peerIoReadUint32
                0x000000000040d16c                tr_peerIoReadUint16
                0x000000000040d1a0                tr_peerIoReadBytesToBuf
                0x000000000040d2d4                evbuffer_add_uint64
                0x000000000040d318                evbuffer_add_uint32
                0x000000000040d33c                evbuffer_add_uint16
                0x000000000040d360                evbuffer_add_uint8
                0x000000000040d384                tr_peerIoWriteBytes
                0x000000000040d4ac                tr_peerIoWriteBuf
                0x000000000040d628                tr_peerIoGetWriteBufferSpace
                0x000000000040d694                tr_peerIoSetPeersId
                0x000000000040d700                tr_peerIoHasTorrentHash
                0x000000000040d70c                tr_peerIoGetTorrentHash
                0x000000000040d718                tr_peerIoSetTorrentHash
                0x000000000040d90c                tr_peerIoAddrStr
                0x000000000040d95c                tr_peerIoGetAddrStr
                0x000000000040df08                tr_peerIoReconnect
                0x000000000040dffc                tr_peerIoSetEnabled
                0x000000000040e028                tr_peerIoClear
                0x000000000040e298                tr_peerIoRefImpl
                0x000000000040e7c8                tr_peerIoUnrefImpl
                0x000000000040ed74                tr_peerIoFlush
                0x000000000040ee1c                tr_peerIoFlushOutgoingProtocolMsgs
                0x000000000040f580                tr_peerIoNewOutgoing
                0x000000000040f690                tr_peerIoNewIncoming
 .text          0x000000000040f6d0      0xbc0 ../libtransmission/libtransmission.a(platform.o)
                0x000000000040f6d0                tr_sessionGetConfigDir
                0x000000000040f6dc                tr_getTorrentDir
                0x000000000040f6e8                tr_getResumeDir
                0x000000000040f6f4                tr_getFreeSpace
                0x000000000040f824                tr_getDefaultConfigDir
                0x000000000040f950                tr_getWebClientDir
                0x000000000040fc28                tr_getDefaultDownloadDir
                0x000000000040ff6c                tr_setConfigDir
                0x00000000004100c4                tr_lockUnlock
                0x00000000004100e0                tr_lockHave
                0x0000000000410128                tr_amInThread
                0x0000000000410158                tr_lockLock
                0x0000000000410198                tr_lockFree
                0x00000000004101c4                tr_lockNew
                0x000000000041021c                tr_threadNew
 .text          0x0000000000410290      0x470 ../libtransmission/libtransmission.a(ptrarray.o)
                0x0000000000410290                tr_ptrArrayForeach
                0x00000000004102fc                tr_ptrArrayPeek
                0x0000000000410310                tr_ptrArrayPop
                0x000000000041033c                tr_ptrArrayLowerBound
                0x0000000000410430                tr_ptrArrayFindSorted
                0x0000000000410488                tr_ptrArrayErase
                0x0000000000410504                tr_ptrArrayRemoveSorted
                0x0000000000410570                tr_ptrArrayInsert
                0x0000000000410674                tr_ptrArrayInsertSorted
                0x00000000004106b4                tr_ptrArrayDestruct
 .text          0x0000000000410700     0x4960 ../libtransmission/libtransmission.a(session.o)
                0x0000000000410700                tr_sessionGetEncryption
                0x000000000041070c                tr_sessionSetEncryption
                0x0000000000410714                tr_sessionGetDownloadDir
                0x0000000000410720                tr_sessionSetIncompleteFileNamingEnabled
                0x0000000000410728                tr_sessionIsIncompleteFileNamingEnabled
                0x0000000000410734                tr_sessionGetIncompleteDir
                0x0000000000410740                tr_sessionSetIncompleteDirEnabled
                0x0000000000410748                tr_sessionIsIncompleteDirEnabled
                0x0000000000410754                tr_sessionGetPeerPort
                0x0000000000410780                tr_sessionSetPeerPortRandomOnStart
                0x0000000000410788                tr_sessionGetPeerPortRandomOnStart
                0x0000000000410794                tr_sessionSetRatioLimited
                0x000000000041079c                tr_sessionSetRatioLimit
                0x00000000004107cc                tr_sessionIsRatioLimited
                0x00000000004107d8                tr_sessionGetRatioLimit
                0x0000000000410800                tr_sessionSetIdleLimited
                0x0000000000410808                tr_sessionSetIdleLimit
                0x0000000000410810                tr_sessionIsIdleLimited
                0x000000000041081c                tr_sessionGetIdleLimit
                0x0000000000410828                tr_sessionGetActiveSpeedLimit_Bps
                0x0000000000410898                tr_sessionGetActiveSpeedLimit_KBps
                0x0000000000410a6c                tr_sessionSetSpeedLimit_Bps
                0x0000000000410a84                tr_sessionSetSpeedLimit_KBps
                0x0000000000410aac                tr_sessionGetSpeedLimit_Bps
                0x0000000000410ac4                tr_sessionGetSpeedLimit_KBps
                0x0000000000410b34                tr_sessionLimitSpeed
                0x0000000000410b44                tr_sessionIsSpeedLimited
                0x0000000000410b54                tr_sessionSetAltSpeed_Bps
                0x0000000000410b6c                tr_sessionSetAltSpeed_KBps
                0x0000000000410b94                tr_sessionGetAltSpeed_Bps
                0x0000000000410bac                tr_sessionGetAltSpeed_KBps
                0x0000000000410c1c                tr_sessionUsesAltSpeedTime
                0x0000000000410c28                tr_sessionGetAltSpeedBegin
                0x0000000000410c34                tr_sessionGetAltSpeedEnd
                0x0000000000410c40                tr_sessionGetAltSpeedDay
                0x0000000000410c4c                tr_sessionUsesAltSpeed
                0x0000000000410c58                tr_sessionSetAltSpeedFunc
                0x0000000000410c64                tr_sessionClearAltSpeedFunc
                0x0000000000410c70                tr_sessionSetPeerLimit
                0x0000000000410c78                tr_sessionGetPeerLimit
                0x0000000000410c84                tr_sessionSetPeerLimitPerTorrent
                0x0000000000410c8c                tr_sessionGetPeerLimitPerTorrent
                0x0000000000410c98                tr_sessionSetPaused
                0x0000000000410ca0                tr_sessionGetPaused
                0x0000000000410cac                tr_sessionSetDeleteSource
                0x0000000000410cb4                tr_sessionGetDeleteSource
                0x0000000000410cc0                tr_sessionCountTorrents
                0x0000000000410d7c                tr_sessionSetPexEnabled
                0x0000000000410d84                tr_sessionIsPexEnabled
                0x0000000000410d90                tr_sessionAllowsDHT
                0x0000000000410d9c                tr_sessionIsDHTEnabled
                0x0000000000410da8                tr_sessionIsUTPEnabled
                0x0000000000410db4                tr_sessionIsLPDEnabled
                0x0000000000410dc0                tr_sessionAllowsLPD
                0x0000000000410dcc                tr_blocklistIsEnabled
                0x0000000000410dd8                tr_blocklistExists
                0x0000000000410de4                tr_blocklistGetURL
                0x0000000000410df0                tr_sessionSetRPCCallback
                0x0000000000410dfc                tr_sessionIsTorrentDoneScriptEnabled
                0x0000000000410e08                tr_sessionSetTorrentDoneScriptEnabled
                0x0000000000410e10                tr_sessionGetTorrentDoneScript
                0x0000000000410e1c                tr_sessionSetQueueSize
                0x0000000000410e30                tr_sessionGetQueueSize
                0x0000000000410e48                tr_sessionSetQueueEnabled
                0x0000000000410e54                tr_sessionGetQueueEnabled
                0x0000000000410e64                tr_sessionSetQueueStalledMinutes
                0x0000000000410e6c                tr_sessionSetQueueStalledEnabled
                0x0000000000410e74                tr_sessionGetQueueStalledEnabled
                0x0000000000410e80                tr_sessionGetQueueStalledMinutes
                0x0000000000410e8c                tr_sessionCountQueueFreeSlots
                0x0000000000410f9c                tr_sessionGetNextQueuedTorrent
                0x000000000041103c                tr_sessionSetTorrentDoneScript
                0x0000000000411080                tr_blocklistSetURL
                0x00000000004110c4                tr_sessionSetIncompleteDir
                0x0000000000411108                tr_sessionSetDownloadDir
                0x000000000041114c                tr_sessionGetRPCBindAddress
                0x0000000000411158                tr_sessionIsRPCPasswordEnabled
                0x0000000000411164                tr_sessionSetRPCPasswordEnabled
                0x0000000000411174                tr_sessionGetRPCUsername
                0x0000000000411180                tr_sessionSetRPCUsername
                0x000000000041118c                tr_sessionGetRPCPassword
                0x0000000000411198                tr_sessionSetRPCPassword
                0x00000000004111a4                tr_sessionGetRPCWhitelistEnabled
                0x00000000004111b0                tr_sessionSetRPCWhitelistEnabled
                0x00000000004111c0                tr_sessionGetRPCWhitelist
                0x00000000004111cc                tr_sessionSetRPCWhitelist
                0x00000000004111d8                tr_sessionGetRPCUrl
                0x00000000004111e4                tr_sessionSetRPCUrl
                0x00000000004111f0                tr_sessionGetRPCPort
                0x00000000004111fc                tr_sessionSetRPCPort
                0x000000000041120c                tr_sessionIsRPCEnabled
                0x0000000000411218                tr_sessionSetRPCEnabled
                0x0000000000411228                tr_sessionSetTorrentFile
                0x0000000000411400                tr_sessionFindTorrentFile
                0x000000000041146c                tr_sessionIsAddressBlocked
                0x0000000000411554                tr_blocklistSetEnabled
                0x00000000004115a0                tr_blocklistGetRuleCount
                0x00000000004118dc                tr_sessionReloadBlocklists
                0x0000000000411918                tr_sessionIsPortForwardingEnabled
                0x0000000000411924                tr_sessionSetPortForwardingEnabled
                0x0000000000411974                tr_sessionSetLPDEnabled
                0x000000000041199c                tr_sessionSetUTPEnabled
                0x00000000004119c4                tr_sessionSetDHTEnabled
                0x00000000004119ec                tr_sessionUseAltSpeed
                0x0000000000411a24                tr_sessionSetPeerPort
                0x0000000000411aa0                tr_sessionGetCacheLimit_MB
                0x0000000000411ae4                tr_sessionSetCacheLimit_MB
                0x0000000000411bb8                tr_sessionLoadTorrents
                0x0000000000411c14                tr_sessionSet
                0x0000000000411e5c                tr_sessionClose
                0x00000000004124ac                tr_sessionGetRawSpeed_Bps
                0x00000000004124f4                tr_sessionGetRawSpeed_KBps
                0x0000000000412558                tr_sessionGetPieceSpeed_Bps
                0x000000000041289c                tr_sessionSetAltSpeedDay
                0x00000000004128c0                tr_sessionSetAltSpeedEnd
                0x00000000004128e4                tr_sessionSetAltSpeedBegin
                0x0000000000412908                tr_sessionUseAltSpeedTime
                0x0000000000412930                tr_sessionGetPortForwarding
                0x000000000041293c                tr_sessionSetPeerPortRandom
                0x0000000000412b44                tr_sessionIsLocked
                0x0000000000412b8c                tr_sessionUnlock
                0x0000000000412b98                tr_sessionLock
                0x0000000000412ba4                tr_blocklistSetContent
                0x0000000000412cac                tr_sessionGetDownloadDirFreeSpace
                0x0000000000413aa4                tr_sessionGetSettings
                0x000000000041429c                tr_sessionSaveSettings
                0x0000000000414394                tr_sessionGetDefaultSettings
                0x0000000000414b68                tr_sessionLoadSettings
                0x0000000000414d5c                tr_sessionGetPublicAddress
                0x0000000000414e1c                tr_peerIdInit
                0x0000000000414f0c                tr_sessionInit
 .text          0x0000000000415060      0x700 ../libtransmission/libtransmission.a(stats.o)
                0x0000000000415060                tr_sessionClearStats
                0x0000000000415100                tr_statsAddUploaded
                0x000000000041513c                tr_statsAddDownloaded
                0x0000000000415178                tr_statsFileCreated
                0x00000000004151b0                tr_sessionGetStats
                0x0000000000415254                tr_sessionGetCumulativeStats
                0x00000000004153a4                tr_statsSaveDirty
                0x0000000000415518                tr_statsClose
                0x000000000041554c                tr_statsInit
 .text          0x0000000000415760     0x61a0 ../libtransmission/libtransmission.a(torrent.o)
                0x0000000000415760                tr_torrentName
                0x000000000041576c                tr_torrentId
                0x0000000000415778                tr_torrentFindFromId
                0x00000000004157b0                tr_torrentSetSpeedLimit_Bps
                0x00000000004157dc                tr_torrentSetSpeedLimit_KBps
                0x0000000000415818                tr_torrentGetSpeedLimit_Bps
                0x0000000000415854                tr_torrentGetSpeedLimit_KBps
                0x00000000004158dc                tr_torrentUseSpeedLimit
                0x000000000041590c                tr_torrentUsesSpeedLimit
                0x0000000000415928                tr_torrentUseSessionLimits
                0x0000000000415964                tr_torrentUsesSessionLimits
                0x0000000000415970                tr_torrentSetRatioMode
                0x0000000000415990                tr_torrentGetRatioMode
                0x000000000041599c                tr_torrentSetRatioLimit
                0x0000000000415a50                tr_torrentGetRatioLimit
                0x0000000000415a78                tr_torrentSetIdleMode
                0x0000000000415a98                tr_torrentGetIdleMode
                0x0000000000415aa4                tr_torrentSetIdleLimit
                0x0000000000415ac4                tr_torrentGetIdleLimit
                0x0000000000415c5c                tr_getBlockSize
                0x0000000000415c9c                tr_torrentGetDownloadDir
                0x0000000000415ca8                tr_torrentGetCurrentDir
                0x0000000000415cb4                tr_torrentInfo
                0x0000000000415cfc                tr_torrentSetVerifyState
                0x0000000000415d10                tr_torrentSetCompletenessCallback
                0x0000000000415d1c                tr_torrentClearCompletenessCallback
                0x0000000000415d28                tr_torrentSetRatioLimitHitCallback
                0x0000000000415d34                tr_torrentClearRatioLimitHitCallback
                0x0000000000415d40                tr_torrentSetIdleLimitHitCallback
                0x0000000000415d4c                tr_torrentClearIdleLimitHitCallback
                0x0000000000415d58                tr_torrentSetMetadataCallback
                0x0000000000415d64                tr_torrentInitFilePriority
                0x0000000000415e10                tr_torrentGetPriority
                0x0000000000415e1c                tr_torrentSetPriority
                0x0000000000415e44                tr_torrentSetPeerLimit
                0x0000000000415e68                tr_torrentGetPeerLimit
                0x0000000000415e74                tr_torrentGetBlockLocation
                0x0000000000415f50                _tr_block
                0x0000000000415f88                tr_pieceOffset
                0x0000000000415fb4                tr_torGetFileBlockRange
                0x0000000000416070                tr_torGetPieceBlockRange
                0x000000000041612c                tr_torrentSetPieceChecked
                0x0000000000416150                tr_torrentSetChecked
                0x00000000004161a8                tr_torrentSetAddedDate
                0x00000000004161c0                tr_torrentSetActivityDate
                0x00000000004161d8                tr_torrentSetDoneDate
                0x0000000000416208                tr_torrentGetQueuePosition
                0x0000000000416214                tr_torrentSetQueuePosition
                0x00000000004162f8                tr_torrentSetQueueStartCallback
                0x0000000000416304                tr_torrentsQueueMoveBottom
                0x00000000004163a0                tr_torrentsQueueMoveDown
                0x0000000000416428                tr_torrentsQueueMoveUp
                0x00000000004164b8                tr_torrentsQueueMoveTop
                0x000000000041653c                tr_torrentPeersFree
                0x0000000000416544                tr_torrentFilesFree
                0x000000000041654c                tr_torrentBuildPartial
                0x000000000041656c                tr_torrentFindFile2
                0x0000000000416760                tr_torrentFindFile
                0x0000000000416888                tr_torrentSetDownloadDir
                0x000000000041690c                tr_torrentFileCompleted
                0x0000000000416a9c                tr_torrentReqIsValid
                0x0000000000416bdc                tr_torrentSetLocation
                0x0000000000416c7c                tr_torrentVerify
                0x0000000000416ce4                tr_torrentManualUpdate
                0x00000000004177b4                tr_torrentGetBytesLeftToAllocate
                0x000000000041791c                tr_torrentGetCurrentSizeOnDisk
                0x0000000000417a0c                tr_torrentSetAnnounceList
                0x0000000000417c9c                tr_torrentInitFileDLs
                0x0000000000417ed0                tr_torrentFree
                0x0000000000417f64                tr_torrentStop
                0x0000000000417ff4                tr_torrentGetFileMTime
                0x0000000000418064                tr_torrentPieceNeedsCheck
                0x000000000041820c                tr_torrentSetFileDLs
                0x000000000041826c                tr_torrentSetFilePriorities
                0x0000000000418320                tr_torrentGetFilePriorities
                0x00000000004183a0                tr_torrentRemove
                0x0000000000418418                tr_torrentSave
                0x000000000041881c                tr_torrentSetHasPiece
                0x0000000000418840                tr_torrentCheckPiece
                0x00000000004188f0                tr_torrentAmountFinished
                0x0000000000418934                tr_torrentAvailability
                0x00000000004189c4                tr_torrentTrackersFree
                0x00000000004189cc                tr_torrentTrackers
                0x0000000000418a4c                tr_torrentPeers
                0x0000000000418acc                tr_torrentWebSpeeds_KBps
                0x0000000000418b48                tr_torrentFiles
                0x0000000000419010                tr_torrentIsStalled
                0x0000000000419078                tr_torrentCanManualUpdate
                0x00000000004190e8                tr_torrentChangeMyPort
                0x00000000004196b8                tr_torrentGotNewInfoDict
                0x0000000000419704                tr_torrentSetLocalError
                0x000000000041995c                tr_torrentGetSeedIdle
                0x0000000000419a10                tr_torrentGetSeedRatio
                0x0000000000419dbc                tr_torrentStartNow
                0x0000000000419e08                tr_torrentStart
                0x0000000000419e54                tr_torrentCheckSeedLimit
                0x0000000000419ff4                tr_torrentRecheckCompleteness
                0x000000000041a598                tr_torrentGetActivity
                0x000000000041a5c0                tr_torrentStat
                0x000000000041af04                tr_torrentStatCached
                0x000000000041af5c                tr_torrentIsPieceTransferAllowed
                0x000000000041b01c                tr_torrentFindFromObfuscatedHash
                0x000000000041b090                tr_torrentFindFromHash
                0x000000000041b258                tr_torrentNew
                0x000000000041b808                tr_torrentParse
                0x000000000041b818                tr_torrentFindFromMagnetLink
                0x000000000041b884                tr_torrentFindFromHashString
 .text          0x000000000041b900      0x930 ../libtransmission/libtransmission.a(torrent-ctor.o)
                0x000000000041b900                tr_ctorGetSourceFile
                0x000000000041b90c                tr_ctorSetDeleteSource
                0x000000000041b91c                tr_ctorGetDeleteSource
                0x000000000041b950                tr_ctorSetSave
                0x000000000041b958                tr_ctorGetSave
                0x000000000041b974                tr_ctorSetPaused
                0x000000000041b994                tr_ctorSetPeerLimit
                0x000000000041b9b4                tr_ctorGetPeerLimit
                0x000000000041b9f8                tr_ctorGetPaused
                0x000000000041ba3c                tr_ctorGetDownloadDir
                0x000000000041ba80                tr_ctorGetIncompleteDir
                0x000000000041baa0                tr_ctorGetMetainfo
                0x000000000041bad0                tr_ctorGetSession
                0x000000000041badc                tr_ctorSetBandwidthPriority
                0x000000000041bb0c                tr_ctorGetBandwidthPriority
                0x000000000041bb64                tr_ctorFree
                0x000000000041bbec                tr_ctorSetIncompleteDir
                0x000000000041bc28                tr_ctorSetDownloadDir
                0x000000000041bc90                tr_ctorNew
                0x000000000041bd24                tr_ctorInitTorrentWanted
                0x000000000041bd98                tr_ctorSetFilesWanted
                0x000000000041be10                tr_ctorSetFilePriorities
                0x000000000041bea8                tr_ctorInitTorrentPriorities
                0x000000000041bf94                tr_ctorSetMetainfo
                0x000000000041bfe8                tr_ctorSetMetainfoFromFile
                0x000000000041c134                tr_ctorSetMetainfoFromHash
                0x000000000041c180                tr_ctorSetMetainfoFromMagnetLink
 .text          0x000000000041c230      0xb10 ../libtransmission/libtransmission.a(torrent-magnet.o)
                0x000000000041c230                tr_torrentInfoGetMagnetLink
                0x000000000041c338                tr_torrentGetMetadataPercent
                0x000000000041c40c                tr_torrentGetNextMetadataRequest
                0x000000000041c52c                tr_torrentSetMetadataPiece
                0x000000000041ca1c                tr_torrentSetMetadataSizeHint
                0x000000000041cb28                tr_torrentGetMetadataPiece
 .text          0x000000000041cd40     0x1bf0 ../libtransmission/libtransmission.a(tr-dht.o)
                0x000000000041cd40                tr_dhtEnabled
                0x000000000041cd64                tr_dhtPort
                0x000000000041cd90                tr_dhtPrintableStatus
                0x000000000041cdc0                dht_blacklisted
                0x000000000041cdc8                dht_random_bytes
                0x000000000041cde8                dht_hash
                0x000000000041ce78                tr_dhtCallback
                0x000000000041d274                tr_dhtStatus
                0x000000000041d344                tr_dhtAddNode
                0x000000000041d628                tr_dhtUninit
                0x000000000041d974                tr_dhtInit
                0x000000000041e7e4                tr_dhtUpkeep
 .text          0x000000000041e930      0xd10 ../libtransmission/libtransmission.a(tr-lpd.o)
                0x000000000041e930                tr_lpdEnabled
                0x000000000041e954                tr_lpdSendAnnounce
                0x000000000041eb00                tr_lpdUninit
                0x000000000041ec18                tr_lpdInit
 .text          0x000000000041f640      0xa10 ../libtransmission/libtransmission.a(tr-udp.o)
                0x000000000041f640                tr_udpUninit
                0x000000000041fb50                tr_udpSetSocketBuffers
                0x000000000041fba8                tr_udpInit
 .text          0x0000000000420050      0x2f0 ../libtransmission/libtransmission.a(tr-utp.o)
                0x0000000000420050                tr_utpClose
                0x00000000004200e8                tr_utpPacket
                0x00000000004202c8                tr_utpSendTo
 .text          0x0000000000420340      0x950 ../libtransmission/libtransmission.a(tr-getopt.o)
                0x00000000004208fc                tr_getopt_usage
                0x0000000000420a50                tr_getopt
 .text          0x0000000000420c90      0x520 ../libtransmission/libtransmission.a(trevent.o)
                0x0000000000420c90                tr_amInEventThread
                0x0000000000420ca0                tr_runInEventThread
                0x0000000000420d64                tr_eventClose
                0x0000000000420db4                tr_eventInit
 .text          0x00000000004211b0     0x31d0 ../libtransmission/libtransmission.a(utils.o)
                0x00000000004211b0                tr_setMessageLevel
                0x00000000004211bc                tr_setMessageQueuing
                0x00000000004211c8                tr_getMessageQueuing
                0x00000000004211d8                tr_getRatio
                0x00000000004212a8                tr_sha1_to_hex
                0x00000000004212f8                compareInt
                0x0000000000421308                tr_htonll
                0x0000000000421314                tr_ntohll
                0x0000000000421320                tr_formatter_get_units
                0x00000000004214b4                tr_realpath
                0x00000000004214bc                tr_is_same_file
                0x0000000000421554                tr_fileExists
                0x0000000000421598                tr_hex_to_sha1
                0x0000000000421670                tr_removeElementFromArray
                0x00000000004216a4                tr_strstrip
                0x00000000004217b8                tr_strcmp0
                0x00000000004217e4                tr_addressIsIP
                0x0000000000421804                tr_strlcpy
                0x000000000042180c                tr_snprintf
                0x00000000004219d4                tr_formatter_mem_B
                0x00000000004219e8                tr_formatter_size_B
                0x00000000004219fc                tr_formatter_speed_KBps
                0x0000000000421bf4                tr_truncd
                0x0000000000421ce4                tr_strpercent
                0x0000000000421df0                tr_strratio
                0x0000000000421eb4                tr_wait_msec
                0x0000000000421f1c                tr_time_msec
                0x0000000000421f84                tr_str_has_suffix
                0x0000000000422008                tr_strsep
                0x0000000000422010                tr_strerror
                0x0000000000422048                tr_memmem
                0x0000000000422050                tr_mkdtemp
                0x0000000000422058                tr_free
                0x0000000000422070                tr_freeMessageList
                0x00000000004220cc                tr_timerAdd
                0x00000000004220f0                tr_timerAddMsec
                0x0000000000422130                tr_strip_positional_args
                0x00000000004222a4                tr_malloc0
                0x00000000004222c4                tr_base64_decode
                0x00000000004223e4                tr_malloc
                0x00000000004223fc                tr_valloc
                0x00000000004224b8                tr_strndup
                0x0000000000422670                tr_base64_encode
                0x0000000000422778                tr_strdup
                0x00000000004228a4                tr_formatter_mem_init
                0x00000000004228ec                tr_formatter_speed_init
                0x0000000000422934                tr_formatter_size_init
                0x0000000000422974                tr_dirname
                0x00000000004229bc                tr_basename
                0x0000000000422a04                tr_urlParse
                0x0000000000422c6c                tr_urlIsValid
                0x0000000000422dc0                tr_urlIsValidTracker
                0x0000000000422eec                tr_strdup_printf
                0x0000000000422fac                evbuffer_free_to_str
                0x0000000000423014                tr_utf8clean
                0x000000000042323c                tr_buildPath
                0x0000000000423340                tr_memdup
                0x0000000000423378                tr_parseNumberRange
                0x0000000000423634                tr_getQueuedMessages
                0x00000000004236dc                tr_localtime_r
                0x00000000004236e4                tr_getLogTimeStr
                0x00000000004237a0                tr_getLog
                0x0000000000423860                tr_msg
                0x0000000000423aa4                tr_mkdirp
                0x0000000000423d30                tr_moveFile
                0x0000000000423f74                tr_loadFile
                0x0000000000424220                tr_deepLog
                0x0000000000424328                tr_deepLoggingIsActive
 .text          0x0000000000424380      0x9a0 ../libtransmission/libtransmission.a(verify.o)
                0x00000000004243e8                tr_verifyClose
                0x0000000000424438                tr_verifyRemove
                0x00000000004244f0                tr_verifyAdd
 .text          0x0000000000424d20     0x1290 ../libtransmission/libtransmission.a(web.o)
                0x0000000000424d20                tr_webGetResponseStr
                0x00000000004250dc                tr_http_escape_sha1
                0x00000000004251e4                tr_http_unescape
                0x0000000000425224                tr_http_escape
                0x000000000042534c                tr_webGetTaskInfo
                0x0000000000425358                tr_webClose
                0x00000000004253b4                tr_webInit
                0x0000000000425e7c                tr_webRunWithBuffer
                0x0000000000425f84                tr_webRun
 .text          0x0000000000425fb0     0x3700 ../libtransmission/libtransmission.a(announcer.o)
                0x0000000000425fb0                tr_announce_event_get_string
                0x0000000000425fe4                tr_announcerHasBacklog
                0x0000000000426118                tr_announcerCanManualAnnounce
                0x000000000042618c                tr_announcerNextManualAnnounce
                0x00000000004261e0                tr_announcerAddBytes
                0x00000000004263e8                tr_announcerStatsFree
                0x0000000000426ab0                tr_announcerAddTorrent
                0x0000000000426c58                tr_announcerStats
                0x00000000004271b4                tr_announcerClose
                0x000000000042725c                tr_announcerInit
                0x0000000000427b74                tr_announcerRemoveTorrent
                0x000000000042899c                tr_announcerResetTorrent
                0x0000000000428bb4                tr_announcerTorrentCompleted
                0x0000000000428c30                tr_announcerTorrentStopped
                0x0000000000428cac                tr_announcerManualAnnounce
                0x0000000000428d28                tr_announcerTorrentStarted
                0x0000000000428da4                tr_announcerChangeMyPort
 .text          0x00000000004296b0     0x10a0 ../libtransmission/libtransmission.a(announcer-http.o)
                0x0000000000429774                tr_tracker_http_scrape
                0x0000000000429df8                tr_tracker_http_announce
 .text          0x000000000042a750     0x19d0 ../libtransmission/libtransmission.a(announcer-udp.o)
                0x000000000042a750                tr_tracker_udp_is_idle
                0x000000000042ab64                tr_tracker_udp_close
                0x000000000042ad0c                tr_tracker_udp_upkeep
                0x000000000042b5d4                tr_tracker_udp_scrape
                0x000000000042b804                tr_tracker_udp_start_shutdown
                0x000000000042b9bc                tr_tracker_udp_announce
                0x000000000042bc0c                tau_handle_message
 .text          0x000000000042c120      0xcb0 ../libtransmission/libtransmission.a(bandwidth.o)
                0x000000000042c130                tr_bandwidthSetPeer
                0x000000000042c138                tr_bandwidthUsed
                0x000000000042c670                tr_bandwidthSetParent
                0x000000000042c6d8                tr_bandwidthConstruct
                0x000000000042c730                tr_bandwidthDestruct
                0x000000000042c8c4                tr_bandwidthClamp
                0x000000000042cafc                tr_bandwidthAllocate
                0x000000000042cd84                tr_bandwidthGetRawSpeed_Bps
                0x000000000042cda8                tr_bandwidthGetPieceSpeed_Bps
 .text          0x000000000042cdd0      0xbb0 ../libtransmission/libtransmission.a(bitfield.o)
                0x000000000042cdd0                tr_bitfieldCountRange
                0x000000000042cf6c                tr_bitfieldCountTrueBits
                0x000000000042cf78                tr_bitfieldConstruct
                0x000000000042d150                tr_bitfieldRemRange
                0x000000000042d2a4                tr_bitfieldRem
                0x000000000042d39c                tr_bitfieldAddRange
                0x000000000042d4f8                tr_bitfieldAdd
                0x000000000042d5f0                tr_bitfieldSetFromFlags
                0x000000000042d6a0                tr_bitfieldSetHasAll
                0x000000000042d6e8                tr_bitfieldSetHasNone
                0x000000000042d72c                tr_bitfieldSetRaw
                0x000000000042d83c                tr_bitfieldSetFromBitfield
                0x000000000042d8b0                tr_bitfieldGetRaw
 .text          0x000000000042d980      0xac0 ../libtransmission/libtransmission.a(blocklist.o)
                0x000000000042d9a8                _tr_blocklistGetFilename
                0x000000000042d9b4                _tr_blocklistIsEnabled
                0x000000000042d9c0                _tr_blocklistSetEnabled
                0x000000000042da48                _tr_blocklistFree
                0x000000000042da7c                _tr_blocklistExists
                0x000000000042dc5c                _tr_blocklistSetContent
                0x000000000042e2f0                _tr_blocklistGetRuleCount
                0x000000000042e338                _tr_blocklistHasAddress
                0x000000000042e3e0                _tr_blocklistNew
 .text          0x000000000042e440      0xca0 ../libtransmission/libtransmission.a(cache.o)
                0x000000000042e450                tr_cacheGetLimit
                0x000000000042e718                tr_cacheFlushTorrent
                0x000000000042e89c                tr_cacheFlushFile
                0x000000000042eb10                tr_cacheFlushDone
                0x000000000042ed0c                tr_cachePrefetchBlock
                0x000000000042ed88                tr_cacheReadBlock
                0x000000000042ee28                tr_cacheWriteBlock
                0x000000000042ef40                tr_cacheFree
                0x000000000042ef6c                tr_cacheNew
                0x000000000042f008                tr_cacheSetLimit
 .text          0x000000000042f0e0      0xf70 ../libtransmission/libtransmission.a(completion.o)
                0x000000000042f0e0                tr_cpPercentComplete
                0x000000000042f198                tr_cpConstruct
                0x000000000042f1f4                tr_cpFileIsComplete
                0x000000000042f280                tr_cpMissingBlocksInPiece
                0x000000000042f31c                tr_cpCreatePieceBitfield
                0x000000000042f450                tr_cpHaveValid
                0x000000000042f560                tr_cpGetAmountDone
                0x000000000042f6d0                tr_cpSizeWhenDone
                0x000000000042f984                tr_cpPercentDone
                0x000000000042f9f8                tr_cpLeftUntilDone
                0x000000000042fa38                tr_cpGetStatus
                0x000000000042fae0                tr_cpPieceRem
                0x000000000042fc14                tr_cpBlockInit
                0x000000000042fd4c                tr_cpBlockAdd
                0x000000000042fe6c                tr_cpPieceAdd
                0x000000000042fed4                tr_cpMissingBytesInPiece
 .text          0x0000000000430050      0xbe0 ../libtransmission/libtransmission.a(crypto.o)
                0x0000000000430050                tr_cryptoGetTorrentHash
                0x0000000000430058                tr_cryptoHasTorrentHash
                0x0000000000430064                tr_cryptoRandBuf
                0x00000000004300f4                tr_cryptoWeakRandInt
                0x0000000000430158                tr_cryptoRandInt
                0x00000000004301bc                tr_cryptoSetTorrentHash
                0x0000000000430228                tr_cryptoConstruct
                0x0000000000430278                tr_cryptoEncrypt
                0x0000000000430284                tr_cryptoDecrypt
                0x00000000004303a4                tr_cryptoEncryptInit
                0x0000000000430424                tr_cryptoDecryptInit
                0x00000000004307a8                tr_cryptoGetMyPublicKey
                0x00000000004307e0                tr_cryptoComputeSecret
                0x000000000043095c                tr_cryptoDestruct
                0x0000000000430978                tr_sha1
                0x0000000000430a10                tr_ssha1_matches
                0x0000000000430b48                tr_ssha1
 .text          0x0000000000430c30      0x8d0 ../libtransmission/libtransmission.a(inout.o)
                0x0000000000430ca8                tr_ioFindFileLocation
                0x00000000004312cc                tr_ioWrite
                0x0000000000431304                tr_ioPrefetch
                0x0000000000431334                tr_ioTestPiece
                0x00000000004314bc                tr_ioRead
 .text          0x0000000000431500      0x700 ../libtransmission/libtransmission.a(magnet.o)
                0x0000000000431500                tr_magnetCreateMetainfo
                0x0000000000431680                tr_magnetFree
                0x0000000000431754                tr_magnetParse
 .text          0x0000000000431c00     0x1530 ../libtransmission/libtransmission.a(metainfo.o)
                0x0000000000431d98                tr_metainfoFree
                0x0000000000431ee8                tr_metainfoGetBasename
                0x0000000000431fc8                tr_metainfoRemoveSaved
                0x0000000000432250                tr_metainfoParse
                0x0000000000432f80                tr_metainfoMigrate
 .text          0x0000000000433130     0x6c00 ../libtransmission/libtransmission.a(peer-mgr.o)
                0x0000000000433130                tr_peerAddress
                0x000000000043313c                tr_peerMgrOnBlocklistChanged
                0x00000000004333f0                tr_peerMgrClearInterest
                0x0000000000433458                tr_peerGetPieceSpeed_Bps
                0x00000000004334a8                tr_peerMgrPeerStats
                0x00000000004338e8                tr_peerMgrWebSpeeds_KBps
                0x0000000000433a20                tr_peerMgrTorrentStats
                0x0000000000433bc8                tr_peerMgrGetDesiredAvailable
                0x0000000000433d50                tr_peerConstruct
                0x000000000043400c                tr_peerMgrAddTorrent
                0x000000000043419c                tr_peerMgrDidPeerRequest
                0x0000000000434298                tr_peerMgrMarkAllAsSeeds
                0x00000000004342f8                tr_peerUpdateProgress
                0x0000000000434464                tr_peerMgrOnTorrentGotMetainfo
                0x00000000004345f8                tr_peerMgrNew
                0x0000000000434760                tr_pexCompare
                0x0000000000434c04                tr_peerMgrSetUtpFailed
                0x0000000000434c44                tr_peerMgrSetUtpSupported
                0x0000000000434c80                tr_peerMgrPeerIsSeed
                0x0000000000434d20                tr_peerMgrGetPeers
                0x000000000043561c                tr_peerMgrArrayToPex
                0x00000000004356e8                tr_peerMgrCompact6ToPex
                0x00000000004357e0                tr_peerMgrCompactToPex
                0x00000000004358ac                tr_peerMgrAddPex
                0x0000000000435988                tr_peerMgrAddIncoming
                0x0000000000435b38                tr_peerMgrFree
                0x00000000004361c4                tr_peerMgrRebuildRequests
                0x000000000043657c                tr_peerDestruct
                0x00000000004366a4                tr_peerMgrRemoveTorrent
                0x0000000000436738                tr_peerMgrStopTorrent
                0x0000000000437cd0                tr_peerMgrTorrentAvailability
                0x00000000004389c0                tr_peerMgrStartTorrent
                0x0000000000438a10                tr_peerMgrGetNextRequests
 .text          0x0000000000439d30     0x49e0 ../libtransmission/libtransmission.a(peer-msgs.o)
                0x0000000000439f18                tr_peerMsgsFree
                0x000000000043a250                tr_peerMsgsHave
                0x000000000043a2e8                tr_peerMsgsSetInterested
                0x000000000043a8a0                tr_peerMsgsNew
                0x000000000043ae24                tr_peerMsgsCancel
                0x000000000043aef8                tr_peerMsgsSetChoke
                0x000000000043bc48                tr_peerMsgsPulse
                0x000000000043bc60                tr_peerMsgsIsReadingBlock
 .text          0x000000000043e710      0x4d0 ../libtransmission/libtransmission.a(port-forwarding.o)
                0x000000000043e710                tr_sharedTraversalIsEnabled
                0x000000000043e71c                tr_sharedTraversalStatus
                0x000000000043e98c                tr_sharedPortChanged
                0x000000000043eb40                tr_sharedTraversalEnable
                0x000000000043eb5c                tr_sharedClose
                0x000000000043eb98                tr_sharedInit
 .text          0x000000000043ebe0     0x2020 ../libtransmission/libtransmission.a(resume.o)
                0x000000000043ec3c                tr_torrentRemoveResume
                0x000000000043efc8                tr_torrentLoadResume
                0x00000000004403f4                tr_torrentSaveResume
 .text          0x0000000000440c00     0x1e30 ../libtransmission/libtransmission.a(rpc-server.o)
                0x0000000000440c00                tr_rpcIsEnabled
                0x0000000000440c0c                tr_rpcGetPort
                0x0000000000440c18                tr_rpcGetUrl
                0x0000000000440c38                tr_rpcGetWhitelist
                0x0000000000440c58                tr_rpcSetWhitelistEnabled
                0x0000000000440c60                tr_rpcGetWhitelistEnabled
                0x0000000000440c6c                tr_rpcGetUsername
                0x0000000000440c8c                tr_rpcGetPassword
                0x0000000000440cac                tr_rpcIsPasswordEnabled
                0x0000000000440cb8                tr_rpcClose
                0x0000000000440cf0                tr_rpcSetPort
                0x0000000000440d2c                tr_rpcSetEnabled
                0x0000000000440d4c                tr_rpcGetBindAddress
                0x000000000044203c                tr_rpcSetPasswordEnabled
                0x000000000044208c                tr_rpcSetUsername
                0x00000000004420fc                tr_rpcSetUrl
                0x000000000044216c                tr_rpcSetPassword
                0x00000000004421fc                tr_rpcSetWhitelist
                0x00000000004423ac                tr_rpcInit
 .text          0x0000000000442a30      0x8c0 ../libtransmission/libtransmission.a(upnp.o)
                0x0000000000442c64                tr_upnpPulse
                0x0000000000443290                tr_upnpClose
                0x00000000004432c4                tr_upnpInit
 .text          0x00000000004432f0     0x1050 ../libtransmission/libtransmission.a(webseed.o)
                0x00000000004433c4                tr_webseedFree
                0x00000000004433f0                tr_webseedNew
                0x0000000000444290                tr_webseedGetSpeed_Bps
                0x00000000004442f4                tr_webseedIsActive
 .text          0x0000000000444340      0x210 ../libtransmission/libtransmission.a(wildmat.o)
                0x0000000000444504                tr_wildmat
 .text          0x0000000000444550     0x2880 ../libtransmission/libtransmission.a(clients.o)
                0x00000000004449c8                tr_clientForId
 .text          0x0000000000446dd0     0x23c0 ../libtransmission/libtransmission.a(handshake.o)
                0x0000000000446dd0                tr_handshakeGetIO
                0x0000000000446ddc                tr_handshakeStealIO
                0x0000000000446de8                tr_handshakeGetAddr
                0x000000000044704c                tr_handshakeNew
                0x00000000004475c8                tr_handshakeAbort
 .text          0x0000000000449190       0xe0 ../libtransmission/libtransmission.a(history.o)
                0x0000000000449190                tr_historyAdd
                0x000000000044920c                tr_historyGet
 .text          0x0000000000449270      0x710 ../libtransmission/libtransmission.a(natpmp.o)
                0x0000000000449368                tr_natpmpPulse
                0x00000000004498f4                tr_natpmpClose
                0x0000000000449940                tr_natpmpInit
 .text          0x0000000000449980     0x5d60 ../libtransmission/libtransmission.a(rpcimpl.o)
                0x000000000044f328                tr_rpc_parse_list_str
                0x000000000044f444                tr_rpc_request_exec_uri
                0x000000000044f614                tr_rpc_request_exec_json
 .text          0x000000000044f6e0      0x690 ../third-party/libnatpmp/libnatpmp.a(natpmp.o)
                0x000000000044f6e0                strnatpmperr
                0x000000000044f714                getnatpmprequesttimeout
                0x000000000044f7bc                readnatpmpresponse
                0x000000000044f954                sendpendingrequest
                0x000000000044f99c                readnatpmpresponseorretry
                0x000000000044fae4                sendnatpmprequest
                0x000000000044fb88                sendnewportmappingrequest
                0x000000000044fbe0                sendpublicaddressrequest
                0x000000000044fc08                closenatpmp
                0x000000000044fc48                initnatpmp
 .text          0x000000000044fd70      0x1e0 ../third-party/libnatpmp/libnatpmp.a(getgateway.o)
                0x000000000044fd70                getdefaultgateway
 .text          0x000000000044ff50     0x1440 ../third-party/miniupnp/libminiupnp.a(miniupnpc.o)
                0x000000000044ff50                FreeUPNPUrls
                0x000000000044ffb4                freeUPNPDevlist
                0x000000000044ffec                UPNPIGD_IsConnected
                0x0000000000450148                GetUPNPUrls
                0x0000000000450330                upnpDiscover
                0x0000000000450be8                simpleUPnPcommand2
                0x0000000000450ecc                simpleUPnPcommand
                0x0000000000450f00                parserootdesc
                0x0000000000450f50                UPNP_GetIGDFromUrl
                0x000000000045101c                UPNP_GetValidIGD
 .text          0x0000000000451390      0xd60 ../third-party/miniupnp/libminiupnp.a(miniwget.o)
                0x0000000000451390                parseURL
                0x0000000000451648                getHTTPResponse
                0x0000000000452008                miniwget
                0x0000000000452068                miniwget_getaddr
 .text          0x00000000004520f0      0x680 ../third-party/miniupnp/libminiupnp.a(minixml.o)
                0x00000000004520f0                parsexml
 .text          0x0000000000452770       0xf0 ../third-party/miniupnp/libminiupnp.a(receivedata.o)
                0x0000000000452770                receivedata
 .text          0x0000000000452860     0x1f00 ../third-party/miniupnp/libminiupnp.a(upnpcommands.o)
                0x0000000000452860                UPNP_DeletePinhole
                0x0000000000452964                UPNP_UpdatePinhole
                0x0000000000452a8c                UPNP_GetPortMappingNumberOfEntries
                0x0000000000452b9c                UPNP_DeletePortMapping
                0x0000000000452cec                UPNP_AddPortMapping
                0x0000000000452ef0                UPNP_GetLinkLayerMaxBitRates
                0x00000000004530d4                UPNP_GetPinholePackets
                0x000000000045320c                UPNP_CheckPinholeWorking
                0x000000000045334c                UPNP_GetOutboundPinholeTimeout
                0x0000000000453508                UPNP_GetFirewallStatus
                0x0000000000453690                UPNP_GetTotalPacketsReceived
                0x0000000000453750                UPNP_GetTotalPacketsSent
                0x0000000000453810                UPNP_GetTotalBytesReceived
                0x00000000004538d0                UPNP_GetTotalBytesSent
                0x0000000000453990                UPNP_AddPinhole
                0x0000000000453be0                UPNP_GetSpecificPortMappingEntry
                0x0000000000453e5c                UPNP_GetGenericPortMappingEntry
                0x000000000045416c                UPNP_GetExternalIPAddress
                0x0000000000454280                UPNP_GetConnectionTypeInfo
                0x0000000000454388                UPNP_GetStatusInfo
                0x00000000004545a4                UPNP_GetListOfPortMappings
 .text          0x0000000000454760      0x2a0 ../third-party/miniupnp/libminiupnp.a(upnpreplyparse.o)
                0x0000000000454760                GetValueFromNameValueList
                0x00000000004547d0                ClearNameValueList
                0x0000000000454840                ParseNameValue
 .text          0x0000000000454a00      0x370 ../third-party/miniupnp/libminiupnp.a(connecthostport.o)
                0x0000000000454a00                connecthostport
 .text          0x0000000000454d70      0x4b0 ../third-party/miniupnp/libminiupnp.a(igd_desc_parse.o)
                0x0000000000454d70                printIGD
                0x0000000000454ec0                IGDdata
                0x0000000000454fcc                IGDendelt
                0x0000000000455178                IGDstartelt
 .text          0x0000000000455220      0x180 ../third-party/miniupnp/libminiupnp.a(minisoap.o)
                0x0000000000455220                soapPostSubmit
 .text          0x00000000004553a0      0x400 ../third-party/miniupnp/libminiupnp.a(minissdpc.o)
                0x00000000004553a0                getDevicesFromMiniSSDPD
 .text          0x00000000004557a0      0x530 ../third-party/miniupnp/libminiupnp.a(portlistingparse.o)
                0x00000000004557a8                FreePortListing
                0x0000000000455800                ParsePortListing
 .text          0x0000000000455cd0     0x6ac0 ../third-party/dht/libdht.a(dht.o)
                0x0000000000455d2c                dht_nodes
                0x0000000000457278                dht_uninit
                0x000000000045795c                dht_dump_tables
                0x0000000000457ebc                dht_get_nodes
                0x0000000000458dd8                dht_insert_node
                0x0000000000458f98                dht_init
                0x00000000004592b4                dht_ping_node
                0x000000000045a5f4                dht_search
                0x000000000045aa0c                dht_periodic
 .text          0x000000000045c790     0x40f0 ../third-party/libutp/libutp.a(utp.o)
                0x000000000045c790                _Z25UTP_GetGlobalUTPBytesSentPK8sockaddrj
                0x000000000045c79c                _Z7utp_logPKcz
                0x000000000045c7ac                _Z7no_readPvPKhj
                0x000000000045c7b4                _Z8no_writePvPhj
                0x000000000045c7bc                _Z10no_rb_sizePv
                0x000000000045c7c4                _Z8no_statePvi
                0x000000000045c7cc                _Z8no_errorPvi
                0x000000000045c7d4                _Z11no_overheadPvbji
                0x000000000045c7dc                _Z21wrapping_compare_lessjj
                0x000000000045c7ec                _ZN9UTPSocket17update_send_quotaEv
                0x000000000045c874                UTP_SetCallbacks
                0x000000000045c8f4                UTP_SetSockopt
                0x000000000045c9b0                UTP_GetDelays
                0x000000000045ca20                UTP_GetGlobalStats
                0x000000000045cad8                _Z8UTP_FreeP9UTPSocket
                0x000000000045cc08                UTP_HandleICMP
                0x000000000045ce20                _ZN21SizableCircularBuffer4growEjj
                0x000000000045cefc                _ZN9UTPSocket19selective_ack_bytesEjPKhhRx
                0x000000000045d08c                _ZN9UTPSocket10ack_packetEt
                0x000000000045d224                UTP_GetPeerName
                0x000000000045d2e4                _Z12send_to_addrPFvPvPKhjPK8sockaddrjES_S1_jRK14PackedSockAddr
                0x000000000045d4c4                _ZN9UTPSocket8send_rstEPFvPvPKhjPK8sockaddrjES0_RK14PackedSockAddrjtth
                0x000000000045d5b8                _ZN9UTPSocket15get_packet_sizeEv
                0x000000000045d67c                UTP_GetPacketSize
                0x000000000045d684                UTP_Create
                0x000000000045d944                _ZN9UTPSocket11is_writableEj
                0x000000000045da4c                _ZN9UTPSocket21apply_ledbat_ccontrolEjjx
                0x000000000045dccc                _ZN9UTPSocket9send_dataEP12PacketFormatj16bandwidth_type_t
                0x000000000045df28                _ZN9UTPSocket8send_ackEb
                0x000000000045e214                UTP_RBDrained
                0x000000000045e2b8                _ZN9UTPSocket15send_keep_aliveEv
                0x000000000045e2f8                _ZN9UTPSocket11send_packetEP14OutgoingPacket
                0x000000000045e4a4                UTP_Connect
                0x000000000045e6f0                _ZN9UTPSocket13selective_ackEjPKhh
                0x000000000045e9c0                _ZN9UTPSocket13flush_packetsEv
                0x000000000045eb34                _ZN9UTPSocket21write_outgoing_packetEjj
                0x000000000045eea4                UTP_Close
                0x000000000045ef54                UTP_Write
                0x000000000045f038                _ZN9UTPSocket14check_timeoutsEv
                0x000000000045f3fc                UTP_CheckTimeouts
                0x000000000045f604                _Z19UTP_ProcessIncomingP9UTPSocketPKhjb
                0x0000000000460238                UTP_IsIncomingUTP
 .text._ZN9DelayHist10add_sampleEj
                0x0000000000460880      0x15c ../third-party/libutp/libutp.a(utp.o)
                0x0000000000460880                _ZN9DelayHist10add_sampleEj
 .text._ZN5ArrayIP9UTPSocketLj16EED1Ev
                0x00000000004609dc       0x38 ../third-party/libutp/libutp.a(utp.o)
                0x00000000004609dc                _ZN5ArrayIP9UTPSocketLj16EED1Ev
 .text._ZN5ArrayI8RST_InfoLj16EED1Ev
                0x0000000000460a14       0x38 ../third-party/libutp/libutp.a(utp.o)
                0x0000000000460a14                _ZN5ArrayI8RST_InfoLj16EED1Ev
 .text._ZNK9UTPSocket16get_udp_overheadEv
                0x0000000000460a4c       0xa8 ../third-party/libutp/libutp.a(utp.o)
                0x0000000000460a4c                _ZNK9UTPSocket16get_udp_overheadEv
 *fill*         0x0000000000460af4        0xc 
 .text          0x0000000000460b00      0x250 ../third-party/libutp/libutp.a(utp_utils.o)
                0x0000000000460b00                _Z13UTP_GetUDPMTUPK8sockaddrj
                0x0000000000460b1c                _Z18UTP_GetUDPOverheadPK8sockaddrj
                0x0000000000460b38                _Z15UTP_DelaySamplePK8sockaddri
                0x0000000000460b40                _Z17UTP_GetPacketSizePK8sockaddr
                0x0000000000460b48                _Z10UTP_Randomv
                0x0000000000460b50                _Z19UTP_GetMicrosecondsv
                0x0000000000460d18                _Z19UTP_GetMillisecondsv
 .text          0x0000000000460d50     0x7070 /home/ql_xu/develop/trunk/uClinux-dist/lib/libevent/.libs/libevent.a(event.o)
                0x0000000000460e00                _event_debug_map_HT_REP_IS_BAD
                0x0000000000461004                event_base_get_features
                0x0000000000461014                event_base_get_deferred_cb_queue
                0x000000000046102c                event_base_start_iocp
                0x0000000000461034                event_base_stop_iocp
                0x000000000046103c                event_config_set_flag
                0x0000000000461060                event_config_require_features
                0x000000000046107c                event_config_set_num_cpus_hint
                0x00000000004610a4                event_base_got_break
                0x0000000000461124                event_base_got_exit
                0x00000000004611a4                event_initialized
                0x00000000004611b4                event_get_struct_event_size
                0x00000000004611bc                event_deferred_cb_cancel
                0x000000000046129c                event_deferred_cb_schedule
                0x0000000000461370                event_get_version
                0x000000000046137c                event_get_version_number
                0x0000000000461388                event_get_method
                0x00000000004613a0                event_set_mem_functions
                0x00000000004613bc                event_base_add_virtual
                0x0000000000461424                event_base_assert_ok
                0x000000000046170c                event_base_get_method
                0x0000000000461764                event_enable_debug_mode
                0x00000000004617e8                event_global_setup_locks_
                0x0000000000461944                event_base_del_virtual
                0x0000000000461a38                event_base_loopbreak
                0x0000000000461b00                event_loopbreak
                0x0000000000461f68                event_base_dump_events
                0x00000000004623c8                event_mm_free_
                0x00000000004623e8                event_config_free
                0x0000000000462474                event_debug_map_HT_CLEAR
                0x00000000004624c0                event_mm_realloc_
                0x0000000000462870                event_active_nolock
                0x0000000000462a50                event_mm_strdup_
                0x0000000000462ac4                event_deferred_cb_init
                0x0000000000462adc                event_deferred_cb_queue_init
                0x0000000000462afc                event_mm_calloc_
                0x0000000000462b64                event_base_priority_init
                0x0000000000462c54                event_priority_init
                0x0000000000462c68                event_config_new
                0x0000000000462c98                event_get_supported_methods
                0x0000000000462d5c                event_mm_malloc_
                0x0000000000462d7c                event_config_avoid_method
                0x0000000000462e08                event_debug_map_HT_GROW
                0x0000000000463228                event_base_gettimeofday_cached
                0x0000000000463324                event_base_set
                0x000000000046348c                event_priority_set
                0x00000000004635e8                event_active
                0x00000000004637ac                event_get_fd
                0x00000000004638c8                event_get_base
                0x00000000004639e4                event_get_events
                0x0000000000463b00                event_get_callback
                0x0000000000463c1c                event_get_callback_arg
                0x0000000000463d38                event_get_assignment
                0x0000000000463ee4                event_debug_unassign
                0x000000000046484c                event_add
                0x00000000004648e8                event_assign
                0x0000000000464c94                evthread_make_base_notifiable
                0x0000000000464e84                event_reinit
                0x0000000000465124                event_new
                0x00000000004651c0                event_set
                0x000000000046523c                event_base_once
                0x0000000000465388                event_once
                0x00000000004653cc                event_loopexit
                0x0000000000465400                event_base_loopexit
                0x0000000000465430                event_base_init_common_timeout
                0x00000000004657b4                event_pending
                0x00000000004659f8                event_del
                0x0000000000465de8                event_free
                0x0000000000465ff4                event_base_free
                0x00000000004663b4                event_base_new_with_config
                0x0000000000466780                event_base_new
                0x00000000004667d8                event_init
                0x0000000000466cac                event_base_loop
                0x0000000000467d94                event_loop
                0x0000000000467da8                event_dispatch
                0x0000000000467db4                event_base_dispatch
 .text          0x0000000000467dc0      0xc70 /home/ql_xu/develop/trunk/uClinux-dist/lib/libevent/.libs/libevent.a(evthread.o)
                0x0000000000467dc0                evthread_set_id_callback
                0x0000000000467dcc                _evthread_is_debug_lock_held
                0x0000000000467e20                _evthread_debug_get_real_lock
                0x000000000046830c                evthread_setup_global_lock_
                0x000000000046860c                evthread_enable_lock_debuging
                0x0000000000468730                evthread_set_condition_callbacks
                0x00000000004688a8                evthread_set_lock_callbacks
 .text          0x0000000000468a30     0x5c00 /home/ql_xu/develop/trunk/uClinux-dist/lib/libevent/.libs/libevent.a(buffer.o)
                0x0000000000468a30                evbuffer_set_flags
                0x0000000000468a98                evbuffer_clear_flags
                0x0000000000468b04                _evbuffer_incref
                0x0000000000468b6c                _evbuffer_incref_and_lock
                0x0000000000468bb0                evbuffer_enable_locking
                0x0000000000468c44                evbuffer_set_parent
                0x0000000000468cbc                evbuffer_lock
                0x0000000000468ce4                evbuffer_unlock
                0x0000000000468d0c                evbuffer_get_length
                0x0000000000468d8c                evbuffer_get_contiguous_space
                0x0000000000468df0                evbuffer_ptr_set
                0x0000000000468f04                evbuffer_peek
                0x0000000000469060                evbuffer_cb_set_flags
                0x00000000004690dc                evbuffer_cb_clear_flags
                0x000000000046915c                evbuffer_freeze
                0x00000000004691ec                evbuffer_unfreeze
                0x0000000000469284                _evbuffer_testing_use_sendfile
                0x00000000004692a0                _evbuffer_testing_use_mmap
                0x00000000004692bc                _evbuffer_testing_use_linear_file_access
                0x00000000004692d4                evbuffer_remove_cb_entry
                0x000000000046936c                evbuffer_remove_cb
                0x000000000046941c                evbuffer_add_cb
                0x00000000004694dc                evbuffer_setcb
                0x00000000004695cc                evbuffer_new
                0x0000000000469890                _evbuffer_read_setup_vecs
                0x0000000000469e78                _evbuffer_chain_pin
                0x0000000000469ed8                evbuffer_copyout
                0x000000000046a5d8                evbuffer_search_range
                0x000000000046a7fc                evbuffer_search
                0x000000000046a828                evbuffer_search_eol
                0x000000000046acd8                evbuffer_invoke_callbacks
                0x000000000046ad90                evbuffer_prepend_buffer
                0x000000000046b068                evbuffer_add_buffer
                0x000000000046b328                evbuffer_commit_space
                0x000000000046b5ac                evbuffer_defer_callbacks
                0x000000000046b640                _evbuffer_decref_and_unlock
                0x000000000046b974                evbuffer_free
                0x000000000046c01c                evbuffer_expand
                0x000000000046c094                evbuffer_add_vprintf
                0x000000000046c1e8                evbuffer_add_printf
                0x000000000046c214                evbuffer_add_reference
                0x000000000046c330                evbuffer_prepend
                0x000000000046c53c                evbuffer_add
                0x000000000046c78c                evbuffer_remove_buffer
                0x000000000046cb18                _evbuffer_expand_fast
                0x000000000046d050                evbuffer_reserve_space
                0x000000000046d1d4                evbuffer_read
                0x000000000046d3c8                _evbuffer_chain_unpin
                0x000000000046d56c                evbuffer_pullup
                0x000000000046da18                evbuffer_find
                0x000000000046dac4                evbuffer_drain
                0x000000000046de00                evbuffer_write_atmost
                0x000000000046dfac                evbuffer_write
                0x000000000046dfb8                evbuffer_remove
                0x000000000046e050                evbuffer_readln
                0x000000000046e16c                evbuffer_readline
                0x000000000046e17c                evbuffer_add_file
 .text          0x000000000046e630     0x1940 /home/ql_xu/develop/trunk/uClinux-dist/lib/libevent/.libs/libevent.a(bufferevent.o)
                0x000000000046e630                bufferevent_suspend_read
                0x000000000046e6d8                bufferevent_unsuspend_read
                0x000000000046e788                bufferevent_suspend_write
                0x000000000046e830                bufferevent_unsuspend_write
                0x000000000046e8e0                bufferevent_setcb
                0x000000000046e984                bufferevent_get_input
                0x000000000046e990                bufferevent_get_output
                0x000000000046e99c                bufferevent_get_base
                0x000000000046e9a8                bufferevent_set_timeouts
                0x000000000046ea78                bufferevent_disable_hard
                0x000000000046eb2c                bufferevent_disable
                0x000000000046ebcc                bufferevent_flush
                0x000000000046ec60                _bufferevent_incref_and_lock
                0x000000000046eca4                bufferevent_incref
                0x000000000046ed0c                bufferevent_setfd
                0x000000000046ed94                bufferevent_getfd
                0x000000000046ee3c                bufferevent_get_enabled
                0x000000000046eebc                bufferevent_get_underlying
                0x000000000046ef60                bufferevent_lock
                0x000000000046ef68                _bufferevent_add_event
                0x000000000046ef98                _bufferevent_del_generic_timeout_cbs
                0x000000000046efe8                _bufferevent_generic_adj_timeouts
                0x000000000046f12c                _bufferevent_init_generic_timeout_cbs
                0x000000000046f194                bufferevent_enable_locking
                0x000000000046f2c4                bufferevent_settimeout
                0x000000000046f310                _bufferevent_decref_and_unlock
                0x000000000046f4cc                bufferevent_unlock
                0x000000000046f4d4                bufferevent_free
                0x000000000046f57c                bufferevent_decref
                0x000000000046f5b8                bufferevent_enable
                0x000000000046f654                bufferevent_setwatermark
                0x000000000046f7c0                bufferevent_read_buffer
                0x000000000046f7d4                bufferevent_write_buffer
                0x000000000046f804                bufferevent_read
                0x000000000046f810                bufferevent_write
                0x000000000046f840                bufferevent_init_common
                0x000000000046fd28                _bufferevent_run_eventcb
                0x000000000046fe50                _bufferevent_run_writecb
                0x000000000046fedc                _bufferevent_run_readcb
 .text          0x000000000046ff70     0x21f0 /home/ql_xu/develop/trunk/uClinux-dist/lib/libevent/.libs/libevent.a(bufferevent_ratelim.o)
                0x000000000046ff70                ev_token_bucket_init
                0x000000000046ffd8                ev_token_bucket_update
                0x00000000004700ac                ev_token_bucket_get_tick
                0x0000000000470118                bufferevent_rate_limit_group_set_min_share
                0x0000000000470150                bufferevent_rate_limit_group_get_read_limit
                0x00000000004701d0                bufferevent_rate_limit_group_get_write_limit
                0x0000000000470250                bufferevent_rate_limit_group_reset_totals
                0x000000000047026c                bufferevent_rate_limit_group_get_totals
                0x00000000004703a0                bufferevent_remove_from_rate_limit_group_internal
                0x00000000004704cc                bufferevent_remove_from_rate_limit_group
                0x00000000004704d8                bufferevent_decrement_write_limit
                0x000000000047061c                bufferevent_decrement_read_limit
                0x0000000000470760                _bufferevent_get_write_max
                0x00000000004708a0                bufferevent_get_max_to_write
                0x0000000000470a34                bufferevent_add_to_rate_limit_group
                0x0000000000470c00                bufferevent_rate_limit_group_free
                0x0000000000470cc8                ev_token_bucket_cfg_free
                0x0000000000470cd0                bufferevent_rate_limit_group_set_cfg
                0x0000000000470e28                bufferevent_rate_limit_group_new
                0x0000000000470f64                ev_token_bucket_cfg_new
                0x000000000047107c                bufferevent_set_rate_limit
                0x0000000000471594                bufferevent_rate_limit_group_decrement_write
                0x0000000000471638                _bufferevent_decrement_write_buckets
                0x0000000000471a8c                bufferevent_rate_limit_group_decrement_read
                0x0000000000471b30                _bufferevent_decrement_read_buckets
                0x0000000000471e30                bufferevent_get_write_limit
                0x0000000000471ef8                bufferevent_get_read_limit
                0x0000000000471fc0                _bufferevent_get_read_max
                0x00000000004720f8                bufferevent_get_max_to_read
 .text          0x0000000000472160     0x10d0 /home/ql_xu/develop/trunk/uClinux-dist/lib/libevent/.libs/libevent.a(evmap.o)
                0x0000000000472160                evmap_io_initmap
                0x000000000047216c                evmap_signal_initmap
                0x0000000000472178                evmap_signal_del
                0x0000000000472244                evmap_io_get_fdinfo
                0x0000000000472268                event_changelist_init
                0x0000000000472278                evmap_check_integrity
                0x00000000004725c8                event_changelist_remove_all
                0x000000000047269c                evmap_io_del
                0x00000000004729d8                event_changelist_del
                0x0000000000472abc                event_changelist_add
                0x0000000000472b48                event_changelist_freemem
                0x0000000000472b88                evmap_signal_clear
                0x0000000000472c08                evmap_io_clear
                0x0000000000472c10                evmap_signal_active
                0x0000000000472cb4                evmap_io_active
                0x0000000000472e68                evmap_io_add
                0x00000000004730f4                evmap_signal_add
 .text          0x0000000000473230      0x3b0 /home/ql_xu/develop/trunk/uClinux-dist/lib/libevent/.libs/libevent.a(log.o)
                0x0000000000473230                event_set_fatal_callback
                0x000000000047323c                event_set_log_callback
                0x000000000047334c                _event_debugx
                0x000000000047338c                event_msgx
                0x00000000004733cc                event_warnx
                0x0000000000473458                event_errx
                0x0000000000473498                event_sock_warn
                0x00000000004734e4                event_sock_err
                0x000000000047352c                event_warn
                0x0000000000473584                event_err
 .text          0x00000000004735e0     0x29d0 /home/ql_xu/develop/trunk/uClinux-dist/lib/libevent/.libs/libevent.a(evutil.o)
                0x00000000004735e0                evutil_addrinfo_append
                0x00000000004736b4                evutil_set_evdns_getaddrinfo_fn
                0x00000000004736d4                EVUTIL_ISALPHA
                0x0000000000473704                EVUTIL_ISALNUM
                0x0000000000473734                EVUTIL_ISSPACE
                0x0000000000473764                EVUTIL_ISDIGIT
                0x0000000000473794                EVUTIL_ISXDIGIT
                0x00000000004737c4                EVUTIL_ISPRINT
                0x00000000004737f4                EVUTIL_ISLOWER
                0x0000000000473824                EVUTIL_ISUPPER
                0x0000000000473854                EVUTIL_TOLOWER
                0x0000000000473870                EVUTIL_TOUPPER
                0x000000000047388c                evutil_ascii_strcasecmp
                0x00000000004738f0                evutil_ascii_strncasecmp
                0x0000000000473954                evutil_tv_to_msec
                0x00000000004739bc                evutil_hex_char_to_int
                0x00000000004739f0                evutil_sockaddr_is_loopback
                0x0000000000473a64                evutil_sockaddr_cmp
                0x0000000000473b20                _evutil_weakrand
                0x0000000000473b28                evutil_getenv
                0x0000000000473b8c                evutil_inet_pton
                0x0000000000474008                evutil_parse_sockaddr_port
                0x00000000004742c0                evutil_vsnprintf
                0x0000000000474314                evutil_snprintf
                0x000000000047433c                evutil_inet_ntop
                0x00000000004746fc                evutil_format_sockaddr_port
                0x0000000000474800                evutil_gai_strerror
                0x0000000000474924                evutil_freeaddrinfo
                0x0000000000474aa4                evutil_new_addrinfo
                0x0000000000474c6c                evutil_getaddrinfo_common
                0x0000000000474fe4                evutil_getaddrinfo
                0x0000000000475358                evutil_getaddrinfo_async
                0x00000000004753f8                evutil_socket_finished_connecting
                0x00000000004754ac                evutil_strtoll
                0x00000000004754b4                evutil_closesocket
                0x00000000004754bc                evutil_make_socket_closeonexec
                0x0000000000475538                evutil_make_socket_nonblocking
                0x00000000004755b4                evutil_socket_connect
                0x00000000004756d4                evutil_make_listen_socket_reuseable
                0x0000000000475708                evutil_ersatz_socketpair
                0x00000000004759f0                evutil_socketpair
                0x00000000004759f8                evutil_open_closeonexec
                0x0000000000475a54                evutil_read_file
                0x0000000000475c24                evutil_adjust_hints_for_addrconfig
 .text          0x0000000000475fb0      0x930 /home/ql_xu/develop/trunk/uClinux-dist/lib/libevent/.libs/libevent.a(evutil_rand.o)
                0x0000000000475fb0                evutil_secure_rng_global_setup_locks_
                0x0000000000476584                evutil_secure_rng_add_bytes
                0x00000000004766d4                evutil_secure_rng_init
                0x0000000000476760                evutil_secure_rng_get_bytes
 .text          0x00000000004768e0      0x650 /home/ql_xu/develop/trunk/uClinux-dist/lib/libevent/.libs/libevent.a(select.o)
 .text          0x0000000000476f30      0x640 /home/ql_xu/develop/trunk/uClinux-dist/lib/libevent/.libs/libevent.a(poll.o)
 .text          0x0000000000477570      0x7f0 /home/ql_xu/develop/trunk/uClinux-dist/lib/libevent/.libs/libevent.a(epoll.o)
 .text          0x0000000000477d60      0xa50 /home/ql_xu/develop/trunk/uClinux-dist/lib/libevent/.libs/libevent.a(signal.o)
                0x0000000000477d60                evsig_set_base
                0x0000000000477e18                evsig_global_setup_locks_
                0x0000000000477e70                _evsig_restore_handler
                0x0000000000477eec                evsig_dealloc
                0x0000000000478034                _evsig_set_handler
                0x0000000000478198                evsig_init
 .text          0x00000000004787b0     0x6d40 /home/ql_xu/develop/trunk/uClinux-dist/lib/libevent/.libs/libevent.a(http.o)
                0x00000000004787b0                evhttp_connection_set_max_headers_size
                0x00000000004787c8                evhttp_connection_set_max_body_size
                0x0000000000478810                evhttp_connection_get_bufferevent
                0x000000000047881c                evhttp_connection_set_retries
                0x0000000000478824                evhttp_connection_set_closecb
                0x0000000000478830                evhttp_connection_get_peer
                0x00000000004788d0                evhttp_bound_socket_get_listener
                0x00000000004788dc                evhttp_set_timeout
                0x00000000004788e4                evhttp_set_max_headers_size
                0x00000000004788fc                evhttp_set_max_body_size
                0x0000000000478924                evhttp_set_allowed_methods
                0x000000000047892c                evhttp_set_gencb
                0x0000000000478938                evhttp_request_own
                0x0000000000478948                evhttp_request_is_owned
                0x0000000000478958                evhttp_request_get_connection
                0x0000000000478964                evhttp_connection_get_base
                0x0000000000478970                evhttp_request_set_chunked_cb
                0x0000000000478978                evhttp_request_get_uri
                0x0000000000478984                evhttp_request_get_evhttp_uri
                0x0000000000478990                evhttp_request_get_command
                0x000000000047899c                evhttp_request_get_response_code
                0x00000000004789a8                evhttp_request_get_input_headers
                0x00000000004789b4                evhttp_request_get_output_headers
                0x00000000004789c0                evhttp_request_get_input_buffer
                0x00000000004789cc                evhttp_request_get_output_buffer
                0x00000000004789d8                evhttp_uri_set_flags
                0x00000000004789e0                evhttp_uri_get_scheme
                0x00000000004789ec                evhttp_uri_get_userinfo
                0x00000000004789f8                evhttp_uri_get_host
                0x0000000000478a04                evhttp_uri_get_port
                0x0000000000478a10                evhttp_uri_get_path
                0x0000000000478a1c                evhttp_uri_get_query
                0x0000000000478a28                evhttp_uri_get_fragment
                0x0000000000478a34                evhttp_uri_set_port
                0x0000000000478a54                evhttp_uri_free
                0x0000000000478af0                evhttp_remove_virtual_host
                0x0000000000478b60                evhttp_clear_headers
                0x0000000000478c24                evhttp_add_virtual_host
                0x0000000000478c94                evhttp_response_code
                0x0000000000478f48                evhttp_uri_set_fragment
                0x0000000000479004                evhttp_uri_set_query
                0x00000000004790c0                evhttp_uri_set_path
                0x0000000000479390                evhttp_uri_set_userinfo
                0x00000000004795e4                evhttp_uri_set_host
                0x00000000004796c8                evhttp_connection_set_local_port
                0x0000000000479724                evhttp_connection_set_local_address
                0x00000000004798d8                evhttp_uri_set_scheme
                0x0000000000479980                evhttp_request_free
                0x0000000000479a84                evhttp_uri_join
                0x0000000000479cb0                evhttp_uri_new
                0x0000000000479cdc                evhttp_request_new
                0x0000000000479dfc                evhttp_add_server_alias
                0x0000000000479f3c                evhttp_new
                0x000000000047a048                evhttp_uri_parse_with_flags
                0x000000000047a5c0                evhttp_uri_parse
                0x000000000047a5cc                evhttp_uriencode
                0x000000000047a768                evhttp_encode_uri
                0x000000000047a778                evhttp_htmlescape
                0x000000000047a9f0                evhttp_del_cb
                0x000000000047aab4                evhttp_set_cb
                0x000000000047abd4                evhttp_remove_server_alias
                0x000000000047ad80                evhttp_remove_header
                0x000000000047ae50                evhttp_find_header
                0x000000000047aec4                evhttp_request_get_host
                0x000000000047b074                evhttp_del_accept_socket
                0x000000000047b0f0                evhttp_bound_socket_get_fd
                0x000000000047b0fc                evhttp_bind_listener
                0x000000000047b3dc                evhttp_uridecode
                0x000000000047b4c0                evhttp_decode_uri
                0x000000000047b544                evhttp_accept_socket_with_handle
                0x000000000047b5d0                evhttp_accept_socket
                0x000000000047b864                evhttp_bind_socket_with_handle
                0x000000000047b904                evhttp_bind_socket
                0x000000000047b92c                evhttp_start
                0x000000000047bbb0                evhttp_parse_query_str
                0x000000000047bbbc                evhttp_parse_query
                0x000000000047bc14                evhttp_start_read
                0x000000000047be20                evhttp_connection_set_timeout
                0x000000000047be50                evhttp_connection_set_base
                0x000000000047bee8                evhttp_add_header
                0x000000000047c4d4                evhttp_parse_headers
                0x000000000047c6f8                evhttp_connection_reset
                0x000000000047c97c                evhttp_connection_connect
                0x000000000047caf0                evhttp_connection_free
                0x000000000047cc98                evhttp_free
                0x000000000047cf7c                evhttp_connection_base_new
                0x000000000047d0e0                evhttp_connection_new
                0x000000000047d29c                evhttp_connection_fail
                0x000000000047d490                evhttp_cancel_request
                0x000000000047d6a0                evhttp_parse_firstline
                0x000000000047db40                evhttp_send_reply_end
                0x000000000047dc28                evhttp_send_reply_start
                0x000000000047e5dc                evhttp_make_request
                0x000000000047e8cc                evhttp_send_reply
                0x000000000047e998                evhttp_send_reply_chunk
                0x000000000047eaa4                evhttp_send_page
                0x000000000047ebf4                evhttp_send_error
 .text          0x000000000047f4f0     0x8d20 /home/ql_xu/develop/trunk/uClinux-dist/lib/libevent/.libs/libevent.a(evdns.o)
                0x000000000047f4f0                evdns_get_global_base
                0x000000000047f500                evdns_set_log_fn
                0x000000000047f50c                evdns_set_transaction_id_fn
                0x000000000047f514                evdns_set_random_bytes_fn
                0x000000000047f51c                evdns_server_request_set_flags
                0x000000000047f538                evdns_base_count_nameservers
                0x000000000047f5b0                evdns_count_nameservers
                0x000000000047f5c0                evdns_err_to_string
                0x000000000047fb74                evdns_server_request_get_requesting_addr
                0x00000000004804fc                evdns_base_load_hosts
                0x0000000000481538                evdns_cancel_request
                0x0000000000481688                evdns_getaddrinfo_cancel
                0x0000000000481e1c                evdns_base_resume
                0x0000000000481e78                evdns_resume
                0x000000000048271c                evdns_base_search_clear
                0x0000000000482780                evdns_search_clear
                0x0000000000482790                evdns_base_search_ndots_set
                0x0000000000482828                evdns_search_ndots_set
                0x0000000000482974                evdns_base_search_add
                0x00000000004829f0                evdns_search_add
                0x0000000000482e90                evdns_server_request_add_reply
                0x000000000048308c                evdns_server_request_add_cname_reply
                0x00000000004830cc                evdns_server_request_add_ptr_reply
                0x00000000004831a4                evdns_server_request_add_aaaa_reply
                0x00000000004831ec                evdns_server_request_add_a_reply
                0x0000000000483234                evdns_add_server_port_with_base
                0x0000000000483334                evdns_add_server_port
                0x00000000004835dc                evdns_base_free
                0x000000000048362c                evdns_shutdown
                0x0000000000483948                evdns_server_request_drop
                0x0000000000483b4c                evdns_server_request_respond
                0x00000000004842ac                evdns_close_server_port
                0x00000000004847e0                evdns_base_nameserver_sockaddr_add
                0x0000000000484894                evdns_base_nameserver_ip_add
                0x00000000004849b0                evdns_base_nameserver_add
                0x0000000000484a38                evdns_base_clear_nameservers_and_suspend
                0x0000000000484c18                evdns_clear_nameservers_and_suspend
                0x00000000004861a8                evdns_base_resolve_reverse_ipv6
                0x0000000000486384                evdns_resolve_reverse_ipv6
                0x00000000004863cc                evdns_base_resolve_reverse
                0x0000000000486540                evdns_resolve_reverse
                0x00000000004868b4                evdns_base_resolve_ipv6
                0x00000000004869e0                evdns_resolve_ipv6
                0x0000000000486a28                evdns_base_resolve_ipv4
                0x0000000000486b54                evdns_getaddrinfo
                0x0000000000487060                evdns_resolve_ipv4
                0x000000000048791c                evdns_base_set_option
                0x0000000000487c44                evdns_base_resolv_conf_parse
                0x0000000000487e90                evdns_base_new
                0x0000000000488030                evdns_init
                0x0000000000488078                evdns_set_option
                0x00000000004880e4                evdns_nameserver_ip_add
                0x0000000000488144                evdns_nameserver_add
                0x00000000004881a4                evdns_resolv_conf_parse
 .text          0x0000000000488210     0x1060 /home/ql_xu/develop/trunk/uClinux-dist/lib/libevent/.libs/libevent.a(bufferevent_sock.o)
                0x0000000000488210                bufferevent_socket_get_dns_error
                0x0000000000488b74                bufferevent_base_set
                0x0000000000488c24                bufferevent_priority_set
                0x0000000000488cd4                bufferevent_socket_connect_hostname
                0x0000000000488e48                bufferevent_socket_connect
                0x00000000004890fc                bufferevent_socket_new
                0x0000000000489200                bufferevent_new
 .text          0x0000000000489270      0xa30 /home/ql_xu/develop/trunk/uClinux-dist/lib/libevent/.libs/libevent.a(listener.o)
                0x0000000000489270                evconnlistener_enable
                0x00000000004892fc                evconnlistener_disable
                0x0000000000489378                evconnlistener_get_fd
                0x00000000004893e0                evconnlistener_get_base
                0x0000000000489448                evconnlistener_set_cb
                0x00000000004894f8                evconnlistener_set_error_cb
                0x0000000000489650                evconnlistener_free
                0x00000000004896ac                evconnlistener_new
                0x00000000004897f0                evconnlistener_new_bind
 .text          0x0000000000489ca0      0x4b0 /home/ql_xu/develop/trunk/uClinux-dist/user/curl-7.36.0/lib/.libs/libcurl.a(libcurl_la-escape.o)
                0x0000000000489ca0                curl_free
                0x0000000000489cbc                Curl_urldecode
                0x0000000000489eec                curl_easy_unescape
                0x0000000000489f58                curl_unescape
                0x0000000000489f74                curl_easy_escape
                0x000000000048a138                curl_escape
 .text          0x000000000048a150     0x18b0 /home/ql_xu/develop/trunk/uClinux-dist/user/curl-7.36.0/lib/.libs/libcurl.a(libcurl_la-mprintf.o)
                0x000000000048a288                curl_msnprintf
                0x000000000048b6c8                curl_mvfprintf
                0x000000000048b6e4                curl_mvprintf
                0x000000000048b704                curl_mvsprintf
                0x000000000048b740                curl_mvaprintf
                0x000000000048b7f8                curl_mvsnprintf
                0x000000000048b85c                curl_mfprintf
                0x000000000048b898                curl_mprintf
                0x000000000048b8e0                curl_msprintf
                0x000000000048b92c                curl_maprintf
 .text          0x000000000048ba00      0xb40 /home/ql_xu/develop/trunk/uClinux-dist/user/curl-7.36.0/lib/.libs/libcurl.a(libcurl_la-easy.o)
                0x000000000048ba00                curl_global_init
                0x000000000048ba8c                curl_global_init_mem
                0x000000000048bc14                curl_easy_send
                0x000000000048bccc                curl_easy_recv
                0x000000000048bd5c                curl_easy_pause
                0x000000000048bf4c                curl_easy_reset
                0x000000000048c000                curl_easy_duphandle
                0x000000000048c1d4                curl_easy_getinfo
                0x000000000048c1fc                curl_easy_cleanup
                0x000000000048c214                curl_easy_setopt
                0x000000000048c254                curl_easy_init
                0x000000000048c2ac                curl_global_cleanup
                0x000000000048c2f4                curl_easy_perform
 .text          0x000000000048c540     0x16f0 /home/ql_xu/develop/trunk/uClinux-dist/user/curl-7.36.0/lib/.libs/libcurl.a(libcurl_la-connect.o)
                0x000000000048c560                Curl_persistconninfo
                0x000000000048c648                Curl_socket
                0x000000000048c744                Curl_closesocket
                0x000000000048c7d0                Curl_getconnectinfo
                0x000000000048d2ec                Curl_timeleft
                0x000000000048d3f8                Curl_connecthost
                0x000000000048d5b8                Curl_updateconninfo
                0x000000000048d820                Curl_is_connected
 .text          0x000000000048dc30     0x3420 /home/ql_xu/develop/trunk/uClinux-dist/user/curl-7.36.0/lib/.libs/libcurl.a(libcurl_la-multi.o)
                0x000000000048dc80                Curl_multi_pipeline_enabled
                0x000000000048dc9c                Curl_multi_handlePipeBreak
                0x000000000048dca4                Curl_multi_set_easy_connection
                0x000000000048dcc0                Curl_multi_max_host_connections
                0x000000000048dcdc                Curl_multi_max_total_connections
                0x000000000048dcf8                Curl_multi_max_pipeline_length
                0x000000000048dd14                Curl_multi_content_length_penalty_size
                0x000000000048dd40                Curl_multi_chunk_length_penalty_size
                0x000000000048dd6c                Curl_multi_pipelining_site_bl
                0x000000000048dd78                Curl_multi_pipelining_server_bl
                0x000000000048dd84                curl_multi_assign
                0x000000000048e054                Curl_expire
                0x000000000048e290                Curl_multi_process_pending_handles
                0x000000000048e3fc                curl_multi_timeout
                0x000000000048e560                Curl_multi_closed
                0x000000000048e5e4                curl_multi_setopt
                0x000000000048e7fc                curl_multi_info_read
                0x000000000048e89c                curl_multi_cleanup
                0x000000000048ea38                curl_multi_add_handle
                0x000000000048ebe8                Curl_multi_handle
                0x000000000048ed48                curl_multi_init
                0x000000000048ee94                curl_multi_wait
                0x0000000000490654                curl_multi_perform
                0x0000000000490ae4                curl_multi_socket_all
                0x0000000000490b4c                curl_multi_socket_action
                0x0000000000490bb8                curl_multi_socket
                0x0000000000490c24                curl_multi_remove_handle
                0x0000000000490ec8                curl_multi_fdset
 .text          0x0000000000491050      0x190 /home/ql_xu/develop/trunk/uClinux-dist/user/curl-7.36.0/lib/.libs/libcurl.a(libcurl_la-strerror.o)
                0x0000000000491050                curl_easy_strerror
                0x0000000000491080                curl_multi_strerror
                0x00000000004910b4                curl_share_strerror
                0x00000000004910e4                Curl_strerror
 .text          0x00000000004911e0      0x5c0 /home/ql_xu/develop/trunk/uClinux-dist/user/curl-7.36.0/lib/.libs/libcurl.a(libcurl_la-select.o)
                0x00000000004911e0                Curl_wait_ms
                0x0000000000491308                Curl_poll
                0x000000000049151c                Curl_socket_check
 .text          0x00000000004917a0      0x550 /home/ql_xu/develop/trunk/uClinux-dist/user/curl-7.36.0/lib/.libs/libcurl.a(libcurl_la-splay.o)
                0x00000000004917a0                Curl_splay
                0x000000000049190c                Curl_splayinsert
                0x0000000000491a24                Curl_splaygetbest
                0x0000000000491b94                Curl_splayremovebyaddr
 .text          0x0000000000491cf0      0x1d0 /home/ql_xu/develop/trunk/uClinux-dist/user/curl-7.36.0/lib/.libs/libcurl.a(libcurl_la-slist.o)
                0x0000000000491cf0                Curl_slist_append_nodup
                0x0000000000491d5c                curl_slist_append
                0x0000000000491de4                curl_slist_free_all
                0x0000000000491e54                Curl_slist_duplicate
 .text          0x0000000000491ec0       0x70 /home/ql_xu/develop/trunk/uClinux-dist/user/curl-7.36.0/lib/.libs/libcurl.a(libcurl_la-nonblock.o)
                0x0000000000491ec0                curlx_nonblock
 .text          0x0000000000491f30       0x90 /home/ql_xu/develop/trunk/uClinux-dist/user/curl-7.36.0/lib/.libs/libcurl.a(libcurl_la-warnless.o)
                0x0000000000491f30                curlx_ultous
                0x0000000000491f38                curlx_ultouc
                0x0000000000491f40                curlx_ultosi
                0x0000000000491f50                curlx_uztosi
                0x0000000000491f60                curlx_uztoul
                0x0000000000491f68                curlx_uztoui
                0x0000000000491f70                curlx_sltosi
                0x0000000000491f80                curlx_sltoui
                0x0000000000491f88                curlx_sltous
                0x0000000000491f90                curlx_uztosz
                0x0000000000491fa0                curlx_sotouz
                0x0000000000491fa8                curlx_sztosi
                0x0000000000491fb8                curlx_sitouz
 .text          0x0000000000491fc0      0x470 /home/ql_xu/develop/trunk/uClinux-dist/user/curl-7.36.0/lib/.libs/libcurl.a(libcurl_la-conncache.o)
                0x0000000000491fc0                Curl_conncache_find_first_connection
                0x0000000000492040                Curl_conncache_foreach
                0x000000000049217c                Curl_conncache_remove_conn
                0x00000000004921ec                Curl_conncache_find_bundle
                0x000000000049223c                Curl_conncache_add_conn
                0x0000000000492348                Curl_conncache_destroy
                0x0000000000492398                Curl_conncache_init
 .text          0x0000000000492430      0x7b0 /home/ql_xu/develop/trunk/uClinux-dist/user/curl-7.36.0/lib/.libs/libcurl.a(libcurl_la-pipeline.o)
                0x00000000004924ac                Curl_pipeline_set_server_blacklist
                0x0000000000492598                Curl_pipeline_server_blacklisted
                0x0000000000492694                Curl_pipeline_set_site_blacklist
                0x0000000000492870                Curl_pipeline_site_blacklisted
                0x000000000049293c                Curl_move_handle_from_send_to_recv_pipe
                0x00000000004929c8                Curl_add_handle_to_pipeline
                0x0000000000492a54                Curl_pipeline_penalized
 .text          0x0000000000492be0      0x1d0 /home/ql_xu/develop/trunk/uClinux-dist/user/curl-7.36.0/lib/.libs/libcurl.a(libcurl_la-timeval.o)
                0x0000000000492be0                curlx_tvdiff
                0x0000000000492c28                curlx_tvdiff_secs
                0x0000000000492cfc                Curl_tvlong
                0x0000000000492d0c                curlx_tvnow
 .text          0x0000000000492db0      0xc70 /home/ql_xu/develop/trunk/uClinux-dist/user/curl-7.36.0/lib/.libs/libcurl.a(libcurl_la-hostip.o)
                0x0000000000492db0                Curl_num_addresses
                0x0000000000492e5c                Curl_resolv_unlock
                0x0000000000492fd8                Curl_hostcache_clean
                0x0000000000492ff4                Curl_mk_dnscache
                0x0000000000493030                Curl_hostcache_prune
                0x00000000004930bc                Curl_cache_addr
                0x0000000000493204                Curl_loadhostpairs
                0x00000000004933e8                Curl_resolv
                0x0000000000493670                Curl_resolv_timeout
                0x00000000004938fc                Curl_printable_address
                0x000000000049392c                Curl_global_host_cache_dtor
                0x0000000000493978                Curl_global_host_cache_init
 .text          0x0000000000493a20     0x1270 /home/ql_xu/develop/trunk/uClinux-dist/user/curl-7.36.0/lib/.libs/libcurl.a(libcurl_la-progress.o)
                0x0000000000493a20                Curl_pgrsResetTimesSizes
                0x0000000000493a68                Curl_pgrsSetDownloadCounter
                0x0000000000493a74                Curl_pgrsSetUploadCounter
                0x0000000000493a80                Curl_pgrsSetDownloadSize
                0x0000000000493ab0                Curl_pgrsSetUploadSize
                0x0000000000493ae0                Curl_pgrsStartNow
                0x0000000000493fb4                Curl_pgrsUpdate
                0x0000000000494a6c                Curl_pgrsDone
                0x0000000000494adc                Curl_pgrsTime
 .text          0x0000000000494c90     0x1ef0 /home/ql_xu/develop/trunk/uClinux-dist/user/curl-7.36.0/lib/.libs/libcurl.a(libcurl_la-cookie.o)
                0x0000000000494dd0                Curl_cookie_freelist
                0x0000000000494e40                Curl_cookie_clearall
                0x0000000000494e78                Curl_cookie_clearsess
                0x0000000000494f20                Curl_cookie_cleanup
                0x00000000004951f8                Curl_cookie_list
                0x000000000049536c                Curl_cookie_getlist
                0x000000000049599c                Curl_cookie_add
                0x00000000004966a8                Curl_cookie_init
                0x00000000004968a4                Curl_cookie_loadfiles
                0x0000000000496934                Curl_flush_cookies
 .text          0x0000000000496b80     0x4ff0 /home/ql_xu/develop/trunk/uClinux-dist/user/curl-7.36.0/lib/.libs/libcurl.a(libcurl_la-http.o)
                0x0000000000496b80                Curl_http_setup_conn
                0x0000000000496bd4                Curl_add_buffer_init
                0x0000000000496eb8                Curl_add_buffer
                0x00000000004970f0                Curl_checkheaders
                0x0000000000497184                Curl_compareheader
                0x00000000004972e8                Curl_copy_header_value
                0x00000000004976e4                Curl_http_auth_act
                0x0000000000497ab8                Curl_http_done
                0x0000000000497cc0                Curl_http_connect
                0x0000000000497d30                Curl_add_bufferf
                0x0000000000497ef4                Curl_add_timecondition
                0x0000000000498068                Curl_add_custom_headers
                0x00000000004982f4                Curl_add_buffer_send
                0x0000000000498568                Curl_http_input_auth
                0x0000000000498760                Curl_http_readwrite_headers
                0x0000000000499ef4                Curl_http_output_auth
                0x000000000049a0a4                Curl_http
 .text          0x000000000049bb70      0xeb0 /home/ql_xu/develop/trunk/uClinux-dist/user/curl-7.36.0/lib/.libs/libcurl.a(libcurl_la-sendf.o)
                0x000000000049bb70                Curl_write
                0x000000000049bcc4                Curl_debug
                0x000000000049bdd8                Curl_read
                0x000000000049c05c                Curl_read_plain
                0x000000000049c0dc                Curl_sendf
                0x000000000049c21c                Curl_failf
                0x000000000049c304                Curl_client_write
                0x000000000049c728                Curl_recv_plain
                0x000000000049c848                Curl_send_plain
                0x000000000049c96c                Curl_write_plain
                0x000000000049c9a4                Curl_infof
 .text          0x000000000049ca20     0x6790 /home/ql_xu/develop/trunk/uClinux-dist/user/curl-7.36.0/lib/.libs/libcurl.a(libcurl_la-url.o)
                0x000000000049ca20                Curl_freeset
                0x000000000049cb4c                Curl_init_userdefined
                0x000000000049cc64                Curl_open
                0x000000000049cdb4                Curl_protocol_getsock
                0x000000000049cdd4                Curl_doing_getsock
                0x000000000049cdfc                Curl_protocol_connecting
                0x000000000049ce38                Curl_protocol_doing
                0x000000000049ce7c                Curl_free_request_state
                0x000000000049ceb8                Curl_do_more
                0x000000000049cf70                Curl_do
                0x000000000049d090                Curl_verboseconnect
                0x000000000049d384                Curl_isPipeliningEnabled
                0x000000000049e090                Curl_dupset
                0x000000000049e944                Curl_setup_conn
                0x000000000049ead0                Curl_protocol_connect
                0x000000000049ebbc                Curl_connected_proxy
                0x000000000049ec88                Curl_removeHandleFromPipeline
                0x000000000049ece8                Curl_getoff_all_pipelines
                0x000000000049ede0                Curl_addHandleToPipeline
                0x000000000049ee14                Curl_setopt
                0x00000000004a0b68                Curl_close
                0x00000000004a0e34                Curl_disconnect
                0x00000000004a0f98                Curl_done
                0x00000000004a30d0                Curl_connect
 .text          0x00000000004a31b0      0x560 /home/ql_xu/develop/trunk/uClinux-dist/user/curl-7.36.0/lib/.libs/libcurl.a(libcurl_la-dict.o)
 .text          0x00000000004a3710      0x220 /home/ql_xu/develop/trunk/uClinux-dist/user/curl-7.36.0/lib/.libs/libcurl.a(libcurl_la-if2ip.o)
                0x00000000004a3710                Curl_if2ip
                0x00000000004a3884                Curl_if_is_interface_name
 .text          0x00000000004a3930      0x140 /home/ql_xu/develop/trunk/uClinux-dist/user/curl-7.36.0/lib/.libs/libcurl.a(libcurl_la-speedcheck.o)
                0x00000000004a3930                Curl_speedcheck
                0x00000000004a3a58                Curl_speedinit
 .text          0x00000000004a3a70       0x50 /home/ql_xu/develop/trunk/uClinux-dist/user/curl-7.36.0/lib/.libs/libcurl.a(libcurl_la-getenv.o)
                0x00000000004a3a70                curl_getenv
 .text          0x00000000004a3ac0     0x1e00 /home/ql_xu/develop/trunk/uClinux-dist/user/curl-7.36.0/lib/.libs/libcurl.a(libcurl_la-telnet.o)
 .text          0x00000000004a58c0      0x380 /home/ql_xu/develop/trunk/uClinux-dist/user/curl-7.36.0/lib/.libs/libcurl.a(libcurl_la-netrc.o)
                0x00000000004a58c0                Curl_parsenetrc
 .text          0x00000000004a5c40      0x650 /home/ql_xu/develop/trunk/uClinux-dist/user/curl-7.36.0/lib/.libs/libcurl.a(libcurl_la-getinfo.o)
                0x00000000004a5c40                Curl_initinfo
                0x00000000004a5cf8                Curl_getinfo
 .text          0x00000000004a6290     0x25d0 /home/ql_xu/develop/trunk/uClinux-dist/user/curl-7.36.0/lib/.libs/libcurl.a(libcurl_la-transfer.o)
                0x00000000004a6290                Curl_single_getsock
                0x00000000004a6358                Curl_sleep_time
                0x00000000004a64fc                Curl_posttransfer
                0x00000000004a6504                Curl_setup_transfer
                0x00000000004a6698                Curl_meets_timecondition
                0x00000000004a6728                Curl_reconnect_request
                0x00000000004a67dc                Curl_follow
                0x00000000004a7030                Curl_pretransfer
                0x00000000004a71a4                Curl_readrewind
                0x00000000004a72d0                Curl_retry_request
                0x00000000004a7420                Curl_fillreadbuffer
                0x00000000004a767c                Curl_readwrite
 .text          0x00000000004a8860       0x40 /home/ql_xu/develop/trunk/uClinux-dist/user/curl-7.36.0/lib/.libs/libcurl.a(libcurl_la-strequal.o)
                0x00000000004a8860                curl_strnequal
                0x00000000004a8880                curl_strequal
 .text          0x00000000004a88a0       0xe0 /home/ql_xu/develop/trunk/uClinux-dist/user/curl-7.36.0/lib/.libs/libcurl.a(libcurl_la-wildcard.o)
                0x00000000004a88a0                Curl_wildcard_dtor
                0x00000000004a893c                Curl_wildcard_init
 .text          0x00000000004a8980      0x5b0 /home/ql_xu/develop/trunk/uClinux-dist/user/curl-7.36.0/lib/.libs/libcurl.a(libcurl_la-http_chunks.o)
                0x00000000004a8980                Curl_httpchunk_init
                0x00000000004a8990                Curl_chunked_strerror
                0x00000000004a89c4                Curl_httpchunk_read
 .text          0x00000000004a8f30      0x380 /home/ql_xu/develop/trunk/uClinux-dist/user/curl-7.36.0/lib/.libs/libcurl.a(libcurl_la-llist.o)
                0x00000000004a8f30                Curl_llist_alloc
                0x00000000004a8f78                Curl_llist_insert_next
                0x00000000004a9064                Curl_llist_remove
                0x00000000004a9134                Curl_llist_destroy
                0x00000000004a91a0                Curl_llist_count
                0x00000000004a91ac                Curl_llist_move
 .text          0x00000000004a92b0      0x9b0 /home/ql_xu/develop/trunk/uClinux-dist/user/curl-7.36.0/lib/.libs/libcurl.a(libcurl_la-hash.o)
                0x00000000004a9330                Curl_hash_pick
                0x00000000004a9428                Curl_hash_str
                0x00000000004a9474                Curl_hash_start_iterate
                0x00000000004a9484                Curl_hash_next_element
                0x00000000004a9528                Curl_str_key_compare
                0x00000000004a9568                Curl_hash_clean_with_criterium
                0x00000000004a9650                Curl_hash_delete
                0x00000000004a9740                Curl_hash_clean
                0x00000000004a97d8                Curl_hash_destroy
                0x00000000004a9820                Curl_hash_add
                0x00000000004a9a04                Curl_hash_init
                0x00000000004a9ba4                Curl_hash_alloc
 .text          0x00000000004a9c60      0x400 /home/ql_xu/develop/trunk/uClinux-dist/user/curl-7.36.0/lib/.libs/libcurl.a(libcurl_la-share.o)
                0x00000000004a9c60                curl_share_init
                0x00000000004a9c9c                Curl_share_lock
                0x00000000004a9d0c                Curl_share_unlock
                0x00000000004a9d7c                curl_share_cleanup
                0x00000000004a9e60                curl_share_setopt
 .text          0x00000000004aa060      0xd80 /home/ql_xu/develop/trunk/uClinux-dist/user/curl-7.36.0/lib/.libs/libcurl.a(libcurl_la-http_digest.o)
                0x00000000004aa134                Curl_digest_cleanup
                0x00000000004aa1d4                Curl_output_digest
                0x00000000004aa878                Curl_input_digest
 .text          0x00000000004aade0     0x12f0 /home/ql_xu/develop/trunk/uClinux-dist/user/curl-7.36.0/lib/.libs/libcurl.a(libcurl_la-md5.o)
                0x00000000004aae1c                Curl_MD5_init
                0x00000000004aaeac                Curl_MD5_update
                0x00000000004aaed8                Curl_MD5_final
                0x00000000004ac030                Curl_md5it
 .text          0x00000000004ac0d0      0x170 /home/ql_xu/develop/trunk/uClinux-dist/user/curl-7.36.0/lib/.libs/libcurl.a(libcurl_la-hostip4.o)
                0x00000000004ac0d0                Curl_ipvalid
                0x00000000004ac0e0                Curl_ipv4_resolve_r
                0x00000000004ac1c4                Curl_getaddrinfo
 .text          0x00000000004ac240       0x20 /home/ql_xu/develop/trunk/uClinux-dist/user/curl-7.36.0/lib/.libs/libcurl.a(libcurl_la-hostsyn.o)
                0x00000000004ac240                Curl_set_dns_servers
                0x00000000004ac248                Curl_set_dns_interface
                0x00000000004ac250                Curl_set_dns_local_ip4
                0x00000000004ac258                Curl_set_dns_local_ip6
 .text          0x00000000004ac260      0x810 /home/ql_xu/develop/trunk/uClinux-dist/user/curl-7.36.0/lib/.libs/libcurl.a(libcurl_la-parsedate.o)
                0x00000000004ac260                Curl_gmtime
                0x00000000004ac28c                curl_getdate
 .text          0x00000000004aca70     0x1c90 /home/ql_xu/develop/trunk/uClinux-dist/user/curl-7.36.0/lib/.libs/libcurl.a(libcurl_la-tftp.o)
 .text          0x00000000004ae700     0x1030 /home/ql_xu/develop/trunk/uClinux-dist/user/curl-7.36.0/lib/.libs/libcurl.a(libcurl_la-socks.o)
                0x00000000004ae700                Curl_blockread_all
                0x00000000004ae874                Curl_SOCKS5
                0x00000000004af218                Curl_SOCKS4
 .text          0x00000000004af730      0x370 /home/ql_xu/develop/trunk/uClinux-dist/user/curl-7.36.0/lib/.libs/libcurl.a(libcurl_la-rawstr.o)
                0x00000000004af730                Curl_raw_toupper
                0x00000000004af838                Curl_raw_equal
                0x00000000004af95c                Curl_raw_nequal
                0x00000000004afa40                Curl_strntoupper
 .text          0x00000000004afaa0      0x690 /home/ql_xu/develop/trunk/uClinux-dist/user/curl-7.36.0/lib/.libs/libcurl.a(libcurl_la-curl_addrinfo.o)
                0x00000000004afaa0                Curl_freeaddrinfo
                0x00000000004afb1c                Curl_he2ai
                0x00000000004afd2c                Curl_ip2addr
                0x00000000004afe74                Curl_str2addr
                0x00000000004afef0                Curl_getaddrinfo_ex
 .text          0x00000000004b0130       0x60 /home/ql_xu/develop/trunk/uClinux-dist/user/curl-7.36.0/lib/.libs/libcurl.a(libcurl_la-curl_memrchr.o)
                0x00000000004b0130                Curl_memrchr
 .text          0x00000000004b0190     0x30e0 /home/ql_xu/develop/trunk/uClinux-dist/user/curl-7.36.0/lib/.libs/libcurl.a(libcurl_la-imap.o)
 .text          0x00000000004b3270     0x2170 /home/ql_xu/develop/trunk/uClinux-dist/user/curl-7.36.0/lib/.libs/libcurl.a(libcurl_la-pop3.o)
                0x00000000004b4200                Curl_pop3_write
 .text          0x00000000004b53e0     0x2430 /home/ql_xu/develop/trunk/uClinux-dist/user/curl-7.36.0/lib/.libs/libcurl.a(libcurl_la-smtp.o)
                0x00000000004b75a0                Curl_smtp_escape_eob
 .text          0x00000000004b7810      0x990 /home/ql_xu/develop/trunk/uClinux-dist/user/curl-7.36.0/lib/.libs/libcurl.a(libcurl_la-pingpong.o)
                0x00000000004b7810                Curl_pp_getsock
                0x00000000004b7840                Curl_pp_disconnect
                0x00000000004b7880                Curl_pp_moredata
                0x00000000004b78b0                Curl_pp_flushsend
                0x00000000004b7968                Curl_pp_init
                0x00000000004b79bc                Curl_pp_readresp
                0x00000000004b7d64                Curl_pp_vsendf
                0x00000000004b7f2c                Curl_pp_sendf
                0x00000000004b7f58                Curl_pp_state_timeout
                0x00000000004b8000                Curl_pp_statemach
 .text          0x00000000004b81a0     0x1270 /home/ql_xu/develop/trunk/uClinux-dist/user/curl-7.36.0/lib/.libs/libcurl.a(libcurl_la-rtsp.o)
                0x00000000004b90f4                Curl_rtsp_parseheader
                0x00000000004b9398                Curl_rtsp_connisdead
 .text          0x00000000004b9410       0x60 /home/ql_xu/develop/trunk/uClinux-dist/user/curl-7.36.0/lib/.libs/libcurl.a(libcurl_la-curl_gethostname.o)
                0x00000000004b9410                Curl_gethostname
 .text          0x00000000004b9470      0x2b0 /home/ql_xu/develop/trunk/uClinux-dist/user/curl-7.36.0/lib/.libs/libcurl.a(libcurl_la-gopher.o)
 .text          0x00000000004b9720      0xfd0 /home/ql_xu/develop/trunk/uClinux-dist/user/curl-7.36.0/lib/.libs/libcurl.a(libcurl_la-http_proxy.o)
                0x00000000004b9720                Curl_proxyCONNECT
                0x00000000004ba648                Curl_proxy_connect
 .text          0x00000000004ba6f0      0xc70 /home/ql_xu/develop/trunk/uClinux-dist/user/curl-7.36.0/lib/.libs/libcurl.a(libcurl_la-curl_sasl.o)
                0x00000000004ba6f0                Curl_sasl_cleanup
                0x00000000004ba6f8                Curl_sasl_create_xoauth2_message
                0x00000000004ba794                Curl_sasl_create_login_message
                0x00000000004ba84c                Curl_sasl_create_digest_md5_message
                0x00000000004bad80                Curl_sasl_decode_cram_md5_message
                0x00000000004baed0                Curl_sasl_decode_digest_md5_message
                0x00000000004bb034                Curl_sasl_create_cram_md5_message
                0x00000000004bb1e0                Curl_sasl_create_plain_message
 .text          0x00000000004bb360      0x220 /home/ql_xu/develop/trunk/uClinux-dist/user/curl-7.36.0/lib/.libs/libcurl.a(libcurl_la-bundles.o)
                0x00000000004bb368                Curl_bundle_remove_conn
                0x00000000004bb3f8                Curl_bundle_add_conn
                0x00000000004bb468                Curl_bundle_destroy
                0x00000000004bb4c0                Curl_bundle_create
 .text          0x00000000004bb580      0x2a0 /home/ql_xu/develop/trunk/uClinux-dist/user/curl-7.36.0/lib/.libs/libcurl.a(libcurl_la-dotdot.o)
                0x00000000004bb580                Curl_dedotdotify
 .text          0x00000000004bb820      0x400 /home/ql_xu/develop/trunk/uClinux-dist/user/curl-7.36.0/lib/.libs/libcurl.a(libcurl_la-vtls.o)
                0x00000000004bb820                Curl_clone_ssl_config
                0x00000000004bb980                Curl_free_ssl_config
                0x00000000004bba2c                Curl_rand
                0x00000000004bbb44                Curl_ssl_config_matches
 .text          0x00000000004bbc20      0xb20 /home/ql_xu/develop/trunk/uClinux-dist/user/curl-7.36.0/lib/.libs/libcurl.a(libcurl_la-file.o)
 .text          0x00000000004bc740      0x560 /home/ql_xu/develop/trunk/uClinux-dist/user/curl-7.36.0/lib/.libs/libcurl.a(libcurl_la-base64.o)
                0x00000000004bc740                Curl_base64_encode
                0x00000000004bc9a0                Curl_base64_decode
 .text          0x00000000004bcca0     0x1b60 /home/ql_xu/develop/trunk/uClinux-dist/user/curl-7.36.0/lib/.libs/libcurl.a(libcurl_la-formdata.o)
                0x00000000004bcca0                Curl_formclean
                0x00000000004bcd2c                curl_formfree
                0x00000000004bce14                Curl_FormInit
                0x00000000004bce3c                Curl_formpostheader
                0x00000000004bcf48                Curl_FormReader
                0x00000000004bd5dc                Curl_getformdata
                0x00000000004bdbc0                curl_formget
                0x00000000004bdd18                curl_formadd
 .text          0x00000000004be800     0x5970 /home/ql_xu/develop/trunk/uClinux-dist/user/curl-7.36.0/lib/.libs/libcurl.a(libcurl_la-ftp.o)
                0x00000000004c10a0                Curl_ftpsendf
                0x00000000004c11a4                Curl_GetFTPResponse
 .text          0x00000000004c4170       0xc0 /home/ql_xu/develop/trunk/uClinux-dist/user/curl-7.36.0/lib/.libs/libcurl.a(libcurl_la-fileinfo.o)
                0x00000000004c4170                Curl_fileinfo_dtor
                0x00000000004c41e4                Curl_fileinfo_alloc
 .text          0x00000000004c4230     0x1340 /home/ql_xu/develop/trunk/uClinux-dist/user/curl-7.36.0/lib/.libs/libcurl.a(libcurl_la-ftplistparser.o)
                0x00000000004c4230                Curl_ftp_parselist_data_alloc
                0x00000000004c4248                Curl_ftp_parselist_data_free
                0x00000000004c4284                Curl_ftp_parselist_geterror
                0x00000000004c4470                Curl_ftp_parselist
 .text          0x00000000004c5570      0x290 /home/ql_xu/develop/trunk/uClinux-dist/user/curl-7.36.0/lib/.libs/libcurl.a(libcurl_la-hmac.o)
                0x00000000004c5570                Curl_HMAC_init
                0x00000000004c5734                Curl_HMAC_update
                0x00000000004c5760                Curl_HMAC_final
 .text          0x00000000004c5800      0xc00 /home/ql_xu/develop/trunk/uClinux-dist/user/curl-7.36.0/lib/.libs/libcurl.a(libcurl_la-curl_fnmatch.o)
                0x00000000004c63d4                Curl_fnmatch
 .text          0x00000000004c6400     0x3be0 /home/ql_xu/develop/trunk/uClinux-dist/lib/zlib/libz.a(deflate.o)
                0x00000000004c6400                deflateInit_
                0x00000000004c6488                deflateInit2_
                0x00000000004c6974                deflateSetDictionary
                0x00000000004c6c3c                deflateReset
                0x00000000004c6d9c                deflateParams
                0x00000000004c71d8                deflate
                0x00000000004c7848                deflateEnd
                0x00000000004c7a38                deflateCopy
 .text          0x00000000004c9fe0     0x4da0 /home/ql_xu/develop/trunk/uClinux-dist/lib/zlib/libz.a(trees.o)
                0x00000000004ca000                _tr_init
                0x00000000004ccb3c                _tr_stored_block
                0x00000000004ccd3c                _tr_align
                0x00000000004cd458                _tr_flush_block
                0x00000000004cda34                _tr_tally
 .text          0x00000000004ced80      0x140 /home/ql_xu/develop/trunk/uClinux-dist/lib/zlib/libz.a(zutil.o)
                0x00000000004ced80                zlibVersion
                0x00000000004cedb4                zError
                0x00000000004cee00                zcalloc
                0x00000000004cee60                zcfree
 .text          0x00000000004ceec0     0x12a0 /home/ql_xu/develop/trunk/uClinux-dist/lib/zlib/libz.a(inflate.o)
                0x00000000004ceec0                inflateReset
                0x00000000004cefa4                inflateEnd
                0x00000000004cf08c                inflateInit2_
                0x00000000004cf308                inflateInit_
                0x00000000004cf370                inflate
                0x00000000004cfd10                inflateSetDictionary
                0x00000000004cfe80                inflateSync
                0x00000000004d00bc                inflateSyncPoint
 .text          0x00000000004d0160     0x22f0 /home/ql_xu/develop/trunk/uClinux-dist/lib/zlib/libz.a(infblock.o)
                0x00000000004d0160                inflate_blocks_reset
                0x00000000004d02d4                inflate_blocks_new
                0x00000000004d04d4                inflate_blocks
                0x00000000004d229c                inflate_blocks_free
                0x00000000004d2380                inflate_set_dictionary
                0x00000000004d2414                inflate_blocks_sync_point
 .text          0x00000000004d2450      0xd90 /home/ql_xu/develop/trunk/uClinux-dist/lib/zlib/libz.a(inftrees.o)
                0x00000000004d2cd0                inflate_trees_bits
                0x00000000004d2e48                inflate_trees_dynamic
                0x00000000004d3160                inflate_trees_fixed
 .text          0x00000000004d31e0     0x1560 /home/ql_xu/develop/trunk/uClinux-dist/lib/zlib/libz.a(infcodes.o)
                0x00000000004d31e0                inflate_codes_new
                0x00000000004d3294                inflate_codes
                0x00000000004d46e0                inflate_codes_free
 .text          0x00000000004d4740      0x330 /home/ql_xu/develop/trunk/uClinux-dist/lib/zlib/libz.a(infutil.o)
                0x00000000004d4740                inflate_flush
 .text          0x00000000004d4a70      0xb50 /home/ql_xu/develop/trunk/uClinux-dist/lib/zlib/libz.a(inffast.o)
                0x00000000004d4a70                inflate_fast
 .text          0x00000000004d55c0      0x400 /home/ql_xu/develop/trunk/uClinux-dist/lib/zlib/libz.a(adler32.o)
                0x00000000004d55c0                adler32
 .text.stub.1   0x00000000004d59c0       0x10 linker stubs
                0x00000000004d59c8                .pic.__fixunssfsi
 .text          0x00000000004d59d0       0x90 /rsdk-4.4.7-5281-EB-2.6.30-0.9.33-m32utb-140606/bin/../lib/gcc/mips-linux-uclibc/4.4.7/5281/libgcc.a(_fixunssfsi.o)
                0x00000000004d59d0                __fixunssfsi
 .text.stub.27  0x00000000004d5a60       0x10 linker stubs
                0x00000000004d5a68                .pic.__fixunsdfsi
 .text          0x00000000004d5a70       0xb0 /rsdk-4.4.7-5281-EB-2.6.30-0.9.33-m32utb-140606/bin/../lib/gcc/mips-linux-uclibc/4.4.7/5281/libgcc.a(_fixunsdfsi.o)
                0x00000000004d5a70                __fixunsdfsi
 .text.stub.34  0x00000000004d5b20       0x10 linker stubs
                0x00000000004d5b28                .pic.__fixdfdi
 .text          0x00000000004d5b30       0xa0 /rsdk-4.4.7-5281-EB-2.6.30-0.9.33-m32utb-140606/bin/../lib/gcc/mips-linux-uclibc/4.4.7/5281/libgcc.a(_fixdfdi.o)
                0x00000000004d5b30                __fixdfdi
 .text.stub.33  0x00000000004d5bd0       0x10 linker stubs
                0x00000000004d5bd8                .pic.__fixunsdfdi
 .text          0x00000000004d5be0       0xe0 /rsdk-4.4.7-5281-EB-2.6.30-0.9.33-m32utb-140606/bin/../lib/gcc/mips-linux-uclibc/4.4.7/5281/libgcc.a(_fixunsdfdi.o)
                0x00000000004d5be0                __fixunsdfdi
 .text.stub.11  0x00000000004d5cc0       0x10 linker stubs
                0x00000000004d5cc8                .pic.__floatdidf
 .text          0x00000000004d5cd0       0xa0 /rsdk-4.4.7-5281-EB-2.6.30-0.9.33-m32utb-140606/bin/../lib/gcc/mips-linux-uclibc/4.4.7/5281/libgcc.a(_floatdidf.o)
                0x00000000004d5cd0                __floatdidf
 .text.stub.22  0x00000000004d5d70       0x10 linker stubs
                0x00000000004d5d78                .pic.__floatundisf
 .text          0x00000000004d5d80       0xd0 /rsdk-4.4.7-5281-EB-2.6.30-0.9.33-m32utb-140606/bin/../lib/gcc/mips-linux-uclibc/4.4.7/5281/libgcc.a(_floatundisf.o)
                0x00000000004d5d80                __floatundisf
 .text.stub.31  0x00000000004d5e50       0x10 linker stubs
                0x00000000004d5e58                .pic.__floatundidf
 .text          0x00000000004d5e60       0xa0 /rsdk-4.4.7-5281-EB-2.6.30-0.9.33-m32utb-140606/bin/../lib/gcc/mips-linux-uclibc/4.4.7/5281/libgcc.a(_floatundidf.o)
                0x00000000004d5e60                __floatundidf
 .text.stub.6   0x00000000004d5f00       0x10 linker stubs
                0x00000000004d5f08                .pic.__divdi3
 .text          0x00000000004d5f10      0x5e0 /rsdk-4.4.7-5281-EB-2.6.30-0.9.33-m32utb-140606/bin/../lib/gcc/mips-linux-uclibc/4.4.7/5281/libgcc.a(_divdi3.o)
                0x00000000004d5f10                __divdi3
 .text.stub.15  0x00000000004d64f0       0x10 linker stubs
                0x00000000004d64f8                .pic.__udivdi3
 .text          0x00000000004d6500      0x580 /rsdk-4.4.7-5281-EB-2.6.30-0.9.33-m32utb-140606/bin/../lib/gcc/mips-linux-uclibc/4.4.7/5281/libgcc.a(_udivdi3.o)
                0x00000000004d6500                __udivdi3
 .text.stub.7   0x00000000004d6a80       0x10 linker stubs
                0x00000000004d6a88                .pic.__umoddi3
 .text          0x00000000004d6a90      0x550 /rsdk-4.4.7-5281-EB-2.6.30-0.9.33-m32utb-140606/bin/../lib/gcc/mips-linux-uclibc/4.4.7/5281/libgcc.a(_umoddi3.o)
                0x00000000004d6a90                __umoddi3
 .text.stub.37  0x00000000004d6fe0       0x10 linker stubs
                0x00000000004d6fe8                .pic.__addsf3
 .text          0x00000000004d6ff0      0x530 /rsdk-4.4.7-5281-EB-2.6.30-0.9.33-m32utb-140606/bin/../lib/gcc/mips-linux-uclibc/4.4.7/5281/libgcc.a(addsf3.o)
                0x00000000004d6ff0                __addsf3
 .text.stub.4   0x00000000004d7520       0x10 linker stubs
                0x00000000004d7528                .pic.__divsf3
 .text          0x00000000004d7530      0x3b0 /rsdk-4.4.7-5281-EB-2.6.30-0.9.33-m32utb-140606/bin/../lib/gcc/mips-linux-uclibc/4.4.7/5281/libgcc.a(divsf3.o)
                0x00000000004d7530                __divsf3
 .text.stub.19  0x00000000004d78e0       0x10 linker stubs
                0x00000000004d78e8                .pic.__gtsf2
 .text          0x00000000004d78f0       0xf0 /rsdk-4.4.7-5281-EB-2.6.30-0.9.33-m32utb-140606/bin/../lib/gcc/mips-linux-uclibc/4.4.7/5281/libgcc.a(gesf2.o)
                0x00000000004d78f0                __gtsf2
                0x00000000004d78f0                __gesf2
 .text.stub.8   0x00000000004d79e0       0x10 linker stubs
                0x00000000004d79e8                .pic.__ltsf2
 .text          0x00000000004d79f0       0xf0 /rsdk-4.4.7-5281-EB-2.6.30-0.9.33-m32utb-140606/bin/../lib/gcc/mips-linux-uclibc/4.4.7/5281/libgcc.a(lesf2.o)
                0x00000000004d79f0                __ltsf2
                0x00000000004d79f0                __lesf2
 .text.stub.20  0x00000000004d7ae0       0x10 linker stubs
                0x00000000004d7ae8                .pic.__mulsf3
 .text          0x00000000004d7af0      0x300 /rsdk-4.4.7-5281-EB-2.6.30-0.9.33-m32utb-140606/bin/../lib/gcc/mips-linux-uclibc/4.4.7/5281/libgcc.a(mulsf3.o)
                0x00000000004d7af0                __mulsf3
 .text          0x00000000004d7df0      0x540 /rsdk-4.4.7-5281-EB-2.6.30-0.9.33-m32utb-140606/bin/../lib/gcc/mips-linux-uclibc/4.4.7/5281/libgcc.a(subsf3.o)
                0x00000000004d7df0                __subsf3
 .text.stub.3   0x00000000004d8330       0x10 linker stubs
                0x00000000004d8338                .pic.__fixsfsi
 .text          0x00000000004d8340       0x80 /rsdk-4.4.7-5281-EB-2.6.30-0.9.33-m32utb-140606/bin/../lib/gcc/mips-linux-uclibc/4.4.7/5281/libgcc.a(fixsfsi.o)
                0x00000000004d8340                __fixsfsi
 .text.stub.18  0x00000000004d83c0       0x10 linker stubs
                0x00000000004d83c8                .pic.__floatsisf
 .text          0x00000000004d83d0      0x140 /rsdk-4.4.7-5281-EB-2.6.30-0.9.33-m32utb-140606/bin/../lib/gcc/mips-linux-uclibc/4.4.7/5281/libgcc.a(floatsisf.o)
                0x00000000004d83d0                __floatsisf
 .text.stub.23  0x00000000004d8510       0x10 linker stubs
                0x00000000004d8518                .pic.__floatunsisf
 .text          0x00000000004d8520      0x120 /rsdk-4.4.7-5281-EB-2.6.30-0.9.33-m32utb-140606/bin/../lib/gcc/mips-linux-uclibc/4.4.7/5281/libgcc.a(floatunsisf.o)
                0x00000000004d8520                __floatunsisf
 .text.stub.5   0x00000000004d8640       0x10 linker stubs
                0x00000000004d8648                .pic.__adddf3
 .text          0x00000000004d8650      0x8f0 /rsdk-4.4.7-5281-EB-2.6.30-0.9.33-m32utb-140606/bin/../lib/gcc/mips-linux-uclibc/4.4.7/5281/libgcc.a(adddf3.o)
                0x00000000004d8650                __adddf3
 .text.stub.29  0x00000000004d8f40       0x10 linker stubs
                0x00000000004d8f48                .pic.__divdf3
 .text          0x00000000004d8f50      0x740 /rsdk-4.4.7-5281-EB-2.6.30-0.9.33-m32utb-140606/bin/../lib/gcc/mips-linux-uclibc/4.4.7/5281/libgcc.a(divdf3.o)
                0x00000000004d8f50                __divdf3
 .text.stub.16  0x00000000004d9690       0x10 linker stubs
                0x00000000004d9698                .pic.__gedf2
 .text          0x00000000004d96a0      0x130 /rsdk-4.4.7-5281-EB-2.6.30-0.9.33-m32utb-140606/bin/../lib/gcc/mips-linux-uclibc/4.4.7/5281/libgcc.a(gedf2.o)
                0x00000000004d96a0                __gedf2
                0x00000000004d96a0                __gtdf2
 .text.stub.14  0x00000000004d97d0       0x10 linker stubs
                0x00000000004d97d8                .pic.__ltdf2
 .text          0x00000000004d97e0      0x130 /rsdk-4.4.7-5281-EB-2.6.30-0.9.33-m32utb-140606/bin/../lib/gcc/mips-linux-uclibc/4.4.7/5281/libgcc.a(ledf2.o)
                0x00000000004d97e0                __ltdf2
                0x00000000004d97e0                __ledf2
 .text.stub.24  0x00000000004d9910       0x10 linker stubs
                0x00000000004d9918                .pic.__muldf3
 .text          0x00000000004d9920      0x510 /rsdk-4.4.7-5281-EB-2.6.30-0.9.33-m32utb-140606/bin/../lib/gcc/mips-linux-uclibc/4.4.7/5281/libgcc.a(muldf3.o)
                0x00000000004d9920                __muldf3
 .text.stub.25  0x00000000004d9e30       0x10 linker stubs
                0x00000000004d9e38                .pic.__subdf3
 .text          0x00000000004d9e40      0x900 /rsdk-4.4.7-5281-EB-2.6.30-0.9.33-m32utb-140606/bin/../lib/gcc/mips-linux-uclibc/4.4.7/5281/libgcc.a(subdf3.o)
                0x00000000004d9e40                __subdf3
 .text.stub.9   0x00000000004da740       0x10 linker stubs
                0x00000000004da748                .pic.__fixdfsi
 .text          0x00000000004da750       0x90 /rsdk-4.4.7-5281-EB-2.6.30-0.9.33-m32utb-140606/bin/../lib/gcc/mips-linux-uclibc/4.4.7/5281/libgcc.a(fixdfsi.o)
                0x00000000004da750                __fixdfsi
 .text.stub.30  0x00000000004da7e0       0x10 linker stubs
                0x00000000004da7e8                .pic.__floatsidf
 .text          0x00000000004da7f0       0xd0 /rsdk-4.4.7-5281-EB-2.6.30-0.9.33-m32utb-140606/bin/../lib/gcc/mips-linux-uclibc/4.4.7/5281/libgcc.a(floatsidf.o)
                0x00000000004da7f0                __floatsidf
 .text.stub.35  0x00000000004da8c0       0x10 linker stubs
                0x00000000004da8c8                .pic.__floatunsidf
 .text          0x00000000004da8d0       0xb0 /rsdk-4.4.7-5281-EB-2.6.30-0.9.33-m32utb-140606/bin/../lib/gcc/mips-linux-uclibc/4.4.7/5281/libgcc.a(floatunsidf.o)
                0x00000000004da8d0                __floatunsidf
 .text.stub.36  0x00000000004da980       0x10 linker stubs
                0x00000000004da988                .pic.__extendsfdf2
 .text          0x00000000004da990      0x100 /rsdk-4.4.7-5281-EB-2.6.30-0.9.33-m32utb-140606/bin/../lib/gcc/mips-linux-uclibc/4.4.7/5281/libgcc.a(extendsfdf2.o)
                0x00000000004da990                __extendsfdf2
 .text.stub.26  0x00000000004daa90       0x10 linker stubs
                0x00000000004daa98                .pic.__truncdfsf2
 .text          0x00000000004daaa0      0x1c0 /rsdk-4.4.7-5281-EB-2.6.30-0.9.33-m32utb-140606/bin/../lib/gcc/mips-linux-uclibc/4.4.7/5281/libgcc.a(truncdfsf2.o)
                0x00000000004daaa0                __truncdfsf2
 .text          0x00000000004dac60        0x0 /rsdk-4.4.7-5281-EB-2.6.30-0.9.33-m32utb-140606/bin/../lib/gcc/mips-linux-uclibc/4.4.7/5281/libgcc.a(_clz.o)
 .text          0x00000000004dac60       0x60 /rsdk-4.4.7-5281-EB-2.6.30-0.9.33-m32utb-140606/bin/../lib/gcc/mips-linux-uclibc/4.4.7/5281/libgcc.a(_clzsi2.o)
                0x00000000004dac60                __clzsi2
 .text          0x00000000004dacc0       0x50 /rsdk-4.4.7-5281-EB-2.6.30-0.9.33-m32utb-140606/bin/../lib/gcc/mips-linux-uclibc/4.4.7/5281/crtend.o
 .text          0x00000000004dad10        0x0 /rsdk-4.4.7-5281-EB-2.6.30-0.9.33-m32utb-140606/bin/../lib/gcc/mips-linux-uclibc/4.4.7/../../../../mips-linux-uclibc/lib/crtn.o
 *(.gnu.warning)
 *(.mips16.fn.*)
 *(.mips16.call.*)

.MIPS.stubs     0x00000000004dad10       0x20
 .MIPS.stubs    0x00000000004dad10       0x20 /rsdk-4.4.7-5281-EB-2.6.30-0.9.33-m32utb-140606/bin/../lib/gcc/mips-linux-uclibc/4.4.7/../../../../mips-linux-uclibc/lib/crt1.o
                0x00000000004dad10                __uClibc_main

.fini           0x00000000004dad30       0x38
 *(SORT(.fini))
 .fini          0x00000000004dad30       0x1c /rsdk-4.4.7-5281-EB-2.6.30-0.9.33-m32utb-140606/bin/../lib/gcc/mips-linux-uclibc/4.4.7/../../../../mips-linux-uclibc/lib/crti.o
                0x00000000004dad30                _fini
 .fini          0x00000000004dad4c       0x10 /rsdk-4.4.7-5281-EB-2.6.30-0.9.33-m32utb-140606/bin/../lib/gcc/mips-linux-uclibc/4.4.7/5281/crtbegin.o
 .fini          0x00000000004dad5c        0xc /rsdk-4.4.7-5281-EB-2.6.30-0.9.33-m32utb-140606/bin/../lib/gcc/mips-linux-uclibc/4.4.7/../../../../mips-linux-uclibc/lib/crtn.o
                0x00000000004dad68                PROVIDE (__etext, .)
                0x00000000004dad68                PROVIDE (_etext, .)
                0x00000000004dad68                PROVIDE (etext, .)

.rodata         0x00000000004dad70    0x17fb0
 *(.rodata .rodata.* .gnu.linkonce.r.*)
 .rodata.str1.4
                0x00000000004dad70      0x886 cli.o
                                        0x8e8 (size before relaxing)
 *fill*         0x00000000004db5f6        0xa 
 .rodata        0x00000000004db600      0x1d0 cli.o
 .rodata.cst8   0x00000000004db7d0       0x10 cli.o
 .rodata.cst4   0x00000000004db7e0        0x4 cli.o
 .rodata.str1.4
                0x00000000004db7e4      0x13e ../libtransmission/libtransmission.a(bencode.o)
                                        0x16c (size before relaxing)
 *fill*         0x00000000004db922        0xe 
 .rodata        0x00000000004db930       0xe0 ../libtransmission/libtransmission.a(bencode.o)
 .rodata.cst8   0x00000000004dba10        0x8 ../libtransmission/libtransmission.a(bencode.o)
 *fill*         0x00000000004dba18        0x8 
 .rodata        0x00000000004dba20      0x150 ../libtransmission/libtransmission.a(ConvertUTF.o)
 .rodata.str1.4
                0x00000000004dbb70      0x11e ../libtransmission/libtransmission.a(fdlimit.o)
                                        0x120 (size before relaxing)
 *fill*         0x00000000004dbc8e        0x2 
 .rodata.str1.4
                0x00000000004dbc90       0x72 ../libtransmission/libtransmission.a(json.o)
                                         0x78 (size before relaxing)
 *fill*         0x00000000004dbd02        0xe 
 .rodata        0x00000000004dbd10       0x30 ../libtransmission/libtransmission.a(json.o)
 .rodata        0x00000000004dbd40      0x6b0 ../libtransmission/libtransmission.a(JSON_parser.o)
 .rodata.str1.4
                0x00000000004dc3f0      0x171 ../libtransmission/libtransmission.a(net.o)
                                        0x174 (size before relaxing)
 *fill*         0x00000000004dc561        0xf 
 .rodata        0x00000000004dc570       0x50 ../libtransmission/libtransmission.a(net.o)
                0x00000000004dc570                tr_in6addr_any
                0x00000000004dc584                tr_inaddr_any
 .rodata.str1.4
                0x00000000004dc5c0      0x624 ../libtransmission/libtransmission.a(peer-io.o)
                                        0x634 (size before relaxing)
 *fill*         0x00000000004dcbe4        0x4 
 .rodata.cst8   0x00000000004dcbe8        0x8 ../libtransmission/libtransmission.a(peer-io.o)
 .rodata.str1.4
                0x00000000004dcbf0      0x19a ../libtransmission/libtransmission.a(platform.o)
                                        0x1c4 (size before relaxing)
 *fill*         0x00000000004dcd8a        0x6 
 .rodata        0x00000000004dcd90       0x10 ../libtransmission/libtransmission.a(ptrarray.o)
                0x00000000004dcd90                TR_PTR_ARRAY_INIT
 .rodata.str1.4
                0x00000000004dcda0      0x7c5 ../libtransmission/libtransmission.a(session.o)
                                        0x900 (size before relaxing)
 *fill*         0x00000000004dd565        0xb 
 .rodata        0x00000000004dd570       0x50 ../libtransmission/libtransmission.a(session.o)
 .rodata.cst8   0x00000000004dd5c0        0x8 ../libtransmission/libtransmission.a(session.o)
 .rodata.str1.4
                0x00000000004dd5c8       0x87 ../libtransmission/libtransmission.a(stats.o)
                                         0x88 (size before relaxing)
 *fill*         0x00000000004dd64f        0x1 
 .rodata.cst4   0x00000000004dd650        0x4 ../libtransmission/libtransmission.a(stats.o)
 .rodata.str1.4
                0x00000000004dd654      0x3f5 ../libtransmission/libtransmission.a(torrent.o)
                                        0x418 (size before relaxing)
 *fill*         0x00000000004dda49        0x7 
 .rodata        0x00000000004dda50       0x30 ../libtransmission/libtransmission.a(torrent.o)
 .rodata.cst8   0x00000000004dda80       0x10 ../libtransmission/libtransmission.a(torrent.o)
                                         0x18 (size before relaxing)
 .rodata.cst4   0x00000000004dda90        0x4 ../libtransmission/libtransmission.a(torrent.o)
 .rodata.str1.4
                0x00000000004dda94        0xb ../libtransmission/libtransmission.a(torrent-ctor.o)
                                         0x1c (size before relaxing)
 *fill*         0x00000000004dda9f        0x1 
 .rodata.str1.4
                0x00000000004ddaa0      0x1a3 ../libtransmission/libtransmission.a(torrent-magnet.o)
                                        0x1b0 (size before relaxing)
 *fill*         0x00000000004ddc43        0x5 
 .rodata.cst8   0x00000000004ddc48        0x8 ../libtransmission/libtransmission.a(torrent-magnet.o)
 .rodata.str1.4
                0x00000000004ddc50      0x315 ../libtransmission/libtransmission.a(tr-dht.o)
                                        0x330 (size before relaxing)
 *fill*         0x00000000004ddf65        0xb 
 .rodata        0x00000000004ddf70       0x20 ../libtransmission/libtransmission.a(tr-dht.o)
 .rodata.str1.4
                0x00000000004ddf90      0x20c ../libtransmission/libtransmission.a(tr-lpd.o)
                                        0x21c (size before relaxing)
 *fill*         0x00000000004de19c        0x4 
 .rodata        0x00000000004de1a0       0x20 ../libtransmission/libtransmission.a(tr-lpd.o)
                0x00000000004de1a0                lpd_mcastGroup
                0x00000000004de1b0                lpd_mcastPort
 .rodata.str1.4
                0x00000000004de1c0      0x20d ../libtransmission/libtransmission.a(tr-udp.o)
                                        0x210 (size before relaxing)
 *fill*         0x00000000004de3cd        0x3 
 .rodata.str1.4
                0x00000000004de3d0       0x22 ../libtransmission/libtransmission.a(tr-utp.o)
                                         0x28 (size before relaxing)
 *fill*         0x00000000004de3f2        0x2 
 .rodata.str1.4
                0x00000000004de3f4       0x8f ../libtransmission/libtransmission.a(tr-getopt.o)
                                         0xa0 (size before relaxing)
 *fill*         0x00000000004de483        0x1 
 .rodata.str1.4
                0x00000000004de484       0xe0 ../libtransmission/libtransmission.a(trevent.o)
                                         0xe4 (size before relaxing)
 .rodata.str1.4
                0x00000000004de564      0x210 ../libtransmission/libtransmission.a(utils.o)
                                        0x248 (size before relaxing)
 *fill*         0x00000000004de774        0xc 
 .rodata        0x00000000004de780       0x30 ../libtransmission/libtransmission.a(utils.o)
 .rodata.cst8   0x00000000004de7b0       0x20 ../libtransmission/libtransmission.a(utils.o)
                                         0x30 (size before relaxing)
 .rodata.str1.4
                0x00000000004de7d0       0xa6 ../libtransmission/libtransmission.a(verify.o)
                                         0xac (size before relaxing)
 *fill*         0x00000000004de876        0x2 
 .rodata.str1.4
                0x00000000004de878      0x4ba ../libtransmission/libtransmission.a(web.o)
                                        0x4f0 (size before relaxing)
 *fill*         0x00000000004ded32        0x2 
 .rodata.str1.4
                0x00000000004ded34      0x39c ../libtransmission/libtransmission.a(announcer.o)
                                        0x3c8 (size before relaxing)
 .rodata        0x00000000004df0d0       0x20 ../libtransmission/libtransmission.a(announcer.o)
 .rodata.cst8   0x0000000000000000        0x8 ../libtransmission/libtransmission.a(announcer.o)
 .rodata.str1.4
                0x00000000004df0f0      0x312 ../libtransmission/libtransmission.a(announcer-http.o)
                                        0x350 (size before relaxing)
 *fill*         0x00000000004df402        0x2 
 .rodata.str1.4
                0x00000000004df404      0x21c ../libtransmission/libtransmission.a(announcer-udp.o)
                                        0x220 (size before relaxing)
 .rodata        0x00000000004df620       0x10 ../libtransmission/libtransmission.a(announcer-udp.o)
 .rodata.str1.4
                0x00000000004df630       0x62 ../libtransmission/libtransmission.a(bandwidth.o)
                                         0x70 (size before relaxing)
 *fill*         0x00000000004df692        0x6 
 .rodata.cst8   0x00000000004df698       0x10 ../libtransmission/libtransmission.a(bandwidth.o)
                                         0x18 (size before relaxing)
 *fill*         0x00000000004df6a8        0x8 
 .rodata        0x00000000004df6b0      0x120 ../libtransmission/libtransmission.a(bitfield.o)
                0x00000000004df6b0                TR_BITFIELD_INIT
 .rodata.str1.4
                0x00000000004df7d0       0xd0 ../libtransmission/libtransmission.a(blocklist.o)
                                        0x11c (size before relaxing)
 .rodata.str1.4
                0x00000000004df8a0       0x69 ../libtransmission/libtransmission.a(cache.o)
                                         0x74 (size before relaxing)
 *fill*         0x00000000004df909        0x7 
 .rodata.cst8   0x00000000004df910        0x8 ../libtransmission/libtransmission.a(cache.o)
 .rodata.cst8   0x0000000000000000        0x8 ../libtransmission/libtransmission.a(completion.o)
 .rodata.cst4   0x0000000000000000        0x4 ../libtransmission/libtransmission.a(completion.o)
 .rodata.str1.4
                0x00000000004df918       0x69 ../libtransmission/libtransmission.a(crypto.o)
                                         0x70 (size before relaxing)
 *fill*         0x00000000004df981        0xf 
 .rodata        0x00000000004df990       0x70 ../libtransmission/libtransmission.a(crypto.o)
 .rodata.str1.4
                0x00000000004dfa00       0x70 ../libtransmission/libtransmission.a(inout.o)
 .rodata.str1.4
                0x00000000004dfa70       0x57 ../libtransmission/libtransmission.a(magnet.o)
                                         0x80 (size before relaxing)
 *fill*         0x00000000004dfac7        0x9 
 .rodata        0x00000000004dfad0      0x140 ../libtransmission/libtransmission.a(magnet.o)
 .rodata.str1.4
                0x00000000004dfc10      0x100 ../libtransmission/libtransmission.a(metainfo.o)
                                        0x1b4 (size before relaxing)
 .rodata.str1.4
                0x00000000004dfd10      0x4a4 ../libtransmission/libtransmission.a(peer-mgr.o)
                                        0x4a8 (size before relaxing)
 *fill*         0x00000000004e01b4        0xc 
 .rodata        0x00000000004e01c0       0x90 ../libtransmission/libtransmission.a(peer-mgr.o)
                0x00000000004e01f4                TR_PEER_EVENT_INIT
 .rodata.cst4   0x00000000004e0250        0x8 ../libtransmission/libtransmission.a(peer-mgr.o)
                                          0xc (size before relaxing)
 .rodata.cst8   0x00000000004e0258       0x20 ../libtransmission/libtransmission.a(peer-mgr.o)
                                         0x40 (size before relaxing)
 .rodata.str1.4
                0x00000000004e0278      0x8df ../libtransmission/libtransmission.a(peer-msgs.o)
                                        0x94c (size before relaxing)
 *fill*         0x00000000004e0b57        0x9 
 .rodata        0x00000000004e0b60       0xb0 ../libtransmission/libtransmission.a(peer-msgs.o)
 .rodata.cst8   0x00000000004e0c10        0x8 ../libtransmission/libtransmission.a(peer-msgs.o)
 .rodata.str1.4
                0x00000000004e0c18       0x5e ../libtransmission/libtransmission.a(port-forwarding.o)
                                         0x8c (size before relaxing)
 *fill*         0x00000000004e0c76        0xa 
 .rodata        0x00000000004e0c80       0x10 ../libtransmission/libtransmission.a(port-forwarding.o)
 .rodata.str1.4
                0x00000000004e0c90      0x36f ../libtransmission/libtransmission.a(resume.o)
                                        0x3e4 (size before relaxing)
 *fill*         0x00000000004e0fff        0x1 
 .rodata.str1.4
                0x00000000004e1000      0x96e ../libtransmission/libtransmission.a(rpc-server.o)
                                        0xa84 (size before relaxing)
 *fill*         0x00000000004e196e        0x2 
 .rodata        0x00000000004e1970       0x30 ../libtransmission/libtransmission.a(rpc-server.o)
 .rodata.str1.4
                0x00000000004e19a0      0x1dc ../libtransmission/libtransmission.a(upnp.o)
                                        0x1f8 (size before relaxing)
 .rodata.str1.4
                0x00000000004e1b7c       0x12 ../libtransmission/libtransmission.a(webseed.o)
                                         0x14 (size before relaxing)
 *fill*         0x00000000004e1b8e        0x2 
 .rodata.str1.4
                0x00000000004e1b90      0x951 ../libtransmission/libtransmission.a(clients.o)
                                        0x988 (size before relaxing)
 *fill*         0x00000000004e24e1        0xf 
 .rodata        0x00000000004e24f0      0x130 ../libtransmission/libtransmission.a(clients.o)
 .rodata.str1.4
                0x00000000004e2620      0x69b ../libtransmission/libtransmission.a(handshake.o)
                                        0x6a4 (size before relaxing)
 *fill*         0x00000000004e2cbb        0x5 
 .rodata        0x00000000004e2cc0       0x70 ../libtransmission/libtransmission.a(handshake.o)
 .rodata.str1.4
                0x00000000004e2d30      0x12f ../libtransmission/libtransmission.a(natpmp.o)
                                        0x130 (size before relaxing)
 *fill*         0x00000000004e2e5f        0x1 
 .rodata        0x00000000004e2e60       0x20 ../libtransmission/libtransmission.a(natpmp.o)
 .rodata.str1.4
                0x00000000004e2e80      0xbb2 ../libtransmission/libtransmission.a(rpcimpl.o)
                                       0x1040 (size before relaxing)
 *fill*         0x00000000004e3a32        0xe 
 .rodata        0x00000000004e3a40      0x100 ../libtransmission/libtransmission.a(rpcimpl.o)
 .rodata.str1.4
                0x00000000004e3b40      0x1fe ../third-party/libnatpmp/libnatpmp.a(natpmp.o)
                                        0x200 (size before relaxing)
 *fill*         0x00000000004e3d3e        0x2 
 .rodata        0x00000000004e3d40       0xf0 ../third-party/libnatpmp/libnatpmp.a(natpmp.o)
 .rodata.str1.4
                0x00000000004e3e30       0x17 ../third-party/libnatpmp/libnatpmp.a(getgateway.o)
                                         0x1c (size before relaxing)
 *fill*         0x00000000004e3e47        0x1 
 .rodata.str1.4
                0x00000000004e3e48      0x310 ../third-party/miniupnp/libminiupnp.a(miniupnpc.o)
                                        0x33c (size before relaxing)
 *fill*         0x00000000004e4158        0x8 
 .rodata        0x00000000004e4160       0x70 ../third-party/miniupnp/libminiupnp.a(miniupnpc.o)
 .rodata.str1.4
                0x00000000004e41d0       0xbd ../third-party/miniupnp/libminiupnp.a(miniwget.o)
                                         0xc8 (size before relaxing)
 *fill*         0x00000000004e428d        0x3 
 .rodata.str1.4
                0x00000000004e4290       0x10 ../third-party/miniupnp/libminiupnp.a(minixml.o)
 .rodata.str1.4
                0x00000000004e42a0        0x5 ../third-party/miniupnp/libminiupnp.a(receivedata.o)
                                         0x10 (size before relaxing)
 *fill*         0x00000000004e42a5        0x3 
 .rodata.str1.4
                0x00000000004e42a8      0x4ae ../third-party/miniupnp/libminiupnp.a(upnpcommands.o)
                                        0x4c4 (size before relaxing)
 *fill*         0x00000000004e4756        0x2 
 .rodata.str1.4
                0x00000000004e4758        0xf ../third-party/miniupnp/libminiupnp.a(upnpreplyparse.o)
                                         0x10 (size before relaxing)
 *fill*         0x00000000004e4767        0x1 
 .rodata.str1.4
                0x00000000004e4768       0x30 ../third-party/miniupnp/libminiupnp.a(connecthostport.o)
                                         0x3c (size before relaxing)
 .rodata.str1.4
                0x00000000004e4798      0x1b6 ../third-party/miniupnp/libminiupnp.a(igd_desc_parse.o)
                                        0x250 (size before relaxing)
 *fill*         0x00000000004e494e        0x2 
 .rodata.str1.4
                0x00000000004e4950       0xd4 ../third-party/miniupnp/libminiupnp.a(minisoap.o)
                                         0xdc (size before relaxing)
 .rodata.str1.4
                0x00000000004e4a24       0x3c ../third-party/miniupnp/libminiupnp.a(minissdpc.o)
 .rodata        0x00000000004e4a60       0x80 ../third-party/miniupnp/libminiupnp.a(portlistingparse.o)
 .rodata.str1.4
                0x00000000004e4ae0       0x23 ../third-party/miniupnp/libminiupnp.a(portlistingparse.o)
                                         0x90 (size before relaxing)
 *fill*         0x00000000004e4b03        0x1 
 .rodata.str1.4
                0x00000000004e4b04      0x8f3 ../third-party/dht/libdht.a(dht.o)
                                        0x91c (size before relaxing)
 *fill*         0x00000000004e53f7        0x9 
 .rodata        0x00000000004e5400       0x30 ../third-party/dht/libdht.a(dht.o)
 .rodata.cst8   0x00000000004e5430       0x10 ../third-party/libutp/libutp.a(utp.o)
                                         0x20 (size before relaxing)
 .rodata.str1.4
                0x00000000004e5440      0x8a0 /home/ql_xu/develop/trunk/uClinux-dist/lib/libevent/.libs/libevent.a(event.o)
                                        0x8a4 (size before relaxing)
 .rodata        0x00000000004e5ce0      0x380 /home/ql_xu/develop/trunk/uClinux-dist/lib/libevent/.libs/libevent.a(event.o)
 .rodata.cst8   0x0000000000000000        0x8 /home/ql_xu/develop/trunk/uClinux-dist/lib/libevent/.libs/libevent.a(event.o)
 .rodata.str1.4
                0x00000000004e6060      0x2a1 /home/ql_xu/develop/trunk/uClinux-dist/lib/libevent/.libs/libevent.a(evthread.o)
                                        0x2c8 (size before relaxing)
 *fill*         0x00000000004e6301        0xf 
 .rodata        0x00000000004e6310       0x90 /home/ql_xu/develop/trunk/uClinux-dist/lib/libevent/.libs/libevent.a(evthread.o)
 .rodata.str1.4
                0x00000000004e63a0      0x359 /home/ql_xu/develop/trunk/uClinux-dist/lib/libevent/.libs/libevent.a(buffer.o)
                                        0x384 (size before relaxing)
 *fill*         0x00000000004e66f9        0x7 
 .rodata        0x00000000004e6700      0x260 /home/ql_xu/develop/trunk/uClinux-dist/lib/libevent/.libs/libevent.a(buffer.o)
 .rodata.str1.4
                0x00000000004e6960       0x56 /home/ql_xu/develop/trunk/uClinux-dist/lib/libevent/.libs/libevent.a(bufferevent.o)
                                         0x7c (size before relaxing)
 *fill*         0x00000000004e69b6        0xa 
 .rodata        0x00000000004e69c0       0x20 /home/ql_xu/develop/trunk/uClinux-dist/lib/libevent/.libs/libevent.a(bufferevent.o)
 .rodata.str1.4
                0x00000000004e69e0       0xb6 /home/ql_xu/develop/trunk/uClinux-dist/lib/libevent/.libs/libevent.a(bufferevent_ratelim.o)
                                         0xdc (size before relaxing)
 *fill*         0x00000000004e6a96        0xa 
 .rodata        0x00000000004e6aa0       0xd0 /home/ql_xu/develop/trunk/uClinux-dist/lib/libevent/.libs/libevent.a(bufferevent_ratelim.o)
 .rodata.str1.4
                0x00000000004e6b70      0x223 /home/ql_xu/develop/trunk/uClinux-dist/lib/libevent/.libs/libevent.a(evmap.o)
                                        0x248 (size before relaxing)
 *fill*         0x00000000004e6d93        0xd 
 .rodata        0x00000000004e6da0       0xa0 /home/ql_xu/develop/trunk/uClinux-dist/lib/libevent/.libs/libevent.a(evmap.o)
 .rodata.str1.4
                0x00000000004e6e40       0x18 /home/ql_xu/develop/trunk/uClinux-dist/lib/libevent/.libs/libevent.a(log.o)
                                         0x30 (size before relaxing)
 *fill*         0x00000000004e6e58        0x8 
 .rodata        0x00000000004e6e60       0x10 /home/ql_xu/develop/trunk/uClinux-dist/lib/libevent/.libs/libevent.a(log.o)
 .rodata.str1.4
                0x00000000004e6e70      0x2e0 /home/ql_xu/develop/trunk/uClinux-dist/lib/libevent/.libs/libevent.a(evutil.o)
                                        0x31c (size before relaxing)
 .rodata        0x00000000004e7150      0x440 /home/ql_xu/develop/trunk/uClinux-dist/lib/libevent/.libs/libevent.a(evutil.o)
 .rodata.str1.4
                0x00000000004e7590       0x5c /home/ql_xu/develop/trunk/uClinux-dist/lib/libevent/.libs/libevent.a(evutil_rand.o)
                                         0x74 (size before relaxing)
 *fill*         0x00000000004e75ec        0x4 
 .rodata        0x00000000004e75f0       0x10 /home/ql_xu/develop/trunk/uClinux-dist/lib/libevent/.libs/libevent.a(evutil_rand.o)
 .rodata.str1.4
                0x00000000004e7600       0x26 /home/ql_xu/develop/trunk/uClinux-dist/lib/libevent/.libs/libevent.a(select.o)
                                         0x5c (size before relaxing)
 *fill*         0x00000000004e7626        0xa 
 .rodata        0x00000000004e7630       0x40 /home/ql_xu/develop/trunk/uClinux-dist/lib/libevent/.libs/libevent.a(select.o)
                0x00000000004e7630                selectops
 .rodata.str1.4
                0x00000000004e7670       0x2b /home/ql_xu/develop/trunk/uClinux-dist/lib/libevent/.libs/libevent.a(poll.o)
                                         0x7c (size before relaxing)
 *fill*         0x00000000004e769b        0x5 
 .rodata        0x00000000004e76a0       0x40 /home/ql_xu/develop/trunk/uClinux-dist/lib/libevent/.libs/libevent.a(poll.o)
                0x00000000004e76a0                pollops
 .rodata.str1.4
                0x00000000004e76e0      0x158 /home/ql_xu/develop/trunk/uClinux-dist/lib/libevent/.libs/libevent.a(epoll.o)
                                        0x18c (size before relaxing)
 *fill*         0x00000000004e7838        0x8 
 .rodata        0x00000000004e7840       0x60 /home/ql_xu/develop/trunk/uClinux-dist/lib/libevent/.libs/libevent.a(epoll.o)
                0x00000000004e7840                epollops
 .rodata.str1.4
                0x00000000004e78a0      0x1bf /home/ql_xu/develop/trunk/uClinux-dist/lib/libevent/.libs/libevent.a(signal.o)
                                        0x21c (size before relaxing)
 *fill*         0x00000000004e7a5f        0x1 
 .rodata        0x00000000004e7a60       0x70 /home/ql_xu/develop/trunk/uClinux-dist/lib/libevent/.libs/libevent.a(signal.o)
 .rodata.str1.4
                0x00000000004e7ad0      0x673 /home/ql_xu/develop/trunk/uClinux-dist/lib/libevent/.libs/libevent.a(http.o)
                                        0x9a4 (size before relaxing)
 *fill*         0x00000000004e8143        0xd 
 .rodata        0x00000000004e8150      0x5d0 /home/ql_xu/develop/trunk/uClinux-dist/lib/libevent/.libs/libevent.a(http.o)
 .rodata.str1.4
                0x00000000004e8720      0xc48 /home/ql_xu/develop/trunk/uClinux-dist/lib/libevent/.libs/libevent.a(evdns.o)
                                        0xc9c (size before relaxing)
 *fill*         0x00000000004e9368        0x8 
 .rodata        0x00000000004e9370      0x570 /home/ql_xu/develop/trunk/uClinux-dist/lib/libevent/.libs/libevent.a(evdns.o)
 .rodata.cst8   0x00000000004e98e0        0x8 /home/ql_xu/develop/trunk/uClinux-dist/lib/libevent/.libs/libevent.a(evdns.o)
 .rodata.str1.4
                0x00000000004e98e8       0x3d /home/ql_xu/develop/trunk/uClinux-dist/lib/libevent/.libs/libevent.a(bufferevent_sock.o)
                                         0x70 (size before relaxing)
 *fill*         0x00000000004e9925        0xb 
 .rodata        0x00000000004e9930       0x50 /home/ql_xu/develop/trunk/uClinux-dist/lib/libevent/.libs/libevent.a(bufferevent_sock.o)
                0x00000000004e9930                bufferevent_ops_socket
 .rodata.str1.4
                0x00000000004e9980       0x2d /home/ql_xu/develop/trunk/uClinux-dist/lib/libevent/.libs/libevent.a(listener.o)
                                         0x54 (size before relaxing)
 *fill*         0x00000000004e99ad        0x3 
 .rodata        0x00000000004e99b0       0x30 /home/ql_xu/develop/trunk/uClinux-dist/lib/libevent/.libs/libevent.a(listener.o)
 .rodata.str1.4
                0x0000000000000000        0x8 /home/ql_xu/develop/trunk/uClinux-dist/user/curl-7.36.0/lib/.libs/libcurl.a(libcurl_la-escape.o)
 .rodata        0x00000000004e99e0      0x150 /home/ql_xu/develop/trunk/uClinux-dist/user/curl-7.36.0/lib/.libs/libcurl.a(libcurl_la-escape.o)
 .rodata.str1.4
                0x00000000004e9b30        0x5 /home/ql_xu/develop/trunk/uClinux-dist/user/curl-7.36.0/lib/.libs/libcurl.a(libcurl_la-mprintf.o)
                                         0x10 (size before relaxing)
 *fill*         0x00000000004e9b35        0xb 
 .rodata        0x00000000004e9b40      0x360 /home/ql_xu/develop/trunk/uClinux-dist/user/curl-7.36.0/lib/.libs/libcurl.a(libcurl_la-mprintf.o)
 .rodata.str1.4
                0x00000000004e9ea0       0x62 /home/ql_xu/develop/trunk/uClinux-dist/user/curl-7.36.0/lib/.libs/libcurl.a(libcurl_la-easy.o)
                                         0x64 (size before relaxing)
 *fill*         0x00000000004e9f02        0x2 
 .rodata.str1.4
                0x00000000004e9f04      0x3a0 /home/ql_xu/develop/trunk/uClinux-dist/user/curl-7.36.0/lib/.libs/libcurl.a(libcurl_la-connect.o)
                                        0x3a4 (size before relaxing)
 *fill*         0x00000000004ea2a4        0xc 
 .rodata        0x00000000004ea2b0      0x110 /home/ql_xu/develop/trunk/uClinux-dist/user/curl-7.36.0/lib/.libs/libcurl.a(libcurl_la-connect.o)
 .rodata.str1.4
                0x00000000004ea3c0      0x1b0 /home/ql_xu/develop/trunk/uClinux-dist/user/curl-7.36.0/lib/.libs/libcurl.a(libcurl_la-multi.o)
 .rodata        0x00000000004ea570       0x80 /home/ql_xu/develop/trunk/uClinux-dist/user/curl-7.36.0/lib/.libs/libcurl.a(libcurl_la-multi.o)
 .rodata.str1.4
                0x00000000004ea5f0      0xc84 /home/ql_xu/develop/trunk/uClinux-dist/user/curl-7.36.0/lib/.libs/libcurl.a(libcurl_la-strerror.o)
                                        0xca0 (size before relaxing)
 *fill*         0x00000000004eb274        0xc 
 .rodata        0x00000000004eb280      0x1b0 /home/ql_xu/develop/trunk/uClinux-dist/user/curl-7.36.0/lib/.libs/libcurl.a(libcurl_la-strerror.o)
 .rodata        0x00000000004eb430       0x10 /home/ql_xu/develop/trunk/uClinux-dist/user/curl-7.36.0/lib/.libs/libcurl.a(libcurl_la-splay.o)
 .rodata.str1.4
                0x00000000004eb440       0xaf /home/ql_xu/develop/trunk/uClinux-dist/user/curl-7.36.0/lib/.libs/libcurl.a(libcurl_la-pipeline.o)
                                         0xb0 (size before relaxing)
 .rodata.cst8   0x0000000000000000        0x8 /home/ql_xu/develop/trunk/uClinux-dist/user/curl-7.36.0/lib/.libs/libcurl.a(libcurl_la-timeval.o)
 *fill*         0x00000000004eb4ef        0x1 
 .rodata.str1.4
                0x00000000004eb4f0       0xda /home/ql_xu/develop/trunk/uClinux-dist/user/curl-7.36.0/lib/.libs/libcurl.a(libcurl_la-hostip.o)
                                         0xe8 (size before relaxing)
 *fill*         0x00000000004eb5ca        0x2 
 .rodata.str1.4
                0x00000000004eb5cc      0x1a2 /home/ql_xu/develop/trunk/uClinux-dist/user/curl-7.36.0/lib/.libs/libcurl.a(libcurl_la-progress.o)
                                        0x1a8 (size before relaxing)
 *fill*         0x00000000004eb76e        0x2 
 .rodata        0x00000000004eb770       0x30 /home/ql_xu/develop/trunk/uClinux-dist/user/curl-7.36.0/lib/.libs/libcurl.a(libcurl_la-progress.o)
 .rodata.cst8   0x00000000004eb7a0        0x8 /home/ql_xu/develop/trunk/uClinux-dist/user/curl-7.36.0/lib/.libs/libcurl.a(libcurl_la-progress.o)
                                         0x18 (size before relaxing)
 .rodata.str1.4
                0x00000000004eb7a8      0x1bf /home/ql_xu/develop/trunk/uClinux-dist/user/curl-7.36.0/lib/.libs/libcurl.a(libcurl_la-cookie.o)
                                        0x214 (size before relaxing)
 *fill*         0x00000000004eb967        0x9 
 .rodata        0x00000000004eb970       0x20 /home/ql_xu/develop/trunk/uClinux-dist/user/curl-7.36.0/lib/.libs/libcurl.a(libcurl_la-cookie.o)
 .rodata.str1.4
                0x00000000004eb990      0x8fb /home/ql_xu/develop/trunk/uClinux-dist/user/curl-7.36.0/lib/.libs/libcurl.a(libcurl_la-http.o)
                                        0x9f8 (size before relaxing)
 *fill*         0x00000000004ec28b        0x5 
 .rodata        0x00000000004ec290       0x60 /home/ql_xu/develop/trunk/uClinux-dist/user/curl-7.36.0/lib/.libs/libcurl.a(libcurl_la-http.o)
                0x00000000004ec29c                Curl_handler_http
 .rodata.str1.4
                0x00000000004ec2f0       0xb9 /home/ql_xu/develop/trunk/uClinux-dist/user/curl-7.36.0/lib/.libs/libcurl.a(libcurl_la-sendf.o)
                                         0xc8 (size before relaxing)
 *fill*         0x00000000004ec3a9        0x7 
 .rodata        0x00000000004ec3b0       0x40 /home/ql_xu/develop/trunk/uClinux-dist/user/curl-7.36.0/lib/.libs/libcurl.a(libcurl_la-sendf.o)
 .rodata.str1.4
                0x00000000004ec3f0      0x512 /home/ql_xu/develop/trunk/uClinux-dist/user/curl-7.36.0/lib/.libs/libcurl.a(libcurl_la-url.o)
                                        0x56c (size before relaxing)
 *fill*         0x00000000004ec902        0xe 
 .rodata        0x00000000004ec910      0x1a0 /home/ql_xu/develop/trunk/uClinux-dist/user/curl-7.36.0/lib/.libs/libcurl.a(libcurl_la-url.o)
 .rodata.str1.4
                0x00000000004ecab0       0xe2 /home/ql_xu/develop/trunk/uClinux-dist/user/curl-7.36.0/lib/.libs/libcurl.a(libcurl_la-dict.o)
                                         0xfc (size before relaxing)
 *fill*         0x00000000004ecb92        0xe 
 .rodata        0x00000000004ecba0       0x50 /home/ql_xu/develop/trunk/uClinux-dist/user/curl-7.36.0/lib/.libs/libcurl.a(libcurl_la-dict.o)
                0x00000000004ecba0                Curl_handler_dict
 .rodata.str1.4
                0x0000000000000000        0x8 /home/ql_xu/develop/trunk/uClinux-dist/user/curl-7.36.0/lib/.libs/libcurl.a(libcurl_la-if2ip.o)
 .rodata        0x00000000004ecbf0       0x10 /home/ql_xu/develop/trunk/uClinux-dist/user/curl-7.36.0/lib/.libs/libcurl.a(libcurl_la-if2ip.o)
 .rodata.str1.4
                0x00000000004ecc00       0x4d /home/ql_xu/develop/trunk/uClinux-dist/user/curl-7.36.0/lib/.libs/libcurl.a(libcurl_la-speedcheck.o)
                                         0x50 (size before relaxing)
 *fill*         0x00000000004ecc4d        0x3 
 .rodata.str1.4
                0x00000000004ecc50      0x40c /home/ql_xu/develop/trunk/uClinux-dist/user/curl-7.36.0/lib/.libs/libcurl.a(libcurl_la-telnet.o)
                                        0x448 (size before relaxing)
 *fill*         0x00000000004ed05c        0x4 
 .rodata        0x00000000004ed060      0x170 /home/ql_xu/develop/trunk/uClinux-dist/user/curl-7.36.0/lib/.libs/libcurl.a(libcurl_la-telnet.o)
                0x00000000004ed09c                Curl_handler_telnet
 .rodata.str1.4
                0x00000000004ed1d0       0x1a /home/ql_xu/develop/trunk/uClinux-dist/user/curl-7.36.0/lib/.libs/libcurl.a(libcurl_la-netrc.o)
                                         0x40 (size before relaxing)
 .rodata.str1.4
                0x0000000000000000        0x4 /home/ql_xu/develop/trunk/uClinux-dist/user/curl-7.36.0/lib/.libs/libcurl.a(libcurl_la-getinfo.o)
 *fill*         0x00000000004ed1ea        0x6 
 .rodata        0x00000000004ed1f0      0x1d0 /home/ql_xu/develop/trunk/uClinux-dist/user/curl-7.36.0/lib/.libs/libcurl.a(libcurl_la-getinfo.o)
 .rodata.cst8   0x0000000000000000        0x8 /home/ql_xu/develop/trunk/uClinux-dist/user/curl-7.36.0/lib/.libs/libcurl.a(libcurl_la-getinfo.o)
 .rodata.str1.4
                0x00000000004ed3c0      0x631 /home/ql_xu/develop/trunk/uClinux-dist/user/curl-7.36.0/lib/.libs/libcurl.a(libcurl_la-transfer.o)
                                        0x6e0 (size before relaxing)
 *fill*         0x00000000004ed9f1        0x3 
 .rodata.str1.4
                0x00000000004ed9f4       0x87 /home/ql_xu/develop/trunk/uClinux-dist/user/curl-7.36.0/lib/.libs/libcurl.a(libcurl_la-http_chunks.o)
                                         0x9c (size before relaxing)
 *fill*         0x00000000004eda7b        0x5 
 .rodata        0x00000000004eda80       0x40 /home/ql_xu/develop/trunk/uClinux-dist/user/curl-7.36.0/lib/.libs/libcurl.a(libcurl_la-http_chunks.o)
 .rodata        0x00000000004edac0       0x20 /home/ql_xu/develop/trunk/uClinux-dist/user/curl-7.36.0/lib/.libs/libcurl.a(libcurl_la-share.o)
 .rodata.str1.4
                0x00000000004edae0      0x198 /home/ql_xu/develop/trunk/uClinux-dist/user/curl-7.36.0/lib/.libs/libcurl.a(libcurl_la-http_digest.o)
                                        0x1e0 (size before relaxing)
 *fill*         0x00000000004edc78        0x8 
 .rodata        0x00000000004edc80       0x70 /home/ql_xu/develop/trunk/uClinux-dist/user/curl-7.36.0/lib/.libs/libcurl.a(libcurl_la-md5.o)
                0x00000000004edc80                Curl_HMAC_MD5
                0x00000000004edc98                Curl_DIGEST_MD5
 .rodata.str1.4
                0x00000000004edcf0       0x23 /home/ql_xu/develop/trunk/uClinux-dist/user/curl-7.36.0/lib/.libs/libcurl.a(libcurl_la-hostip4.o)
                                         0x28 (size before relaxing)
 *fill*         0x00000000004edd13        0x1 
 .rodata.str1.4
                0x00000000004edd14       0xe7 /home/ql_xu/develop/trunk/uClinux-dist/user/curl-7.36.0/lib/.libs/libcurl.a(libcurl_la-parsedate.o)
                                         0xe8 (size before relaxing)
 *fill*         0x00000000004eddfb        0x5 
 .rodata        0x00000000004ede00      0x3f0 /home/ql_xu/develop/trunk/uClinux-dist/user/curl-7.36.0/lib/.libs/libcurl.a(libcurl_la-parsedate.o)
                0x00000000004ede20                Curl_wkday
                0x00000000004ede3c                Curl_month
 .rodata.str1.4
                0x00000000004ee1f0      0x41d /home/ql_xu/develop/trunk/uClinux-dist/user/curl-7.36.0/lib/.libs/libcurl.a(libcurl_la-tftp.o)
                                        0x454 (size before relaxing)
 *fill*         0x00000000004ee60d        0x3 
 .rodata        0x00000000004ee610       0x70 /home/ql_xu/develop/trunk/uClinux-dist/user/curl-7.36.0/lib/.libs/libcurl.a(libcurl_la-tftp.o)
                0x00000000004ee630                Curl_handler_tftp
 .rodata.str1.4
                0x00000000004ee680      0x81b /home/ql_xu/develop/trunk/uClinux-dist/user/curl-7.36.0/lib/.libs/libcurl.a(libcurl_la-socks.o)
                                        0x83c (size before relaxing)
 *fill*         0x00000000004eee9b        0x5 
 .rodata        0x00000000004eeea0       0x70 /home/ql_xu/develop/trunk/uClinux-dist/user/curl-7.36.0/lib/.libs/libcurl.a(libcurl_la-rawstr.o)
 .rodata.str1.4
                0x00000000004eef10      0x41a /home/ql_xu/develop/trunk/uClinux-dist/user/curl-7.36.0/lib/.libs/libcurl.a(libcurl_la-imap.o)
                                        0x44c (size before relaxing)
 *fill*         0x00000000004ef32a        0x6 
 .rodata        0x00000000004ef330      0x3e0 /home/ql_xu/develop/trunk/uClinux-dist/user/curl-7.36.0/lib/.libs/libcurl.a(libcurl_la-imap.o)
                0x00000000004ef67c                Curl_handler_imap
 .rodata.str1.4
                0x00000000004ef710       0xd5 /home/ql_xu/develop/trunk/uClinux-dist/user/curl-7.36.0/lib/.libs/libcurl.a(libcurl_la-pop3.o)
                                        0x200 (size before relaxing)
 *fill*         0x00000000004ef7e5        0xb 
 .rodata        0x00000000004ef7f0       0xe0 /home/ql_xu/develop/trunk/uClinux-dist/user/curl-7.36.0/lib/.libs/libcurl.a(libcurl_la-pop3.o)
                0x00000000004ef840                Curl_handler_pop3
 .rodata.str1.4
                0x00000000004ef8d0      0x165 /home/ql_xu/develop/trunk/uClinux-dist/user/curl-7.36.0/lib/.libs/libcurl.a(libcurl_la-smtp.o)
                                        0x2f8 (size before relaxing)
 *fill*         0x00000000004efa35        0xb 
 .rodata        0x00000000004efa40       0xe0 /home/ql_xu/develop/trunk/uClinux-dist/user/curl-7.36.0/lib/.libs/libcurl.a(libcurl_la-smtp.o)
                0x00000000004efa98                Curl_handler_smtp
 .rodata.str1.4
                0x00000000004efb20       0x8a /home/ql_xu/develop/trunk/uClinux-dist/user/curl-7.36.0/lib/.libs/libcurl.a(libcurl_la-pingpong.o)
                                         0x94 (size before relaxing)
 *fill*         0x00000000004efbaa        0x2 
 .rodata.str1.4
                0x00000000004efbac      0x3d5 /home/ql_xu/develop/trunk/uClinux-dist/user/curl-7.36.0/lib/.libs/libcurl.a(libcurl_la-rtsp.o)
                                        0x488 (size before relaxing)
 *fill*         0x00000000004eff81        0xf 
 .rodata        0x00000000004eff90       0x80 /home/ql_xu/develop/trunk/uClinux-dist/user/curl-7.36.0/lib/.libs/libcurl.a(libcurl_la-rtsp.o)
                0x00000000004effc4                Curl_handler_rtsp
 .rodata.str1.4
                0x00000000004f0010       0x27 /home/ql_xu/develop/trunk/uClinux-dist/user/curl-7.36.0/lib/.libs/libcurl.a(libcurl_la-gopher.o)
                                         0x30 (size before relaxing)
 *fill*         0x00000000004f0037        0x9 
 .rodata        0x00000000004f0040       0x50 /home/ql_xu/develop/trunk/uClinux-dist/user/curl-7.36.0/lib/.libs/libcurl.a(libcurl_la-gopher.o)
                0x00000000004f0040                Curl_handler_gopher
 .rodata.str1.4
                0x00000000004f0090      0x25d /home/ql_xu/develop/trunk/uClinux-dist/user/curl-7.36.0/lib/.libs/libcurl.a(libcurl_la-http_proxy.o)
                                        0x338 (size before relaxing)
 *fill*         0x00000000004f02ed        0x3 
 .rodata.str1.4
                0x00000000004f02f0      0x100 /home/ql_xu/develop/trunk/uClinux-dist/user/curl-7.36.0/lib/.libs/libcurl.a(libcurl_la-curl_sasl.o)
                                        0x11c (size before relaxing)
 .rodata        0x00000000004f03f0       0x20 /home/ql_xu/develop/trunk/uClinux-dist/user/curl-7.36.0/lib/.libs/libcurl.a(libcurl_la-curl_sasl.o)
 .rodata.str1.4
                0x00000000004f0410       0x18 /home/ql_xu/develop/trunk/uClinux-dist/user/curl-7.36.0/lib/.libs/libcurl.a(libcurl_la-dotdot.o)
                                         0x24 (size before relaxing)
 .rodata.str1.4
                0x00000000004f0428       0xe1 /home/ql_xu/develop/trunk/uClinux-dist/user/curl-7.36.0/lib/.libs/libcurl.a(libcurl_la-file.o)
                                         0xfc (size before relaxing)
 *fill*         0x00000000004f0509        0x7 
 .rodata        0x00000000004f0510       0x50 /home/ql_xu/develop/trunk/uClinux-dist/user/curl-7.36.0/lib/.libs/libcurl.a(libcurl_la-file.o)
                0x00000000004f0510                Curl_handler_file
 .rodata.str1.4
                0x00000000004f0560       0x10 /home/ql_xu/develop/trunk/uClinux-dist/user/curl-7.36.0/lib/.libs/libcurl.a(libcurl_la-base64.o)
                                         0x1c (size before relaxing)
 .rodata        0x00000000004f0570       0x50 /home/ql_xu/develop/trunk/uClinux-dist/user/curl-7.36.0/lib/.libs/libcurl.a(libcurl_la-base64.o)
 .rodata.str1.4
                0x00000000004f05c0      0x198 /home/ql_xu/develop/trunk/uClinux-dist/user/curl-7.36.0/lib/.libs/libcurl.a(libcurl_la-formdata.o)
                                        0x1e8 (size before relaxing)
 *fill*         0x00000000004f0758        0x8 
 .rodata        0x00000000004f0760       0x80 /home/ql_xu/develop/trunk/uClinux-dist/user/curl-7.36.0/lib/.libs/libcurl.a(libcurl_la-formdata.o)
 .rodata.str1.4
                0x00000000004f07e0      0xcc0 /home/ql_xu/develop/trunk/uClinux-dist/user/curl-7.36.0/lib/.libs/libcurl.a(libcurl_la-ftp.o)
                                        0xe08 (size before relaxing)
 .rodata        0x00000000004f14a0      0x3c0 /home/ql_xu/develop/trunk/uClinux-dist/user/curl-7.36.0/lib/.libs/libcurl.a(libcurl_la-ftp.o)
                0x00000000004f17b0                Curl_handler_ftp
 .rodata.str1.4
                0x00000000004f1860       0x3e /home/ql_xu/develop/trunk/uClinux-dist/user/curl-7.36.0/lib/.libs/libcurl.a(libcurl_la-ftplistparser.o)
                                         0x40 (size before relaxing)
 *fill*         0x00000000004f189e        0x2 
 .rodata        0x00000000004f18a0      0x180 /home/ql_xu/develop/trunk/uClinux-dist/user/curl-7.36.0/lib/.libs/libcurl.a(libcurl_la-ftplistparser.o)
 .rodata        0x00000000004f1a20       0x10 /home/ql_xu/develop/trunk/uClinux-dist/user/curl-7.36.0/lib/.libs/libcurl.a(libcurl_la-hmac.o)
 .rodata.str1.4
                0x00000000004f1a30       0x50 /home/ql_xu/develop/trunk/uClinux-dist/user/curl-7.36.0/lib/.libs/libcurl.a(libcurl_la-curl_fnmatch.o)
 .rodata        0x00000000004f1a80       0x20 /home/ql_xu/develop/trunk/uClinux-dist/user/curl-7.36.0/lib/.libs/libcurl.a(libcurl_la-curl_fnmatch.o)
 .rodata        0x00000000004f1aa0       0x40 /home/ql_xu/develop/trunk/uClinux-dist/lib/zlib/libz.a(deflate.o)
                0x00000000004f1aa0                deflate_copyright
 .rodata        0x00000000004f1ae0      0xa30 /home/ql_xu/develop/trunk/uClinux-dist/lib/zlib/libz.a(trees.o)
                0x00000000004f2124                _dist_code
                0x00000000004f2324                _length_code
 .rodata        0x00000000004f2510       0x90 /home/ql_xu/develop/trunk/uClinux-dist/lib/zlib/libz.a(zutil.o)
 .rodata        0x00000000004f25a0       0xb0 /home/ql_xu/develop/trunk/uClinux-dist/lib/zlib/libz.a(inflate.o)
 .rodata        0x00000000004f2650       0xf0 /home/ql_xu/develop/trunk/uClinux-dist/lib/zlib/libz.a(infblock.o)
 .rodata        0x00000000004f2740      0x310 /home/ql_xu/develop/trunk/uClinux-dist/lib/zlib/libz.a(inftrees.o)
                0x00000000004f2740                inflate_copyright
 .rodata        0x00000000004f2a50       0x60 /home/ql_xu/develop/trunk/uClinux-dist/lib/zlib/libz.a(infcodes.o)
 .rodata        0x00000000004f2ab0       0x40 /home/ql_xu/develop/trunk/uClinux-dist/lib/zlib/libz.a(inffast.o)
 .rodata.cst4   0x00000000004f2af0        0x4 /rsdk-4.4.7-5281-EB-2.6.30-0.9.33-m32utb-140606/bin/../lib/gcc/mips-linux-uclibc/4.4.7/5281/libgcc.a(_fixunssfsi.o)
 *fill*         0x00000000004f2af4        0x4 
 .rodata.cst8   0x00000000004f2af8        0x8 /rsdk-4.4.7-5281-EB-2.6.30-0.9.33-m32utb-140606/bin/../lib/gcc/mips-linux-uclibc/4.4.7/5281/libgcc.a(_fixunsdfsi.o)
 .rodata.cst8   0x00000000004f2b00       0x10 /rsdk-4.4.7-5281-EB-2.6.30-0.9.33-m32utb-140606/bin/../lib/gcc/mips-linux-uclibc/4.4.7/5281/libgcc.a(_fixunsdfdi.o)
 .rodata.cst8   0x00000000004f2b10        0x8 /rsdk-4.4.7-5281-EB-2.6.30-0.9.33-m32utb-140606/bin/../lib/gcc/mips-linux-uclibc/4.4.7/5281/libgcc.a(_floatdidf.o)
 .rodata.cst8   0x0000000000000000        0x8 /rsdk-4.4.7-5281-EB-2.6.30-0.9.33-m32utb-140606/bin/../lib/gcc/mips-linux-uclibc/4.4.7/5281/libgcc.a(_floatundisf.o)
 .rodata.cst8   0x0000000000000000        0x8 /rsdk-4.4.7-5281-EB-2.6.30-0.9.33-m32utb-140606/bin/../lib/gcc/mips-linux-uclibc/4.4.7/5281/libgcc.a(_floatundidf.o)
 *fill*         0x00000000004f2b18        0x8 
 .rodata        0x00000000004f2b20       0x40 /rsdk-4.4.7-5281-EB-2.6.30-0.9.33-m32utb-140606/bin/../lib/gcc/mips-linux-uclibc/4.4.7/5281/libgcc.a(divsf3.o)
 .rodata        0x00000000004f2b60       0x40 /rsdk-4.4.7-5281-EB-2.6.30-0.9.33-m32utb-140606/bin/../lib/gcc/mips-linux-uclibc/4.4.7/5281/libgcc.a(mulsf3.o)
 .rodata        0x00000000004f2ba0       0x40 /rsdk-4.4.7-5281-EB-2.6.30-0.9.33-m32utb-140606/bin/../lib/gcc/mips-linux-uclibc/4.4.7/5281/libgcc.a(divdf3.o)
 .rodata        0x00000000004f2be0       0x40 /rsdk-4.4.7-5281-EB-2.6.30-0.9.33-m32utb-140606/bin/../lib/gcc/mips-linux-uclibc/4.4.7/5281/libgcc.a(muldf3.o)
 .rodata        0x00000000004f2c20      0x100 /rsdk-4.4.7-5281-EB-2.6.30-0.9.33-m32utb-140606/bin/../lib/gcc/mips-linux-uclibc/4.4.7/5281/libgcc.a(_clz.o)
                0x00000000004f2c20                __clz_tab

.rodata1
 *(.rodata1)

.sdata2
 *(.sdata2 .sdata2.* .gnu.linkonce.s2.*)

.sbss2
 *(.sbss2 .sbss2.* .gnu.linkonce.sb2.*)

.eh_frame_hdr   0x00000000004f2d20       0x24
 *(.eh_frame_hdr)
 .eh_frame_hdr  0x00000000004f2d20       0x24 /rsdk-4.4.7-5281-EB-2.6.30-0.9.33-m32utb-140606/bin/../lib/gcc/mips-linux-uclibc/4.4.7/5281/libgcc.a(_divdi3.o)

.eh_frame
 *(.eh_frame)

.gcc_except_table
 *(.gcc_except_table .gcc_except_table.*)

.exception_ranges
 *(.exception_ranges .exception_ranges*)
                0x00000000004f2d44                . = (ALIGN (0x10000) - ((0x10000 - .) & 0xffff))
                0x0000000000503000                . = DATA_SEGMENT_ALIGN (0x10000, 0x1000)

.eh_frame       0x0000000000503000       0x44
 *(.eh_frame)
 .eh_frame      0x0000000000503000        0x0 /rsdk-4.4.7-5281-EB-2.6.30-0.9.33-m32utb-140606/bin/../lib/gcc/mips-linux-uclibc/4.4.7/5281/crtbegin.o
 .eh_frame      0x0000000000503000       0x20 /rsdk-4.4.7-5281-EB-2.6.30-0.9.33-m32utb-140606/bin/../lib/gcc/mips-linux-uclibc/4.4.7/5281/libgcc.a(_divdi3.o)
 .eh_frame      0x0000000000503020       0x10 /rsdk-4.4.7-5281-EB-2.6.30-0.9.33-m32utb-140606/bin/../lib/gcc/mips-linux-uclibc/4.4.7/5281/libgcc.a(_udivdi3.o)
                                         0x20 (size before relaxing)
 .eh_frame      0x0000000000503030       0x10 /rsdk-4.4.7-5281-EB-2.6.30-0.9.33-m32utb-140606/bin/../lib/gcc/mips-linux-uclibc/4.4.7/5281/libgcc.a(_umoddi3.o)
                                         0x20 (size before relaxing)
 .eh_frame      0x0000000000503040        0x4 /rsdk-4.4.7-5281-EB-2.6.30-0.9.33-m32utb-140606/bin/../lib/gcc/mips-linux-uclibc/4.4.7/5281/crtend.o

.gcc_except_table
 *(.gcc_except_table .gcc_except_table.*)

.exception_ranges
 *(.exception_ranges .exception_ranges*)

.tdata
 *(.tdata .tdata.* .gnu.linkonce.td.*)

.tbss
 *(.tbss .tbss.* .gnu.linkonce.tb.*)
 *(.tcommon)

.preinit_array  0x0000000000503044        0x0
                0x0000000000503044                PROVIDE (__preinit_array_start, .)
 *(.preinit_array)
                0x0000000000503044                PROVIDE (__preinit_array_end, .)

.init_array     0x0000000000503044        0x0
                0x0000000000503044                PROVIDE (__init_array_start, .)
 *(SORT(.init_array.*))
 *(.init_array)
                0x0000000000503044                PROVIDE (__init_array_end, .)

.fini_array     0x0000000000503044        0x0
                0x0000000000503044                PROVIDE (__fini_array_start, .)
 *(SORT(.fini_array.*))
 *(.fini_array)
                0x0000000000503044                PROVIDE (__fini_array_end, .)

.ctors          0x0000000000503044        0xc
 *crtbegin.o(.ctors)
 .ctors         0x0000000000503044        0x4 /rsdk-4.4.7-5281-EB-2.6.30-0.9.33-m32utb-140606/bin/../lib/gcc/mips-linux-uclibc/4.4.7/5281/crtbegin.o
 *crtbegin?.o(.ctors)
 *(EXCLUDE_FILE(*crtend?.o *crtend.o) .ctors)
 .ctors         0x0000000000503048        0x4 ../third-party/libutp/libutp.a(utp.o)
 *(SORT(.ctors.*))
 *(.ctors)
 .ctors         0x000000000050304c        0x4 /rsdk-4.4.7-5281-EB-2.6.30-0.9.33-m32utb-140606/bin/../lib/gcc/mips-linux-uclibc/4.4.7/5281/crtend.o

.dtors          0x0000000000503050        0x8
 *crtbegin.o(.dtors)
 .dtors         0x0000000000503050        0x4 /rsdk-4.4.7-5281-EB-2.6.30-0.9.33-m32utb-140606/bin/../lib/gcc/mips-linux-uclibc/4.4.7/5281/crtbegin.o
 *crtbegin?.o(.dtors)
 *(EXCLUDE_FILE(*crtend?.o *crtend.o) .dtors)
 *(SORT(.dtors.*))
 *(.dtors)
 .dtors         0x0000000000503054        0x4 /rsdk-4.4.7-5281-EB-2.6.30-0.9.33-m32utb-140606/bin/../lib/gcc/mips-linux-uclibc/4.4.7/5281/crtend.o
                0x0000000000503054                __DTOR_END__

.jcr            0x0000000000503058        0x4
 *(.jcr)
 .jcr           0x0000000000503058        0x0 /rsdk-4.4.7-5281-EB-2.6.30-0.9.33-m32utb-140606/bin/../lib/gcc/mips-linux-uclibc/4.4.7/5281/crtbegin.o
 .jcr           0x0000000000503058        0x4 /rsdk-4.4.7-5281-EB-2.6.30-0.9.33-m32utb-140606/bin/../lib/gcc/mips-linux-uclibc/4.4.7/5281/crtend.o

.data.rel.ro    0x000000000050305c       0x78
 *(.data.rel.ro.local* .gnu.linkonce.d.rel.ro.local.*)
 .data.rel.ro.local
                0x000000000050305c       0x78 /home/ql_xu/develop/trunk/uClinux-dist/lib/zlib/libz.a(deflate.o)
 *(.data.rel.ro .data.rel.ro.* .gnu.linkonce.d.rel.ro.*)
                0x00000000005030d4                . = DATA_SEGMENT_RELRO_END (., 0x0)

.data           0x00000000005030e0     0x13b0
                0x00000000005030e0                _fdata = .
 *(.data .data.* .gnu.linkonce.d.*)
 .data          0x00000000005030e0       0x10 /rsdk-4.4.7-5281-EB-2.6.30-0.9.33-m32utb-140606/bin/../lib/gcc/mips-linux-uclibc/4.4.7/../../../../mips-linux-uclibc/lib/crt1.o
                0x00000000005030e0                data_start
                0x00000000005030e0                __data_start
 .data          0x00000000005030f0        0x0 /rsdk-4.4.7-5281-EB-2.6.30-0.9.33-m32utb-140606/bin/../lib/gcc/mips-linux-uclibc/4.4.7/../../../../mips-linux-uclibc/lib/crti.o
 .data          0x00000000005030f0        0x0 /rsdk-4.4.7-5281-EB-2.6.30-0.9.33-m32utb-140606/bin/../lib/gcc/mips-linux-uclibc/4.4.7/5281/crtbegin.o
 .data          0x00000000005030f0        0x0 cli.o
 .data          0x00000000005030f0        0x0 ../libtransmission/libtransmission.a(bencode.o)
 .data          0x00000000005030f0        0x0 ../libtransmission/libtransmission.a(ConvertUTF.o)
 .data          0x00000000005030f0        0x0 ../libtransmission/libtransmission.a(fdlimit.o)
 .data          0x00000000005030f0        0x0 ../libtransmission/libtransmission.a(json.o)
 .data          0x00000000005030f0        0x0 ../libtransmission/libtransmission.a(JSON_parser.o)
 .data          0x00000000005030f0        0x0 ../libtransmission/libtransmission.a(list.o)
 .data          0x00000000005030f0        0x0 ../libtransmission/libtransmission.a(net.o)
 .data          0x00000000005030f0       0x30 ../libtransmission/libtransmission.a(peer-io.o)
 .data          0x0000000000503120        0x0 ../libtransmission/libtransmission.a(platform.o)
 .data          0x0000000000503120        0x0 ../libtransmission/libtransmission.a(ptrarray.o)
 .data          0x0000000000503120        0x0 ../libtransmission/libtransmission.a(session.o)
 .data          0x0000000000503120        0x0 ../libtransmission/libtransmission.a(stats.o)
 .data          0x0000000000503120       0x10 ../libtransmission/libtransmission.a(torrent.o)
 .data          0x0000000000503130        0x0 ../libtransmission/libtransmission.a(torrent-ctor.o)
 .data          0x0000000000503130        0x0 ../libtransmission/libtransmission.a(torrent-magnet.o)
 .data          0x0000000000503130        0x0 ../libtransmission/libtransmission.a(tr-dht.o)
 .data          0x0000000000503130        0x0 ../libtransmission/libtransmission.a(tr-lpd.o)
 .data          0x0000000000503130        0x0 ../libtransmission/libtransmission.a(tr-udp.o)
 .data          0x0000000000503130        0x0 ../libtransmission/libtransmission.a(tr-utp.o)
 .data          0x0000000000503130       0x10 ../libtransmission/libtransmission.a(tr-getopt.o)
                0x0000000000503130                tr_optind
 .data          0x0000000000503140        0x0 ../libtransmission/libtransmission.a(trevent.o)
 .data          0x0000000000503140       0x10 ../libtransmission/libtransmission.a(utils.o)
                0x0000000000503140                __tr_message_level
 .data          0x0000000000503150        0x0 ../libtransmission/libtransmission.a(verify.o)
 .data          0x0000000000503150        0x0 ../libtransmission/libtransmission.a(web.o)
 .data          0x0000000000503150       0x10 ../libtransmission/libtransmission.a(announcer.o)
 .data          0x0000000000503160        0x0 ../libtransmission/libtransmission.a(announcer-http.o)
 .data          0x0000000000503160        0x0 ../libtransmission/libtransmission.a(announcer-udp.o)
 .data          0x0000000000503160        0x0 ../libtransmission/libtransmission.a(bandwidth.o)
 .data          0x0000000000503160        0x0 ../libtransmission/libtransmission.a(bitfield.o)
 .data          0x0000000000503160        0x0 ../libtransmission/libtransmission.a(blocklist.o)
 .data          0x0000000000503160        0x0 ../libtransmission/libtransmission.a(cache.o)
 .data          0x0000000000503160        0x0 ../libtransmission/libtransmission.a(completion.o)
 .data          0x0000000000503160        0x0 ../libtransmission/libtransmission.a(crypto.o)
 .data          0x0000000000503160        0x0 ../libtransmission/libtransmission.a(inout.o)
 .data          0x0000000000503160        0x0 ../libtransmission/libtransmission.a(magnet.o)
 .data          0x0000000000503160        0x0 ../libtransmission/libtransmission.a(metainfo.o)
 .data          0x0000000000503160        0x0 ../libtransmission/libtransmission.a(peer-mgr.o)
 .data          0x0000000000503160        0x0 ../libtransmission/libtransmission.a(peer-msgs.o)
 .data          0x0000000000503160        0x0 ../libtransmission/libtransmission.a(port-forwarding.o)
 .data          0x0000000000503160        0x0 ../libtransmission/libtransmission.a(resume.o)
 .data          0x0000000000503160        0x0 ../libtransmission/libtransmission.a(rpc-server.o)
 .data          0x0000000000503160        0x0 ../libtransmission/libtransmission.a(upnp.o)
 .data          0x0000000000503160        0x0 ../libtransmission/libtransmission.a(webseed.o)
 .data          0x0000000000503160        0x0 ../libtransmission/libtransmission.a(wildmat.o)
 .data          0x0000000000503160        0x0 ../libtransmission/libtransmission.a(clients.o)
 .data          0x0000000000503160        0x0 ../libtransmission/libtransmission.a(handshake.o)
 .data          0x0000000000503160        0x0 ../libtransmission/libtransmission.a(history.o)
 .data          0x0000000000503160        0x0 ../libtransmission/libtransmission.a(natpmp.o)
 .data          0x0000000000503160        0x0 ../libtransmission/libtransmission.a(rpcimpl.o)
 .data          0x0000000000503160        0x0 ../third-party/libnatpmp/libnatpmp.a(natpmp.o)
 .data          0x0000000000503160        0x0 ../third-party/libnatpmp/libnatpmp.a(getgateway.o)
 .data          0x0000000000503160        0x0 ../third-party/miniupnp/libminiupnp.a(miniupnpc.o)
 .data          0x0000000000503160        0x0 ../third-party/miniupnp/libminiupnp.a(miniwget.o)
 .data          0x0000000000503160        0x0 ../third-party/miniupnp/libminiupnp.a(minixml.o)
 .data          0x0000000000503160        0x0 ../third-party/miniupnp/libminiupnp.a(receivedata.o)
 .data          0x0000000000503160        0x0 ../third-party/miniupnp/libminiupnp.a(upnpcommands.o)
 .data          0x0000000000503160        0x0 ../third-party/miniupnp/libminiupnp.a(upnpreplyparse.o)
 .data          0x0000000000503160        0x0 ../third-party/miniupnp/libminiupnp.a(connecthostport.o)
 .data          0x0000000000503160        0x0 ../third-party/miniupnp/libminiupnp.a(igd_desc_parse.o)
 .data          0x0000000000503160        0x0 ../third-party/miniupnp/libminiupnp.a(minisoap.o)
 .data          0x0000000000503160        0x0 ../third-party/miniupnp/libminiupnp.a(minissdpc.o)
 .data          0x0000000000503160        0x0 ../third-party/miniupnp/libminiupnp.a(portlistingparse.o)
 .data          0x0000000000503160       0x10 ../third-party/dht/libdht.a(dht.o)
 .data          0x0000000000503170       0x20 ../third-party/libutp/libutp.a(utp.o)
                0x0000000000503170                zero_funcs
 .data          0x0000000000503190       0x10 ../third-party/libutp/libutp.a(utp_utils.o)
 .data          0x00000000005031a0       0x30 /home/ql_xu/develop/trunk/uClinux-dist/lib/libevent/.libs/libevent.a(event.o)
 .data          0x00000000005031d0        0x0 /home/ql_xu/develop/trunk/uClinux-dist/lib/libevent/.libs/libevent.a(evthread.o)
 .data          0x00000000005031d0       0x10 /home/ql_xu/develop/trunk/uClinux-dist/lib/libevent/.libs/libevent.a(buffer.o)
 .data          0x00000000005031e0        0x0 /home/ql_xu/develop/trunk/uClinux-dist/lib/libevent/.libs/libevent.a(bufferevent.o)
 .data          0x00000000005031e0        0x0 /home/ql_xu/develop/trunk/uClinux-dist/lib/libevent/.libs/libevent.a(bufferevent_ratelim.o)
 .data          0x00000000005031e0        0x0 /home/ql_xu/develop/trunk/uClinux-dist/lib/libevent/.libs/libevent.a(evmap.o)
 .data          0x00000000005031e0        0x0 /home/ql_xu/develop/trunk/uClinux-dist/lib/libevent/.libs/libevent.a(log.o)
 .data          0x00000000005031e0        0x0 /home/ql_xu/develop/trunk/uClinux-dist/lib/libevent/.libs/libevent.a(evutil.o)
 .data          0x00000000005031e0        0x0 /home/ql_xu/develop/trunk/uClinux-dist/lib/libevent/.libs/libevent.a(evutil_rand.o)
 .data          0x00000000005031e0        0x0 /home/ql_xu/develop/trunk/uClinux-dist/lib/libevent/.libs/libevent.a(select.o)
 .data          0x00000000005031e0        0x0 /home/ql_xu/develop/trunk/uClinux-dist/lib/libevent/.libs/libevent.a(poll.o)
 .data          0x00000000005031e0        0x0 /home/ql_xu/develop/trunk/uClinux-dist/lib/libevent/.libs/libevent.a(epoll.o)
 .data          0x00000000005031e0       0x10 /home/ql_xu/develop/trunk/uClinux-dist/lib/libevent/.libs/libevent.a(signal.o)
 .data          0x00000000005031f0       0xa0 /home/ql_xu/develop/trunk/uClinux-dist/lib/libevent/.libs/libevent.a(http.o)
 .data          0x0000000000503290        0x0 /home/ql_xu/develop/trunk/uClinux-dist/lib/libevent/.libs/libevent.a(evdns.o)
 .data          0x0000000000503290        0x0 /home/ql_xu/develop/trunk/uClinux-dist/lib/libevent/.libs/libevent.a(bufferevent_sock.o)
 .data          0x0000000000503290        0x0 /home/ql_xu/develop/trunk/uClinux-dist/lib/libevent/.libs/libevent.a(listener.o)
 .data          0x0000000000503290        0x0 /home/ql_xu/develop/trunk/uClinux-dist/user/curl-7.36.0/lib/.libs/libcurl.a(libcurl_la-escape.o)
 .data          0x0000000000503290        0x0 /home/ql_xu/develop/trunk/uClinux-dist/user/curl-7.36.0/lib/.libs/libcurl.a(libcurl_la-mprintf.o)
 .data          0x0000000000503290       0x20 /home/ql_xu/develop/trunk/uClinux-dist/user/curl-7.36.0/lib/.libs/libcurl.a(libcurl_la-easy.o)
                0x0000000000503290                Curl_cmalloc
                0x0000000000503294                Curl_cfree
                0x0000000000503298                Curl_crealloc
                0x000000000050329c                Curl_cstrdup
                0x00000000005032a0                Curl_ccalloc
 .data          0x00000000005032b0        0x0 /home/ql_xu/develop/trunk/uClinux-dist/user/curl-7.36.0/lib/.libs/libcurl.a(libcurl_la-connect.o)
 .data          0x00000000005032b0        0x0 /home/ql_xu/develop/trunk/uClinux-dist/user/curl-7.36.0/lib/.libs/libcurl.a(libcurl_la-multi.o)
 .data          0x00000000005032b0        0x0 /home/ql_xu/develop/trunk/uClinux-dist/user/curl-7.36.0/lib/.libs/libcurl.a(libcurl_la-strerror.o)
 .data          0x00000000005032b0        0x0 /home/ql_xu/develop/trunk/uClinux-dist/user/curl-7.36.0/lib/.libs/libcurl.a(libcurl_la-select.o)
 .data          0x00000000005032b0        0x0 /home/ql_xu/develop/trunk/uClinux-dist/user/curl-7.36.0/lib/.libs/libcurl.a(libcurl_la-splay.o)
 .data          0x00000000005032b0        0x0 /home/ql_xu/develop/trunk/uClinux-dist/user/curl-7.36.0/lib/.libs/libcurl.a(libcurl_la-slist.o)
 .data          0x00000000005032b0        0x0 /home/ql_xu/develop/trunk/uClinux-dist/user/curl-7.36.0/lib/.libs/libcurl.a(libcurl_la-nonblock.o)
 .data          0x00000000005032b0        0x0 /home/ql_xu/develop/trunk/uClinux-dist/user/curl-7.36.0/lib/.libs/libcurl.a(libcurl_la-warnless.o)
 .data          0x00000000005032b0        0x0 /home/ql_xu/develop/trunk/uClinux-dist/user/curl-7.36.0/lib/.libs/libcurl.a(libcurl_la-conncache.o)
 .data          0x00000000005032b0        0x0 /home/ql_xu/develop/trunk/uClinux-dist/user/curl-7.36.0/lib/.libs/libcurl.a(libcurl_la-pipeline.o)
 .data          0x00000000005032b0        0x0 /home/ql_xu/develop/trunk/uClinux-dist/user/curl-7.36.0/lib/.libs/libcurl.a(libcurl_la-timeval.o)
 .data          0x00000000005032b0        0x0 /home/ql_xu/develop/trunk/uClinux-dist/user/curl-7.36.0/lib/.libs/libcurl.a(libcurl_la-hostip.o)
 .data          0x00000000005032b0        0x0 /home/ql_xu/develop/trunk/uClinux-dist/user/curl-7.36.0/lib/.libs/libcurl.a(libcurl_la-progress.o)
 .data          0x00000000005032b0        0x0 /home/ql_xu/develop/trunk/uClinux-dist/user/curl-7.36.0/lib/.libs/libcurl.a(libcurl_la-cookie.o)
 .data          0x00000000005032b0        0x0 /home/ql_xu/develop/trunk/uClinux-dist/user/curl-7.36.0/lib/.libs/libcurl.a(libcurl_la-http.o)
 .data          0x00000000005032b0        0x0 /home/ql_xu/develop/trunk/uClinux-dist/user/curl-7.36.0/lib/.libs/libcurl.a(libcurl_la-sendf.o)
 .data          0x00000000005032b0        0x0 /home/ql_xu/develop/trunk/uClinux-dist/user/curl-7.36.0/lib/.libs/libcurl.a(libcurl_la-url.o)
 .data          0x00000000005032b0        0x0 /home/ql_xu/develop/trunk/uClinux-dist/user/curl-7.36.0/lib/.libs/libcurl.a(libcurl_la-dict.o)
 .data          0x00000000005032b0        0x0 /home/ql_xu/develop/trunk/uClinux-dist/user/curl-7.36.0/lib/.libs/libcurl.a(libcurl_la-if2ip.o)
 .data          0x00000000005032b0        0x0 /home/ql_xu/develop/trunk/uClinux-dist/user/curl-7.36.0/lib/.libs/libcurl.a(libcurl_la-speedcheck.o)
 .data          0x00000000005032b0        0x0 /home/ql_xu/develop/trunk/uClinux-dist/user/curl-7.36.0/lib/.libs/libcurl.a(libcurl_la-getenv.o)
 .data          0x00000000005032b0        0x0 /home/ql_xu/develop/trunk/uClinux-dist/user/curl-7.36.0/lib/.libs/libcurl.a(libcurl_la-telnet.o)
 .data          0x00000000005032b0        0x0 /home/ql_xu/develop/trunk/uClinux-dist/user/curl-7.36.0/lib/.libs/libcurl.a(libcurl_la-netrc.o)
 .data          0x00000000005032b0        0x0 /home/ql_xu/develop/trunk/uClinux-dist/user/curl-7.36.0/lib/.libs/libcurl.a(libcurl_la-getinfo.o)
 .data          0x00000000005032b0        0x0 /home/ql_xu/develop/trunk/uClinux-dist/user/curl-7.36.0/lib/.libs/libcurl.a(libcurl_la-transfer.o)
 .data          0x00000000005032b0        0x0 /home/ql_xu/develop/trunk/uClinux-dist/user/curl-7.36.0/lib/.libs/libcurl.a(libcurl_la-strequal.o)
 .data          0x00000000005032b0        0x0 /home/ql_xu/develop/trunk/uClinux-dist/user/curl-7.36.0/lib/.libs/libcurl.a(libcurl_la-wildcard.o)
 .data          0x00000000005032b0        0x0 /home/ql_xu/develop/trunk/uClinux-dist/user/curl-7.36.0/lib/.libs/libcurl.a(libcurl_la-http_chunks.o)
 .data          0x00000000005032b0        0x0 /home/ql_xu/develop/trunk/uClinux-dist/user/curl-7.36.0/lib/.libs/libcurl.a(libcurl_la-llist.o)
 .data          0x00000000005032b0        0x0 /home/ql_xu/develop/trunk/uClinux-dist/user/curl-7.36.0/lib/.libs/libcurl.a(libcurl_la-hash.o)
 .data          0x00000000005032b0        0x0 /home/ql_xu/develop/trunk/uClinux-dist/user/curl-7.36.0/lib/.libs/libcurl.a(libcurl_la-share.o)
 .data          0x00000000005032b0        0x0 /home/ql_xu/develop/trunk/uClinux-dist/user/curl-7.36.0/lib/.libs/libcurl.a(libcurl_la-http_digest.o)
 .data          0x00000000005032b0        0x0 /home/ql_xu/develop/trunk/uClinux-dist/user/curl-7.36.0/lib/.libs/libcurl.a(libcurl_la-md5.o)
 .data          0x00000000005032b0        0x0 /home/ql_xu/develop/trunk/uClinux-dist/user/curl-7.36.0/lib/.libs/libcurl.a(libcurl_la-hostip4.o)
 .data          0x00000000005032b0        0x0 /home/ql_xu/develop/trunk/uClinux-dist/user/curl-7.36.0/lib/.libs/libcurl.a(libcurl_la-hostsyn.o)
 .data          0x00000000005032b0        0x0 /home/ql_xu/develop/trunk/uClinux-dist/user/curl-7.36.0/lib/.libs/libcurl.a(libcurl_la-parsedate.o)
 .data          0x00000000005032b0        0x0 /home/ql_xu/develop/trunk/uClinux-dist/user/curl-7.36.0/lib/.libs/libcurl.a(libcurl_la-tftp.o)
 .data          0x00000000005032b0        0x0 /home/ql_xu/develop/trunk/uClinux-dist/user/curl-7.36.0/lib/.libs/libcurl.a(libcurl_la-socks.o)
 .data          0x00000000005032b0        0x0 /home/ql_xu/develop/trunk/uClinux-dist/user/curl-7.36.0/lib/.libs/libcurl.a(libcurl_la-rawstr.o)
 .data          0x00000000005032b0        0x0 /home/ql_xu/develop/trunk/uClinux-dist/user/curl-7.36.0/lib/.libs/libcurl.a(libcurl_la-curl_addrinfo.o)
 .data          0x00000000005032b0        0x0 /home/ql_xu/develop/trunk/uClinux-dist/user/curl-7.36.0/lib/.libs/libcurl.a(libcurl_la-curl_memrchr.o)
 .data          0x00000000005032b0        0x0 /home/ql_xu/develop/trunk/uClinux-dist/user/curl-7.36.0/lib/.libs/libcurl.a(libcurl_la-imap.o)
 .data          0x00000000005032b0        0x0 /home/ql_xu/develop/trunk/uClinux-dist/user/curl-7.36.0/lib/.libs/libcurl.a(libcurl_la-pop3.o)
 .data          0x00000000005032b0        0x0 /home/ql_xu/develop/trunk/uClinux-dist/user/curl-7.36.0/lib/.libs/libcurl.a(libcurl_la-smtp.o)
 .data          0x00000000005032b0        0x0 /home/ql_xu/develop/trunk/uClinux-dist/user/curl-7.36.0/lib/.libs/libcurl.a(libcurl_la-pingpong.o)
 .data          0x00000000005032b0        0x0 /home/ql_xu/develop/trunk/uClinux-dist/user/curl-7.36.0/lib/.libs/libcurl.a(libcurl_la-rtsp.o)
 .data          0x00000000005032b0        0x0 /home/ql_xu/develop/trunk/uClinux-dist/user/curl-7.36.0/lib/.libs/libcurl.a(libcurl_la-curl_gethostname.o)
 .data          0x00000000005032b0        0x0 /home/ql_xu/develop/trunk/uClinux-dist/user/curl-7.36.0/lib/.libs/libcurl.a(libcurl_la-gopher.o)
 .data          0x00000000005032b0        0x0 /home/ql_xu/develop/trunk/uClinux-dist/user/curl-7.36.0/lib/.libs/libcurl.a(libcurl_la-http_proxy.o)
 .data          0x00000000005032b0        0x0 /home/ql_xu/develop/trunk/uClinux-dist/user/curl-7.36.0/lib/.libs/libcurl.a(libcurl_la-curl_sasl.o)
 .data          0x00000000005032b0        0x0 /home/ql_xu/develop/trunk/uClinux-dist/user/curl-7.36.0/lib/.libs/libcurl.a(libcurl_la-bundles.o)
 .data          0x00000000005032b0        0x0 /home/ql_xu/develop/trunk/uClinux-dist/user/curl-7.36.0/lib/.libs/libcurl.a(libcurl_la-dotdot.o)
 .data          0x00000000005032b0        0x0 /home/ql_xu/develop/trunk/uClinux-dist/user/curl-7.36.0/lib/.libs/libcurl.a(libcurl_la-vtls.o)
 .data          0x00000000005032b0        0x0 /home/ql_xu/develop/trunk/uClinux-dist/user/curl-7.36.0/lib/.libs/libcurl.a(libcurl_la-file.o)
 .data          0x00000000005032b0        0x0 /home/ql_xu/develop/trunk/uClinux-dist/user/curl-7.36.0/lib/.libs/libcurl.a(libcurl_la-base64.o)
 .data          0x00000000005032b0        0x0 /home/ql_xu/develop/trunk/uClinux-dist/user/curl-7.36.0/lib/.libs/libcurl.a(libcurl_la-formdata.o)
 .data          0x00000000005032b0        0x0 /home/ql_xu/develop/trunk/uClinux-dist/user/curl-7.36.0/lib/.libs/libcurl.a(libcurl_la-ftp.o)
 .data          0x00000000005032b0        0x0 /home/ql_xu/develop/trunk/uClinux-dist/user/curl-7.36.0/lib/.libs/libcurl.a(libcurl_la-fileinfo.o)
 .data          0x00000000005032b0        0x0 /home/ql_xu/develop/trunk/uClinux-dist/user/curl-7.36.0/lib/.libs/libcurl.a(libcurl_la-ftplistparser.o)
 .data          0x00000000005032b0        0x0 /home/ql_xu/develop/trunk/uClinux-dist/user/curl-7.36.0/lib/.libs/libcurl.a(libcurl_la-hmac.o)
 .data          0x00000000005032b0        0x0 /home/ql_xu/develop/trunk/uClinux-dist/user/curl-7.36.0/lib/.libs/libcurl.a(libcurl_la-curl_fnmatch.o)
 .data          0x00000000005032b0        0x0 /home/ql_xu/develop/trunk/uClinux-dist/lib/zlib/libz.a(deflate.o)
 .data.rel.local
                0x00000000005032b0        0x4 /home/ql_xu/develop/trunk/uClinux-dist/lib/zlib/libz.a(deflate.o)
 *fill*         0x00000000005032b4        0xc 
 .data          0x00000000005032c0        0x0 /home/ql_xu/develop/trunk/uClinux-dist/lib/zlib/libz.a(trees.o)
 .data.rel.local
                0x00000000005032c0       0x3c /home/ql_xu/develop/trunk/uClinux-dist/lib/zlib/libz.a(trees.o)
 *fill*         0x00000000005032fc        0x4 
 .data          0x0000000000503300        0x0 /home/ql_xu/develop/trunk/uClinux-dist/lib/zlib/libz.a(zutil.o)
 .data.rel.local
                0x0000000000503300       0x28 /home/ql_xu/develop/trunk/uClinux-dist/lib/zlib/libz.a(zutil.o)
                0x0000000000503300                z_errmsg
 *fill*         0x0000000000503328        0x8 
 .data          0x0000000000503330        0x0 /home/ql_xu/develop/trunk/uClinux-dist/lib/zlib/libz.a(inflate.o)
 .data          0x0000000000503330        0x0 /home/ql_xu/develop/trunk/uClinux-dist/lib/zlib/libz.a(infblock.o)
 .data          0x0000000000503330     0x1110 /home/ql_xu/develop/trunk/uClinux-dist/lib/zlib/libz.a(inftrees.o)
 .data          0x0000000000504440        0x0 /home/ql_xu/develop/trunk/uClinux-dist/lib/zlib/libz.a(infcodes.o)
 .data          0x0000000000504440       0x50 /home/ql_xu/develop/trunk/uClinux-dist/lib/zlib/libz.a(infutil.o)
                0x0000000000504440                inflate_mask
 .data          0x0000000000504490        0x0 /home/ql_xu/develop/trunk/uClinux-dist/lib/zlib/libz.a(inffast.o)
 .data          0x0000000000504490        0x0 /home/ql_xu/develop/trunk/uClinux-dist/lib/zlib/libz.a(adler32.o)
 .data          0x0000000000504490        0x0 /rsdk-4.4.7-5281-EB-2.6.30-0.9.33-m32utb-140606/bin/../lib/gcc/mips-linux-uclibc/4.4.7/5281/libgcc.a(_fixunssfsi.o)
 .data          0x0000000000504490        0x0 /rsdk-4.4.7-5281-EB-2.6.30-0.9.33-m32utb-140606/bin/../lib/gcc/mips-linux-uclibc/4.4.7/5281/libgcc.a(_fixunsdfsi.o)
 .data          0x0000000000504490        0x0 /rsdk-4.4.7-5281-EB-2.6.30-0.9.33-m32utb-140606/bin/../lib/gcc/mips-linux-uclibc/4.4.7/5281/libgcc.a(_fixdfdi.o)
 .data          0x0000000000504490        0x0 /rsdk-4.4.7-5281-EB-2.6.30-0.9.33-m32utb-140606/bin/../lib/gcc/mips-linux-uclibc/4.4.7/5281/libgcc.a(_fixunsdfdi.o)
 .data          0x0000000000504490        0x0 /rsdk-4.4.7-5281-EB-2.6.30-0.9.33-m32utb-140606/bin/../lib/gcc/mips-linux-uclibc/4.4.7/5281/libgcc.a(_floatdidf.o)
 .data          0x0000000000504490        0x0 /rsdk-4.4.7-5281-EB-2.6.30-0.9.33-m32utb-140606/bin/../lib/gcc/mips-linux-uclibc/4.4.7/5281/libgcc.a(_floatundisf.o)
 .data          0x0000000000504490        0x0 /rsdk-4.4.7-5281-EB-2.6.30-0.9.33-m32utb-140606/bin/../lib/gcc/mips-linux-uclibc/4.4.7/5281/libgcc.a(_floatundidf.o)
 .data          0x0000000000504490        0x0 /rsdk-4.4.7-5281-EB-2.6.30-0.9.33-m32utb-140606/bin/../lib/gcc/mips-linux-uclibc/4.4.7/5281/libgcc.a(_divdi3.o)
 .data          0x0000000000504490        0x0 /rsdk-4.4.7-5281-EB-2.6.30-0.9.33-m32utb-140606/bin/../lib/gcc/mips-linux-uclibc/4.4.7/5281/libgcc.a(_udivdi3.o)
 .data          0x0000000000504490        0x0 /rsdk-4.4.7-5281-EB-2.6.30-0.9.33-m32utb-140606/bin/../lib/gcc/mips-linux-uclibc/4.4.7/5281/libgcc.a(_umoddi3.o)
 .data          0x0000000000504490        0x0 /rsdk-4.4.7-5281-EB-2.6.30-0.9.33-m32utb-140606/bin/../lib/gcc/mips-linux-uclibc/4.4.7/5281/libgcc.a(addsf3.o)
 .data          0x0000000000504490        0x0 /rsdk-4.4.7-5281-EB-2.6.30-0.9.33-m32utb-140606/bin/../lib/gcc/mips-linux-uclibc/4.4.7/5281/libgcc.a(divsf3.o)
 .data          0x0000000000504490        0x0 /rsdk-4.4.7-5281-EB-2.6.30-0.9.33-m32utb-140606/bin/../lib/gcc/mips-linux-uclibc/4.4.7/5281/libgcc.a(gesf2.o)
 .data          0x0000000000504490        0x0 /rsdk-4.4.7-5281-EB-2.6.30-0.9.33-m32utb-140606/bin/../lib/gcc/mips-linux-uclibc/4.4.7/5281/libgcc.a(lesf2.o)
 .data          0x0000000000504490        0x0 /rsdk-4.4.7-5281-EB-2.6.30-0.9.33-m32utb-140606/bin/../lib/gcc/mips-linux-uclibc/4.4.7/5281/libgcc.a(mulsf3.o)
 .data          0x0000000000504490        0x0 /rsdk-4.4.7-5281-EB-2.6.30-0.9.33-m32utb-140606/bin/../lib/gcc/mips-linux-uclibc/4.4.7/5281/libgcc.a(subsf3.o)
 .data          0x0000000000504490        0x0 /rsdk-4.4.7-5281-EB-2.6.30-0.9.33-m32utb-140606/bin/../lib/gcc/mips-linux-uclibc/4.4.7/5281/libgcc.a(fixsfsi.o)
 .data          0x0000000000504490        0x0 /rsdk-4.4.7-5281-EB-2.6.30-0.9.33-m32utb-140606/bin/../lib/gcc/mips-linux-uclibc/4.4.7/5281/libgcc.a(floatsisf.o)
 .data          0x0000000000504490        0x0 /rsdk-4.4.7-5281-EB-2.6.30-0.9.33-m32utb-140606/bin/../lib/gcc/mips-linux-uclibc/4.4.7/5281/libgcc.a(floatunsisf.o)
 .data          0x0000000000504490        0x0 /rsdk-4.4.7-5281-EB-2.6.30-0.9.33-m32utb-140606/bin/../lib/gcc/mips-linux-uclibc/4.4.7/5281/libgcc.a(adddf3.o)
 .data          0x0000000000504490        0x0 /rsdk-4.4.7-5281-EB-2.6.30-0.9.33-m32utb-140606/bin/../lib/gcc/mips-linux-uclibc/4.4.7/5281/libgcc.a(divdf3.o)
 .data          0x0000000000504490        0x0 /rsdk-4.4.7-5281-EB-2.6.30-0.9.33-m32utb-140606/bin/../lib/gcc/mips-linux-uclibc/4.4.7/5281/libgcc.a(gedf2.o)
 .data          0x0000000000504490        0x0 /rsdk-4.4.7-5281-EB-2.6.30-0.9.33-m32utb-140606/bin/../lib/gcc/mips-linux-uclibc/4.4.7/5281/libgcc.a(ledf2.o)
 .data          0x0000000000504490        0x0 /rsdk-4.4.7-5281-EB-2.6.30-0.9.33-m32utb-140606/bin/../lib/gcc/mips-linux-uclibc/4.4.7/5281/libgcc.a(muldf3.o)
 .data          0x0000000000504490        0x0 /rsdk-4.4.7-5281-EB-2.6.30-0.9.33-m32utb-140606/bin/../lib/gcc/mips-linux-uclibc/4.4.7/5281/libgcc.a(subdf3.o)
 .data          0x0000000000504490        0x0 /rsdk-4.4.7-5281-EB-2.6.30-0.9.33-m32utb-140606/bin/../lib/gcc/mips-linux-uclibc/4.4.7/5281/libgcc.a(fixdfsi.o)
 .data          0x0000000000504490        0x0 /rsdk-4.4.7-5281-EB-2.6.30-0.9.33-m32utb-140606/bin/../lib/gcc/mips-linux-uclibc/4.4.7/5281/libgcc.a(floatsidf.o)
 .data          0x0000000000504490        0x0 /rsdk-4.4.7-5281-EB-2.6.30-0.9.33-m32utb-140606/bin/../lib/gcc/mips-linux-uclibc/4.4.7/5281/libgcc.a(floatunsidf.o)
 .data          0x0000000000504490        0x0 /rsdk-4.4.7-5281-EB-2.6.30-0.9.33-m32utb-140606/bin/../lib/gcc/mips-linux-uclibc/4.4.7/5281/libgcc.a(extendsfdf2.o)
 .data          0x0000000000504490        0x0 /rsdk-4.4.7-5281-EB-2.6.30-0.9.33-m32utb-140606/bin/../lib/gcc/mips-linux-uclibc/4.4.7/5281/libgcc.a(truncdfsf2.o)
 .data          0x0000000000504490        0x0 /rsdk-4.4.7-5281-EB-2.6.30-0.9.33-m32utb-140606/bin/../lib/gcc/mips-linux-uclibc/4.4.7/5281/libgcc.a(_clz.o)
 .data          0x0000000000504490        0x0 /rsdk-4.4.7-5281-EB-2.6.30-0.9.33-m32utb-140606/bin/../lib/gcc/mips-linux-uclibc/4.4.7/5281/libgcc.a(_clzsi2.o)
 .data          0x0000000000504490        0x0 /rsdk-4.4.7-5281-EB-2.6.30-0.9.33-m32utb-140606/bin/../lib/gcc/mips-linux-uclibc/4.4.7/5281/crtend.o
 .data          0x0000000000504490        0x0 /rsdk-4.4.7-5281-EB-2.6.30-0.9.33-m32utb-140606/bin/../lib/gcc/mips-linux-uclibc/4.4.7/../../../../mips-linux-uclibc/lib/crtn.o

.rld_map        0x0000000000504490        0x4
 .rld_map       0x0000000000504490        0x4 /rsdk-4.4.7-5281-EB-2.6.30-0.9.33-m32utb-140606/bin/../lib/gcc/mips-linux-uclibc/4.4.7/../../../../mips-linux-uclibc/lib/crt1.o
                0x0000000000504490                __RLD_MAP

.data1
 *(.data1)

.got.plt        0x0000000000504494      0x37c
 *(.got.plt)
 .got.plt       0x0000000000504494      0x37c /rsdk-4.4.7-5281-EB-2.6.30-0.9.33-m32utb-140606/bin/../lib/gcc/mips-linux-uclibc/4.4.7/../../../../mips-linux-uclibc/lib/crt1.o
                0x0000000000504810                . = .
                0x0000000000504810                . = .
                0x000000000050c800                _gp = (ALIGN (0x10) + 0x7ff0)

.got            0x0000000000504810      0x138
 *(.got)
 .got           0x0000000000504810      0x138 /rsdk-4.4.7-5281-EB-2.6.30-0.9.33-m32utb-140606/bin/../lib/gcc/mips-linux-uclibc/4.4.7/../../../../mips-linux-uclibc/lib/crt1.o
                0x0000000000504810                _GLOBAL_OFFSET_TABLE_

.sdata          0x0000000000504948        0x4
 *(.sdata .sdata.* .gnu.linkonce.s.*)
 .sdata         0x0000000000504948        0x4 /rsdk-4.4.7-5281-EB-2.6.30-0.9.33-m32utb-140606/bin/../lib/gcc/mips-linux-uclibc/4.4.7/5281/crtbegin.o
                0x0000000000504948                __dso_handle

.lit8
 *(.lit8)

.lit4
 *(.lit4)
                0x000000000050494c                _edata = .
                0x000000000050494c                PROVIDE (edata, .)
                0x000000000050494c                . = .
                0x000000000050494c                __bss_start = .
                0x000000000050494c                _fbss = .

.sbss           0x000000000050494c        0x4
 *(.dynsbss)
 *(.sbss .sbss.* .gnu.linkonce.sb.*)
 *(.scommon)
 .scommon       0x000000000050494c        0x4 ../third-party/dht/libdht.a(dht.o)
                0x000000000050494c                next_blacklisted

.bss            0x0000000000504950     0x1210
 *(.dynbss)
 .dynbss        0x0000000000504950       0x40 /rsdk-4.4.7-5281-EB-2.6.30-0.9.33-m32utb-140606/bin/../lib/gcc/mips-linux-uclibc/4.4.7/../../../../mips-linux-uclibc/lib/crt1.o
                0x0000000000504950                __ctype_tolower
                0x0000000000504954                stdout
                0x0000000000504958                stderr
                0x000000000050495c                __ctype_b
                0x0000000000504960                __ctype_toupper
                0x0000000000504970                stdin
                0x0000000000504980                in6addr_any
 *(.bss .bss.* .gnu.linkonce.b.*)
 .bss           0x0000000000504990        0x0 /rsdk-4.4.7-5281-EB-2.6.30-0.9.33-m32utb-140606/bin/../lib/gcc/mips-linux-uclibc/4.4.7/../../../../mips-linux-uclibc/lib/crt1.o
 .bss           0x0000000000504990        0x0 /rsdk-4.4.7-5281-EB-2.6.30-0.9.33-m32utb-140606/bin/../lib/gcc/mips-linux-uclibc/4.4.7/../../../../mips-linux-uclibc/lib/crti.o
 .bss           0x0000000000504990       0x20 /rsdk-4.4.7-5281-EB-2.6.30-0.9.33-m32utb-140606/bin/../lib/gcc/mips-linux-uclibc/4.4.7/5281/crtbegin.o
 .bss           0x00000000005049b0       0x20 cli.o
 .bss           0x00000000005049d0        0x0 ../libtransmission/libtransmission.a(bencode.o)
 .bss           0x00000000005049d0        0x0 ../libtransmission/libtransmission.a(ConvertUTF.o)
 .bss           0x00000000005049d0       0x10 ../libtransmission/libtransmission.a(fdlimit.o)
 .bss           0x00000000005049e0        0x0 ../libtransmission/libtransmission.a(json.o)
 .bss           0x00000000005049e0        0x0 ../libtransmission/libtransmission.a(JSON_parser.o)
 .bss           0x00000000005049e0       0x10 ../libtransmission/libtransmission.a(list.o)
 .bss           0x00000000005049f0       0x50 ../libtransmission/libtransmission.a(net.o)
 .bss           0x0000000000504a40      0x210 ../libtransmission/libtransmission.a(peer-io.o)
 .bss           0x0000000000504c50       0x20 ../libtransmission/libtransmission.a(platform.o)
 .bss           0x0000000000504c70        0x0 ../libtransmission/libtransmission.a(ptrarray.o)
 .bss           0x0000000000504c70       0x10 ../libtransmission/libtransmission.a(session.o)
 .bss           0x0000000000504c80        0x0 ../libtransmission/libtransmission.a(stats.o)
 .bss           0x0000000000504c80        0x0 ../libtransmission/libtransmission.a(torrent.o)
 .bss           0x0000000000504c80        0x0 ../libtransmission/libtransmission.a(torrent-ctor.o)
 .bss           0x0000000000504c80        0x0 ../libtransmission/libtransmission.a(torrent-magnet.o)
 .bss           0x0000000000504c80       0x20 ../libtransmission/libtransmission.a(tr-dht.o)
 .bss           0x0000000000504ca0       0x30 ../libtransmission/libtransmission.a(tr-lpd.o)
 .bss           0x0000000000504cd0        0x0 ../libtransmission/libtransmission.a(tr-udp.o)
 .bss           0x0000000000504cd0       0x10 ../libtransmission/libtransmission.a(tr-utp.o)
 .bss           0x0000000000504ce0        0x0 ../libtransmission/libtransmission.a(tr-getopt.o)
 .bss           0x0000000000504ce0        0x0 ../libtransmission/libtransmission.a(trevent.o)
 .bss           0x0000000000504ce0       0xf0 ../libtransmission/libtransmission.a(utils.o)
                0x0000000000504ce0                __tr_current_time
                0x0000000000504ce4                tr_speed_K
                0x0000000000504ce8                tr_mem_K
 .bss           0x0000000000504dd0       0x20 ../libtransmission/libtransmission.a(verify.o)
 .bss           0x0000000000504df0        0x0 ../libtransmission/libtransmission.a(web.o)
 .bss           0x0000000000504df0        0x0 ../libtransmission/libtransmission.a(announcer.o)
 .bss           0x0000000000504df0        0x0 ../libtransmission/libtransmission.a(announcer-http.o)
 .bss           0x0000000000504df0        0x0 ../libtransmission/libtransmission.a(announcer-udp.o)
 .bss           0x0000000000504df0       0x10 ../libtransmission/libtransmission.a(bandwidth.o)
 .bss           0x0000000000504e00        0x0 ../libtransmission/libtransmission.a(bitfield.o)
 .bss           0x0000000000504e00        0x0 ../libtransmission/libtransmission.a(blocklist.o)
 .bss           0x0000000000504e00        0x0 ../libtransmission/libtransmission.a(cache.o)
 .bss           0x0000000000504e00        0x0 ../libtransmission/libtransmission.a(completion.o)
 .bss           0x0000000000504e00       0x10 ../libtransmission/libtransmission.a(crypto.o)
 .bss           0x0000000000504e10        0x0 ../libtransmission/libtransmission.a(inout.o)
 .bss           0x0000000000504e10        0x0 ../libtransmission/libtransmission.a(magnet.o)
 .bss           0x0000000000504e10        0x0 ../libtransmission/libtransmission.a(metainfo.o)
 .bss           0x0000000000504e10       0x10 ../libtransmission/libtransmission.a(peer-mgr.o)
 .bss           0x0000000000504e20        0x0 ../libtransmission/libtransmission.a(peer-msgs.o)
 .bss           0x0000000000504e20        0x0 ../libtransmission/libtransmission.a(port-forwarding.o)
 .bss           0x0000000000504e20        0x0 ../libtransmission/libtransmission.a(resume.o)
 .bss           0x0000000000504e20        0x0 ../libtransmission/libtransmission.a(rpc-server.o)
 .bss           0x0000000000504e20        0x0 ../libtransmission/libtransmission.a(upnp.o)
 .bss           0x0000000000504e20        0x0 ../libtransmission/libtransmission.a(webseed.o)
 .bss           0x0000000000504e20        0x0 ../libtransmission/libtransmission.a(wildmat.o)
 .bss           0x0000000000504e20        0x0 ../libtransmission/libtransmission.a(clients.o)
 .bss           0x0000000000504e20        0x0 ../libtransmission/libtransmission.a(handshake.o)
 .bss           0x0000000000504e20        0x0 ../libtransmission/libtransmission.a(history.o)
 .bss           0x0000000000504e20        0x0 ../libtransmission/libtransmission.a(natpmp.o)
 .bss           0x0000000000504e20        0x0 ../libtransmission/libtransmission.a(rpcimpl.o)
 .bss           0x0000000000504e20        0x0 ../third-party/libnatpmp/libnatpmp.a(natpmp.o)
 .bss           0x0000000000504e20        0x0 ../third-party/libnatpmp/libnatpmp.a(getgateway.o)
 .bss           0x0000000000504e20        0x0 ../third-party/miniupnp/libminiupnp.a(miniupnpc.o)
 .bss           0x0000000000504e20        0x0 ../third-party/miniupnp/libminiupnp.a(miniwget.o)
 .bss           0x0000000000504e20        0x0 ../third-party/miniupnp/libminiupnp.a(minixml.o)
 .bss           0x0000000000504e20        0x0 ../third-party/miniupnp/libminiupnp.a(receivedata.o)
 .bss           0x0000000000504e20        0x0 ../third-party/miniupnp/libminiupnp.a(upnpcommands.o)
 .bss           0x0000000000504e20        0x0 ../third-party/miniupnp/libminiupnp.a(upnpreplyparse.o)
 .bss           0x0000000000504e20        0x0 ../third-party/miniupnp/libminiupnp.a(connecthostport.o)
 .bss           0x0000000000504e20        0x0 ../third-party/miniupnp/libminiupnp.a(igd_desc_parse.o)
 .bss           0x0000000000504e20        0x0 ../third-party/miniupnp/libminiupnp.a(minisoap.o)
 .bss           0x0000000000504e20        0x0 ../third-party/miniupnp/libminiupnp.a(minissdpc.o)
 .bss           0x0000000000504e20        0x0 ../third-party/miniupnp/libminiupnp.a(portlistingparse.o)
 .bss           0x0000000000504e20      0x580 ../third-party/dht/libdht.a(dht.o)
                0x0000000000504e20                dht_debug
 .bss           0x00000000005053a0       0xd0 ../third-party/libutp/libutp.a(utp.o)
                0x00000000005053a0                g_current_ms
                0x00000000005053a4                addrbuf
                0x00000000005053e8                addrbuf2
                0x000000000050542c                g_rst_info
                0x0000000000505438                g_utp_sockets
 .bss           0x0000000000505470       0x10 ../third-party/libutp/libutp.a(utp_utils.o)
 .bss           0x0000000000505480       0x30 /home/ql_xu/develop/trunk/uClinux-dist/lib/libevent/.libs/libevent.a(event.o)
                0x0000000000505480                event_global_current_base_
                0x0000000000505484                _event_debug_mode_on
 .bss           0x00000000005054b0       0x60 /home/ql_xu/develop/trunk/uClinux-dist/lib/libevent/.libs/libevent.a(evthread.o)
                0x00000000005054b0                _evthread_lock_debugging_enabled
                0x00000000005054b4                _evthread_lock_fns
                0x00000000005054cc                _evthread_id_fn
                0x00000000005054d0                _evthread_cond_fns
 .bss           0x0000000000505510        0x0 /home/ql_xu/develop/trunk/uClinux-dist/lib/libevent/.libs/libevent.a(buffer.o)
 .bss           0x0000000000505510        0x0 /home/ql_xu/develop/trunk/uClinux-dist/lib/libevent/.libs/libevent.a(bufferevent.o)
 .bss           0x0000000000505510        0x0 /home/ql_xu/develop/trunk/uClinux-dist/lib/libevent/.libs/libevent.a(bufferevent_ratelim.o)
 .bss           0x0000000000505510        0x0 /home/ql_xu/develop/trunk/uClinux-dist/lib/libevent/.libs/libevent.a(evmap.o)
 .bss           0x0000000000505510       0x10 /home/ql_xu/develop/trunk/uClinux-dist/lib/libevent/.libs/libevent.a(log.o)
 .bss           0x0000000000505520       0x20 /home/ql_xu/develop/trunk/uClinux-dist/lib/libevent/.libs/libevent.a(evutil.o)
 .bss           0x0000000000505540      0x120 /home/ql_xu/develop/trunk/uClinux-dist/lib/libevent/.libs/libevent.a(evutil_rand.o)
 .bss           0x0000000000505660        0x0 /home/ql_xu/develop/trunk/uClinux-dist/lib/libevent/.libs/libevent.a(select.o)
 .bss           0x0000000000505660        0x0 /home/ql_xu/develop/trunk/uClinux-dist/lib/libevent/.libs/libevent.a(poll.o)
 .bss           0x0000000000505660        0x0 /home/ql_xu/develop/trunk/uClinux-dist/lib/libevent/.libs/libevent.a(epoll.o)
 .bss           0x0000000000505660      0x410 /home/ql_xu/develop/trunk/uClinux-dist/lib/libevent/.libs/libevent.a(signal.o)
 .bss           0x0000000000505a70        0x0 /home/ql_xu/develop/trunk/uClinux-dist/lib/libevent/.libs/libevent.a(http.o)
 .bss           0x0000000000505a70       0x10 /home/ql_xu/develop/trunk/uClinux-dist/lib/libevent/.libs/libevent.a(evdns.o)
 .bss           0x0000000000505a80        0x0 /home/ql_xu/develop/trunk/uClinux-dist/lib/libevent/.libs/libevent.a(bufferevent_sock.o)
 .bss           0x0000000000505a80        0x0 /home/ql_xu/develop/trunk/uClinux-dist/lib/libevent/.libs/libevent.a(listener.o)
 .bss           0x0000000000505a80        0x0 /home/ql_xu/develop/trunk/uClinux-dist/user/curl-7.36.0/lib/.libs/libcurl.a(libcurl_la-escape.o)
 .bss           0x0000000000505a80        0x0 /home/ql_xu/develop/trunk/uClinux-dist/user/curl-7.36.0/lib/.libs/libcurl.a(libcurl_la-mprintf.o)
 .bss           0x0000000000505a80       0x10 /home/ql_xu/develop/trunk/uClinux-dist/user/curl-7.36.0/lib/.libs/libcurl.a(libcurl_la-easy.o)
 .bss           0x0000000000505a90        0x0 /home/ql_xu/develop/trunk/uClinux-dist/user/curl-7.36.0/lib/.libs/libcurl.a(libcurl_la-connect.o)
 .bss           0x0000000000505a90        0x0 /home/ql_xu/develop/trunk/uClinux-dist/user/curl-7.36.0/lib/.libs/libcurl.a(libcurl_la-multi.o)
 .bss           0x0000000000505a90        0x0 /home/ql_xu/develop/trunk/uClinux-dist/user/curl-7.36.0/lib/.libs/libcurl.a(libcurl_la-strerror.o)
 .bss           0x0000000000505a90       0x10 /home/ql_xu/develop/trunk/uClinux-dist/user/curl-7.36.0/lib/.libs/libcurl.a(libcurl_la-select.o)
                0x0000000000505a90                Curl_ack_eintr
 .bss           0x0000000000505aa0        0x0 /home/ql_xu/develop/trunk/uClinux-dist/user/curl-7.36.0/lib/.libs/libcurl.a(libcurl_la-splay.o)
 .bss           0x0000000000505aa0        0x0 /home/ql_xu/develop/trunk/uClinux-dist/user/curl-7.36.0/lib/.libs/libcurl.a(libcurl_la-slist.o)
 .bss           0x0000000000505aa0        0x0 /home/ql_xu/develop/trunk/uClinux-dist/user/curl-7.36.0/lib/.libs/libcurl.a(libcurl_la-nonblock.o)
 .bss           0x0000000000505aa0        0x0 /home/ql_xu/develop/trunk/uClinux-dist/user/curl-7.36.0/lib/.libs/libcurl.a(libcurl_la-warnless.o)
 .bss           0x0000000000505aa0        0x0 /home/ql_xu/develop/trunk/uClinux-dist/user/curl-7.36.0/lib/.libs/libcurl.a(libcurl_la-conncache.o)
 .bss           0x0000000000505aa0        0x0 /home/ql_xu/develop/trunk/uClinux-dist/user/curl-7.36.0/lib/.libs/libcurl.a(libcurl_la-pipeline.o)
 .bss           0x0000000000505aa0        0x0 /home/ql_xu/develop/trunk/uClinux-dist/user/curl-7.36.0/lib/.libs/libcurl.a(libcurl_la-timeval.o)
 .bss           0x0000000000505aa0       0x20 /home/ql_xu/develop/trunk/uClinux-dist/user/curl-7.36.0/lib/.libs/libcurl.a(libcurl_la-hostip.o)
 .bss           0x0000000000505ac0        0x0 /home/ql_xu/develop/trunk/uClinux-dist/user/curl-7.36.0/lib/.libs/libcurl.a(libcurl_la-progress.o)
 .bss           0x0000000000505ac0        0x0 /home/ql_xu/develop/trunk/uClinux-dist/user/curl-7.36.0/lib/.libs/libcurl.a(libcurl_la-cookie.o)
 .bss           0x0000000000505ac0        0x0 /home/ql_xu/develop/trunk/uClinux-dist/user/curl-7.36.0/lib/.libs/libcurl.a(libcurl_la-http.o)
 .bss           0x0000000000505ac0        0x0 /home/ql_xu/develop/trunk/uClinux-dist/user/curl-7.36.0/lib/.libs/libcurl.a(libcurl_la-sendf.o)
 .bss           0x0000000000505ac0       0x10 /home/ql_xu/develop/trunk/uClinux-dist/user/curl-7.36.0/lib/.libs/libcurl.a(libcurl_la-url.o)
 .bss           0x0000000000505ad0        0x0 /home/ql_xu/develop/trunk/uClinux-dist/user/curl-7.36.0/lib/.libs/libcurl.a(libcurl_la-dict.o)
 .bss           0x0000000000505ad0        0x0 /home/ql_xu/develop/trunk/uClinux-dist/user/curl-7.36.0/lib/.libs/libcurl.a(libcurl_la-if2ip.o)
 .bss           0x0000000000505ad0        0x0 /home/ql_xu/develop/trunk/uClinux-dist/user/curl-7.36.0/lib/.libs/libcurl.a(libcurl_la-speedcheck.o)
 .bss           0x0000000000505ad0        0x0 /home/ql_xu/develop/trunk/uClinux-dist/user/curl-7.36.0/lib/.libs/libcurl.a(libcurl_la-getenv.o)
 .bss           0x0000000000505ad0        0x0 /home/ql_xu/develop/trunk/uClinux-dist/user/curl-7.36.0/lib/.libs/libcurl.a(libcurl_la-telnet.o)
 .bss           0x0000000000505ad0        0x0 /home/ql_xu/develop/trunk/uClinux-dist/user/curl-7.36.0/lib/.libs/libcurl.a(libcurl_la-netrc.o)
 .bss           0x0000000000505ad0        0x0 /home/ql_xu/develop/trunk/uClinux-dist/user/curl-7.36.0/lib/.libs/libcurl.a(libcurl_la-getinfo.o)
 .bss           0x0000000000505ad0        0x0 /home/ql_xu/develop/trunk/uClinux-dist/user/curl-7.36.0/lib/.libs/libcurl.a(libcurl_la-transfer.o)
 .bss           0x0000000000505ad0        0x0 /home/ql_xu/develop/trunk/uClinux-dist/user/curl-7.36.0/lib/.libs/libcurl.a(libcurl_la-strequal.o)
 .bss           0x0000000000505ad0        0x0 /home/ql_xu/develop/trunk/uClinux-dist/user/curl-7.36.0/lib/.libs/libcurl.a(libcurl_la-wildcard.o)
 .bss           0x0000000000505ad0        0x0 /home/ql_xu/develop/trunk/uClinux-dist/user/curl-7.36.0/lib/.libs/libcurl.a(libcurl_la-http_chunks.o)
 .bss           0x0000000000505ad0        0x0 /home/ql_xu/develop/trunk/uClinux-dist/user/curl-7.36.0/lib/.libs/libcurl.a(libcurl_la-llist.o)
 .bss           0x0000000000505ad0        0x0 /home/ql_xu/develop/trunk/uClinux-dist/user/curl-7.36.0/lib/.libs/libcurl.a(libcurl_la-hash.o)
 .bss           0x0000000000505ad0        0x0 /home/ql_xu/develop/trunk/uClinux-dist/user/curl-7.36.0/lib/.libs/libcurl.a(libcurl_la-share.o)
 .bss           0x0000000000505ad0        0x0 /home/ql_xu/develop/trunk/uClinux-dist/user/curl-7.36.0/lib/.libs/libcurl.a(libcurl_la-http_digest.o)
 .bss           0x0000000000505ad0        0x0 /home/ql_xu/develop/trunk/uClinux-dist/user/curl-7.36.0/lib/.libs/libcurl.a(libcurl_la-md5.o)
 .bss           0x0000000000505ad0        0x0 /home/ql_xu/develop/trunk/uClinux-dist/user/curl-7.36.0/lib/.libs/libcurl.a(libcurl_la-hostip4.o)
 .bss           0x0000000000505ad0        0x0 /home/ql_xu/develop/trunk/uClinux-dist/user/curl-7.36.0/lib/.libs/libcurl.a(libcurl_la-hostsyn.o)
 .bss           0x0000000000505ad0        0x0 /home/ql_xu/develop/trunk/uClinux-dist/user/curl-7.36.0/lib/.libs/libcurl.a(libcurl_la-parsedate.o)
 .bss           0x0000000000505ad0        0x0 /home/ql_xu/develop/trunk/uClinux-dist/user/curl-7.36.0/lib/.libs/libcurl.a(libcurl_la-tftp.o)
 .bss           0x0000000000505ad0        0x0 /home/ql_xu/develop/trunk/uClinux-dist/user/curl-7.36.0/lib/.libs/libcurl.a(libcurl_la-socks.o)
 .bss           0x0000000000505ad0        0x0 /home/ql_xu/develop/trunk/uClinux-dist/user/curl-7.36.0/lib/.libs/libcurl.a(libcurl_la-rawstr.o)
 .bss           0x0000000000505ad0        0x0 /home/ql_xu/develop/trunk/uClinux-dist/user/curl-7.36.0/lib/.libs/libcurl.a(libcurl_la-curl_addrinfo.o)
 .bss           0x0000000000505ad0        0x0 /home/ql_xu/develop/trunk/uClinux-dist/user/curl-7.36.0/lib/.libs/libcurl.a(libcurl_la-curl_memrchr.o)
 .bss           0x0000000000505ad0        0x0 /home/ql_xu/develop/trunk/uClinux-dist/user/curl-7.36.0/lib/.libs/libcurl.a(libcurl_la-imap.o)
 .bss           0x0000000000505ad0        0x0 /home/ql_xu/develop/trunk/uClinux-dist/user/curl-7.36.0/lib/.libs/libcurl.a(libcurl_la-pop3.o)
 .bss           0x0000000000505ad0        0x0 /home/ql_xu/develop/trunk/uClinux-dist/user/curl-7.36.0/lib/.libs/libcurl.a(libcurl_la-smtp.o)
 .bss           0x0000000000505ad0        0x0 /home/ql_xu/develop/trunk/uClinux-dist/user/curl-7.36.0/lib/.libs/libcurl.a(libcurl_la-pingpong.o)
 .bss           0x0000000000505ad0        0x0 /home/ql_xu/develop/trunk/uClinux-dist/user/curl-7.36.0/lib/.libs/libcurl.a(libcurl_la-rtsp.o)
 .bss           0x0000000000505ad0        0x0 /home/ql_xu/develop/trunk/uClinux-dist/user/curl-7.36.0/lib/.libs/libcurl.a(libcurl_la-curl_gethostname.o)
 .bss           0x0000000000505ad0        0x0 /home/ql_xu/develop/trunk/uClinux-dist/user/curl-7.36.0/lib/.libs/libcurl.a(libcurl_la-gopher.o)
 .bss           0x0000000000505ad0        0x0 /home/ql_xu/develop/trunk/uClinux-dist/user/curl-7.36.0/lib/.libs/libcurl.a(libcurl_la-http_proxy.o)
 .bss           0x0000000000505ad0        0x0 /home/ql_xu/develop/trunk/uClinux-dist/user/curl-7.36.0/lib/.libs/libcurl.a(libcurl_la-curl_sasl.o)
 .bss           0x0000000000505ad0        0x0 /home/ql_xu/develop/trunk/uClinux-dist/user/curl-7.36.0/lib/.libs/libcurl.a(libcurl_la-bundles.o)
 .bss           0x0000000000505ad0        0x0 /home/ql_xu/develop/trunk/uClinux-dist/user/curl-7.36.0/lib/.libs/libcurl.a(libcurl_la-dotdot.o)
 .bss           0x0000000000505ad0       0x10 /home/ql_xu/develop/trunk/uClinux-dist/user/curl-7.36.0/lib/.libs/libcurl.a(libcurl_la-vtls.o)
 .bss           0x0000000000505ae0        0x0 /home/ql_xu/develop/trunk/uClinux-dist/user/curl-7.36.0/lib/.libs/libcurl.a(libcurl_la-file.o)
 .bss           0x0000000000505ae0        0x0 /home/ql_xu/develop/trunk/uClinux-dist/user/curl-7.36.0/lib/.libs/libcurl.a(libcurl_la-base64.o)
 .bss           0x0000000000505ae0        0x0 /home/ql_xu/develop/trunk/uClinux-dist/user/curl-7.36.0/lib/.libs/libcurl.a(libcurl_la-formdata.o)
 .bss           0x0000000000505ae0        0x0 /home/ql_xu/develop/trunk/uClinux-dist/user/curl-7.36.0/lib/.libs/libcurl.a(libcurl_la-ftp.o)
 .bss           0x0000000000505ae0        0x0 /home/ql_xu/develop/trunk/uClinux-dist/user/curl-7.36.0/lib/.libs/libcurl.a(libcurl_la-fileinfo.o)
 .bss           0x0000000000505ae0        0x0 /home/ql_xu/develop/trunk/uClinux-dist/user/curl-7.36.0/lib/.libs/libcurl.a(libcurl_la-ftplistparser.o)
 .bss           0x0000000000505ae0        0x0 /home/ql_xu/develop/trunk/uClinux-dist/user/curl-7.36.0/lib/.libs/libcurl.a(libcurl_la-hmac.o)
 .bss           0x0000000000505ae0        0x0 /home/ql_xu/develop/trunk/uClinux-dist/user/curl-7.36.0/lib/.libs/libcurl.a(libcurl_la-curl_fnmatch.o)
 .bss           0x0000000000505ae0        0x0 /home/ql_xu/develop/trunk/uClinux-dist/lib/zlib/libz.a(deflate.o)
 .bss           0x0000000000505ae0        0x0 /home/ql_xu/develop/trunk/uClinux-dist/lib/zlib/libz.a(trees.o)
 .bss           0x0000000000505ae0        0x0 /home/ql_xu/develop/trunk/uClinux-dist/lib/zlib/libz.a(zutil.o)
 .bss           0x0000000000505ae0        0x0 /home/ql_xu/develop/trunk/uClinux-dist/lib/zlib/libz.a(inflate.o)
 .bss           0x0000000000505ae0        0x0 /home/ql_xu/develop/trunk/uClinux-dist/lib/zlib/libz.a(infblock.o)
 .bss           0x0000000000505ae0        0x0 /home/ql_xu/develop/trunk/uClinux-dist/lib/zlib/libz.a(inftrees.o)
 .bss           0x0000000000505ae0        0x0 /home/ql_xu/develop/trunk/uClinux-dist/lib/zlib/libz.a(infcodes.o)
 .bss           0x0000000000505ae0        0x0 /home/ql_xu/develop/trunk/uClinux-dist/lib/zlib/libz.a(infutil.o)
 .bss           0x0000000000505ae0        0x0 /home/ql_xu/develop/trunk/uClinux-dist/lib/zlib/libz.a(inffast.o)
 .bss           0x0000000000505ae0        0x0 /home/ql_xu/develop/trunk/uClinux-dist/lib/zlib/libz.a(adler32.o)
 .bss           0x0000000000505ae0        0x0 /rsdk-4.4.7-5281-EB-2.6.30-0.9.33-m32utb-140606/bin/../lib/gcc/mips-linux-uclibc/4.4.7/5281/libgcc.a(_fixunssfsi.o)
 .bss           0x0000000000505ae0        0x0 /rsdk-4.4.7-5281-EB-2.6.30-0.9.33-m32utb-140606/bin/../lib/gcc/mips-linux-uclibc/4.4.7/5281/libgcc.a(_fixunsdfsi.o)
 .bss           0x0000000000505ae0        0x0 /rsdk-4.4.7-5281-EB-2.6.30-0.9.33-m32utb-140606/bin/../lib/gcc/mips-linux-uclibc/4.4.7/5281/libgcc.a(_fixdfdi.o)
 .bss           0x0000000000505ae0        0x0 /rsdk-4.4.7-5281-EB-2.6.30-0.9.33-m32utb-140606/bin/../lib/gcc/mips-linux-uclibc/4.4.7/5281/libgcc.a(_fixunsdfdi.o)
 .bss           0x0000000000505ae0        0x0 /rsdk-4.4.7-5281-EB-2.6.30-0.9.33-m32utb-140606/bin/../lib/gcc/mips-linux-uclibc/4.4.7/5281/libgcc.a(_floatdidf.o)
 .bss           0x0000000000505ae0        0x0 /rsdk-4.4.7-5281-EB-2.6.30-0.9.33-m32utb-140606/bin/../lib/gcc/mips-linux-uclibc/4.4.7/5281/libgcc.a(_floatundisf.o)
 .bss           0x0000000000505ae0        0x0 /rsdk-4.4.7-5281-EB-2.6.30-0.9.33-m32utb-140606/bin/../lib/gcc/mips-linux-uclibc/4.4.7/5281/libgcc.a(_floatundidf.o)
 .bss           0x0000000000505ae0        0x0 /rsdk-4.4.7-5281-EB-2.6.30-0.9.33-m32utb-140606/bin/../lib/gcc/mips-linux-uclibc/4.4.7/5281/libgcc.a(_divdi3.o)
 .bss           0x0000000000505ae0        0x0 /rsdk-4.4.7-5281-EB-2.6.30-0.9.33-m32utb-140606/bin/../lib/gcc/mips-linux-uclibc/4.4.7/5281/libgcc.a(_udivdi3.o)
 .bss           0x0000000000505ae0        0x0 /rsdk-4.4.7-5281-EB-2.6.30-0.9.33-m32utb-140606/bin/../lib/gcc/mips-linux-uclibc/4.4.7/5281/libgcc.a(_umoddi3.o)
 .bss           0x0000000000505ae0        0x0 /rsdk-4.4.7-5281-EB-2.6.30-0.9.33-m32utb-140606/bin/../lib/gcc/mips-linux-uclibc/4.4.7/5281/libgcc.a(addsf3.o)
 .bss           0x0000000000505ae0        0x0 /rsdk-4.4.7-5281-EB-2.6.30-0.9.33-m32utb-140606/bin/../lib/gcc/mips-linux-uclibc/4.4.7/5281/libgcc.a(divsf3.o)
 .bss           0x0000000000505ae0        0x0 /rsdk-4.4.7-5281-EB-2.6.30-0.9.33-m32utb-140606/bin/../lib/gcc/mips-linux-uclibc/4.4.7/5281/libgcc.a(gesf2.o)
 .bss           0x0000000000505ae0        0x0 /rsdk-4.4.7-5281-EB-2.6.30-0.9.33-m32utb-140606/bin/../lib/gcc/mips-linux-uclibc/4.4.7/5281/libgcc.a(lesf2.o)
 .bss           0x0000000000505ae0        0x0 /rsdk-4.4.7-5281-EB-2.6.30-0.9.33-m32utb-140606/bin/../lib/gcc/mips-linux-uclibc/4.4.7/5281/libgcc.a(mulsf3.o)
 .bss           0x0000000000505ae0        0x0 /rsdk-4.4.7-5281-EB-2.6.30-0.9.33-m32utb-140606/bin/../lib/gcc/mips-linux-uclibc/4.4.7/5281/libgcc.a(subsf3.o)
 .bss           0x0000000000505ae0        0x0 /rsdk-4.4.7-5281-EB-2.6.30-0.9.33-m32utb-140606/bin/../lib/gcc/mips-linux-uclibc/4.4.7/5281/libgcc.a(fixsfsi.o)
 .bss           0x0000000000505ae0        0x0 /rsdk-4.4.7-5281-EB-2.6.30-0.9.33-m32utb-140606/bin/../lib/gcc/mips-linux-uclibc/4.4.7/5281/libgcc.a(floatsisf.o)
 .bss           0x0000000000505ae0        0x0 /rsdk-4.4.7-5281-EB-2.6.30-0.9.33-m32utb-140606/bin/../lib/gcc/mips-linux-uclibc/4.4.7/5281/libgcc.a(floatunsisf.o)
 .bss           0x0000000000505ae0        0x0 /rsdk-4.4.7-5281-EB-2.6.30-0.9.33-m32utb-140606/bin/../lib/gcc/mips-linux-uclibc/4.4.7/5281/libgcc.a(adddf3.o)
 .bss           0x0000000000505ae0        0x0 /rsdk-4.4.7-5281-EB-2.6.30-0.9.33-m32utb-140606/bin/../lib/gcc/mips-linux-uclibc/4.4.7/5281/libgcc.a(divdf3.o)
 .bss           0x0000000000505ae0        0x0 /rsdk-4.4.7-5281-EB-2.6.30-0.9.33-m32utb-140606/bin/../lib/gcc/mips-linux-uclibc/4.4.7/5281/libgcc.a(gedf2.o)
 .bss           0x0000000000505ae0        0x0 /rsdk-4.4.7-5281-EB-2.6.30-0.9.33-m32utb-140606/bin/../lib/gcc/mips-linux-uclibc/4.4.7/5281/libgcc.a(ledf2.o)
 .bss           0x0000000000505ae0        0x0 /rsdk-4.4.7-5281-EB-2.6.30-0.9.33-m32utb-140606/bin/../lib/gcc/mips-linux-uclibc/4.4.7/5281/libgcc.a(muldf3.o)
 .bss           0x0000000000505ae0        0x0 /rsdk-4.4.7-5281-EB-2.6.30-0.9.33-m32utb-140606/bin/../lib/gcc/mips-linux-uclibc/4.4.7/5281/libgcc.a(subdf3.o)
 .bss           0x0000000000505ae0        0x0 /rsdk-4.4.7-5281-EB-2.6.30-0.9.33-m32utb-140606/bin/../lib/gcc/mips-linux-uclibc/4.4.7/5281/libgcc.a(fixdfsi.o)
 .bss           0x0000000000505ae0        0x0 /rsdk-4.4.7-5281-EB-2.6.30-0.9.33-m32utb-140606/bin/../lib/gcc/mips-linux-uclibc/4.4.7/5281/libgcc.a(floatsidf.o)
 .bss           0x0000000000505ae0        0x0 /rsdk-4.4.7-5281-EB-2.6.30-0.9.33-m32utb-140606/bin/../lib/gcc/mips-linux-uclibc/4.4.7/5281/libgcc.a(floatunsidf.o)
 .bss           0x0000000000505ae0        0x0 /rsdk-4.4.7-5281-EB-2.6.30-0.9.33-m32utb-140606/bin/../lib/gcc/mips-linux-uclibc/4.4.7/5281/libgcc.a(extendsfdf2.o)
 .bss           0x0000000000505ae0        0x0 /rsdk-4.4.7-5281-EB-2.6.30-0.9.33-m32utb-140606/bin/../lib/gcc/mips-linux-uclibc/4.4.7/5281/libgcc.a(truncdfsf2.o)
 .bss           0x0000000000505ae0        0x0 /rsdk-4.4.7-5281-EB-2.6.30-0.9.33-m32utb-140606/bin/../lib/gcc/mips-linux-uclibc/4.4.7/5281/libgcc.a(_clz.o)
 .bss           0x0000000000505ae0        0x0 /rsdk-4.4.7-5281-EB-2.6.30-0.9.33-m32utb-140606/bin/../lib/gcc/mips-linux-uclibc/4.4.7/5281/libgcc.a(_clzsi2.o)
 .bss           0x0000000000505ae0        0x0 /rsdk-4.4.7-5281-EB-2.6.30-0.9.33-m32utb-140606/bin/../lib/gcc/mips-linux-uclibc/4.4.7/5281/crtend.o
 .bss           0x0000000000505ae0        0x0 /rsdk-4.4.7-5281-EB-2.6.30-0.9.33-m32utb-140606/bin/../lib/gcc/mips-linux-uclibc/4.4.7/../../../../mips-linux-uclibc/lib/crtn.o
 *(COMMON)
 COMMON         0x0000000000505ae0       0x80 /home/ql_xu/develop/trunk/uClinux-dist/user/curl-7.36.0/lib/.libs/libcurl.a(libcurl_la-hostip.o)
                0x0000000000505ae0                curl_jmpenv
                0x0000000000505b60                . = ALIGN ((. != 0x0)?0x4:0x1)
                0x0000000000505b60                . = ALIGN (0x4)
                0x0000000000505b60                . = ALIGN (0x4)
                0x0000000000505b60                _end = .
                0x0000000000505b60                PROVIDE (end, .)
                0x0000000000505b60                . = DATA_SEGMENT_END (.)

.stab
 *(.stab)

.stabstr
 *(.stabstr)

.stab.excl
 *(.stab.excl)

.stab.exclstr
 *(.stab.exclstr)

.stab.index
 *(.stab.index)

.stab.indexstr
 *(.stab.indexstr)

.comment        0x0000000000000000       0x3c
 *(.comment)
 .comment       0x0000000000000000       0x11 /rsdk-4.4.7-5281-EB-2.6.30-0.9.33-m32utb-140606/bin/../lib/gcc/mips-linux-uclibc/4.4.7/../../../../mips-linux-uclibc/lib/crti.o
                                         0x12 (size before relaxing)
 .comment       0x0000000000000011       0x2b /rsdk-4.4.7-5281-EB-2.6.30-0.9.33-m32utb-140606/bin/../lib/gcc/mips-linux-uclibc/4.4.7/5281/crtbegin.o
                                         0x2c (size before relaxing)
 .comment       0x0000000000000000       0x2c cli.o
 .comment       0x0000000000000000       0x2c ../libtransmission/libtransmission.a(bencode.o)
 .comment       0x0000000000000000       0x2c ../libtransmission/libtransmission.a(ConvertUTF.o)
 .comment       0x0000000000000000       0x2c ../libtransmission/libtransmission.a(fdlimit.o)
 .comment       0x0000000000000000       0x2c ../libtransmission/libtransmission.a(json.o)
 .comment       0x0000000000000000       0x2c ../libtransmission/libtransmission.a(JSON_parser.o)
 .comment       0x0000000000000000       0x2c ../libtransmission/libtransmission.a(list.o)
 .comment       0x0000000000000000       0x2c ../libtransmission/libtransmission.a(net.o)
 .comment       0x0000000000000000       0x2c ../libtransmission/libtransmission.a(peer-io.o)
 .comment       0x0000000000000000       0x2c ../libtransmission/libtransmission.a(platform.o)
 .comment       0x0000000000000000       0x2c ../libtransmission/libtransmission.a(ptrarray.o)
 .comment       0x0000000000000000       0x2c ../libtransmission/libtransmission.a(session.o)
 .comment       0x0000000000000000       0x2c ../libtransmission/libtransmission.a(stats.o)
 .comment       0x0000000000000000       0x2c ../libtransmission/libtransmission.a(torrent.o)
 .comment       0x0000000000000000       0x2c ../libtransmission/libtransmission.a(torrent-ctor.o)
 .comment       0x0000000000000000       0x2c ../libtransmission/libtransmission.a(torrent-magnet.o)
 .comment       0x0000000000000000       0x2c ../libtransmission/libtransmission.a(tr-dht.o)
 .comment       0x0000000000000000       0x2c ../libtransmission/libtransmission.a(tr-lpd.o)
 .comment       0x0000000000000000       0x2c ../libtransmission/libtransmission.a(tr-udp.o)
 .comment       0x0000000000000000       0x2c ../libtransmission/libtransmission.a(tr-utp.o)
 .comment       0x0000000000000000       0x2c ../libtransmission/libtransmission.a(tr-getopt.o)
 .comment       0x0000000000000000       0x2c ../libtransmission/libtransmission.a(trevent.o)
 .comment       0x0000000000000000       0x2c ../libtransmission/libtransmission.a(utils.o)
 .comment       0x0000000000000000       0x2c ../libtransmission/libtransmission.a(verify.o)
 .comment       0x0000000000000000       0x2c ../libtransmission/libtransmission.a(web.o)
 .comment       0x0000000000000000       0x2c ../libtransmission/libtransmission.a(announcer.o)
 .comment       0x0000000000000000       0x2c ../libtransmission/libtransmission.a(announcer-http.o)
 .comment       0x0000000000000000       0x2c ../libtransmission/libtransmission.a(announcer-udp.o)
 .comment       0x0000000000000000       0x2c ../libtransmission/libtransmission.a(bandwidth.o)
 .comment       0x0000000000000000       0x2c ../libtransmission/libtransmission.a(bitfield.o)
 .comment       0x0000000000000000       0x2c ../libtransmission/libtransmission.a(blocklist.o)
 .comment       0x0000000000000000       0x2c ../libtransmission/libtransmission.a(cache.o)
 .comment       0x0000000000000000       0x2c ../libtransmission/libtransmission.a(completion.o)
 .comment       0x0000000000000000       0x2c ../libtransmission/libtransmission.a(crypto.o)
 .comment       0x0000000000000000       0x2c ../libtransmission/libtransmission.a(inout.o)
 .comment       0x0000000000000000       0x2c ../libtransmission/libtransmission.a(magnet.o)
 .comment       0x0000000000000000       0x2c ../libtransmission/libtransmission.a(metainfo.o)
 .comment       0x0000000000000000       0x2c ../libtransmission/libtransmission.a(peer-mgr.o)
 .comment       0x0000000000000000       0x2c ../libtransmission/libtransmission.a(peer-msgs.o)
 .comment       0x0000000000000000       0x2c ../libtransmission/libtransmission.a(port-forwarding.o)
 .comment       0x0000000000000000       0x2c ../libtransmission/libtransmission.a(resume.o)
 .comment       0x0000000000000000       0x2c ../libtransmission/libtransmission.a(rpc-server.o)
 .comment       0x0000000000000000       0x2c ../libtransmission/libtransmission.a(upnp.o)
 .comment       0x0000000000000000       0x2c ../libtransmission/libtransmission.a(webseed.o)
 .comment       0x0000000000000000       0x2c ../libtransmission/libtransmission.a(wildmat.o)
 .comment       0x0000000000000000       0x2c ../libtransmission/libtransmission.a(clients.o)
 .comment       0x0000000000000000       0x2c ../libtransmission/libtransmission.a(handshake.o)
 .comment       0x0000000000000000       0x2c ../libtransmission/libtransmission.a(history.o)
 .comment       0x0000000000000000       0x2c ../libtransmission/libtransmission.a(natpmp.o)
 .comment       0x0000000000000000       0x2c ../libtransmission/libtransmission.a(rpcimpl.o)
 .comment       0x0000000000000000       0x2c ../third-party/libnatpmp/libnatpmp.a(natpmp.o)
 .comment       0x0000000000000000       0x2c ../third-party/libnatpmp/libnatpmp.a(getgateway.o)
 .comment       0x0000000000000000       0x2c ../third-party/miniupnp/libminiupnp.a(miniupnpc.o)
 .comment       0x0000000000000000       0x2c ../third-party/miniupnp/libminiupnp.a(miniwget.o)
 .comment       0x0000000000000000       0x2c ../third-party/miniupnp/libminiupnp.a(minixml.o)
 .comment       0x0000000000000000       0x2c ../third-party/miniupnp/libminiupnp.a(receivedata.o)
 .comment       0x0000000000000000       0x2c ../third-party/miniupnp/libminiupnp.a(upnpcommands.o)
 .comment       0x0000000000000000       0x2c ../third-party/miniupnp/libminiupnp.a(upnpreplyparse.o)
 .comment       0x0000000000000000       0x2c ../third-party/miniupnp/libminiupnp.a(connecthostport.o)
 .comment       0x0000000000000000       0x2c ../third-party/miniupnp/libminiupnp.a(igd_desc_parse.o)
 .comment       0x0000000000000000       0x2c ../third-party/miniupnp/libminiupnp.a(minisoap.o)
 .comment       0x0000000000000000       0x2c ../third-party/miniupnp/libminiupnp.a(minissdpc.o)
 .comment       0x0000000000000000       0x2c ../third-party/miniupnp/libminiupnp.a(portlistingparse.o)
 .comment       0x0000000000000000       0x2c ../third-party/dht/libdht.a(dht.o)
 .comment       0x0000000000000000       0x2c ../third-party/libutp/libutp.a(utp.o)
 .comment       0x0000000000000000       0x2c ../third-party/libutp/libutp.a(utp_utils.o)
 .comment       0x0000000000000000       0x2c /home/ql_xu/develop/trunk/uClinux-dist/lib/libevent/.libs/libevent.a(event.o)
 .comment       0x0000000000000000       0x2c /home/ql_xu/develop/trunk/uClinux-dist/lib/libevent/.libs/libevent.a(evthread.o)
 .comment       0x0000000000000000       0x2c /home/ql_xu/develop/trunk/uClinux-dist/lib/libevent/.libs/libevent.a(buffer.o)
 .comment       0x0000000000000000       0x2c /home/ql_xu/develop/trunk/uClinux-dist/lib/libevent/.libs/libevent.a(bufferevent.o)
 .comment       0x0000000000000000       0x2c /home/ql_xu/develop/trunk/uClinux-dist/lib/libevent/.libs/libevent.a(bufferevent_ratelim.o)
 .comment       0x0000000000000000       0x2c /home/ql_xu/develop/trunk/uClinux-dist/lib/libevent/.libs/libevent.a(evmap.o)
 .comment       0x0000000000000000       0x2c /home/ql_xu/develop/trunk/uClinux-dist/lib/libevent/.libs/libevent.a(log.o)
 .comment       0x0000000000000000       0x2c /home/ql_xu/develop/trunk/uClinux-dist/lib/libevent/.libs/libevent.a(evutil.o)
 .comment       0x0000000000000000       0x2c /home/ql_xu/develop/trunk/uClinux-dist/lib/libevent/.libs/libevent.a(evutil_rand.o)
 .comment       0x0000000000000000       0x2c /home/ql_xu/develop/trunk/uClinux-dist/lib/libevent/.libs/libevent.a(select.o)
 .comment       0x0000000000000000       0x2c /home/ql_xu/develop/trunk/uClinux-dist/lib/libevent/.libs/libevent.a(poll.o)
 .comment       0x0000000000000000       0x2c /home/ql_xu/develop/trunk/uClinux-dist/lib/libevent/.libs/libevent.a(epoll.o)
 .comment       0x0000000000000000       0x2c /home/ql_xu/develop/trunk/uClinux-dist/lib/libevent/.libs/libevent.a(signal.o)
 .comment       0x0000000000000000       0x2c /home/ql_xu/develop/trunk/uClinux-dist/lib/libevent/.libs/libevent.a(http.o)
 .comment       0x0000000000000000       0x2c /home/ql_xu/develop/trunk/uClinux-dist/lib/libevent/.libs/libevent.a(evdns.o)
 .comment       0x0000000000000000       0x2c /home/ql_xu/develop/trunk/uClinux-dist/lib/libevent/.libs/libevent.a(bufferevent_sock.o)
 .comment       0x0000000000000000       0x2c /home/ql_xu/develop/trunk/uClinux-dist/lib/libevent/.libs/libevent.a(listener.o)
 .comment       0x0000000000000000       0x2c /home/ql_xu/develop/trunk/uClinux-dist/user/curl-7.36.0/lib/.libs/libcurl.a(libcurl_la-escape.o)
 .comment       0x0000000000000000       0x2c /home/ql_xu/develop/trunk/uClinux-dist/user/curl-7.36.0/lib/.libs/libcurl.a(libcurl_la-mprintf.o)
 .comment       0x0000000000000000       0x2c /home/ql_xu/develop/trunk/uClinux-dist/user/curl-7.36.0/lib/.libs/libcurl.a(libcurl_la-easy.o)
 .comment       0x0000000000000000       0x2c /home/ql_xu/develop/trunk/uClinux-dist/user/curl-7.36.0/lib/.libs/libcurl.a(libcurl_la-connect.o)
 .comment       0x0000000000000000       0x2c /home/ql_xu/develop/trunk/uClinux-dist/user/curl-7.36.0/lib/.libs/libcurl.a(libcurl_la-multi.o)
 .comment       0x0000000000000000       0x2c /home/ql_xu/develop/trunk/uClinux-dist/user/curl-7.36.0/lib/.libs/libcurl.a(libcurl_la-strerror.o)
 .comment       0x0000000000000000       0x2c /home/ql_xu/develop/trunk/uClinux-dist/user/curl-7.36.0/lib/.libs/libcurl.a(libcurl_la-select.o)
 .comment       0x0000000000000000       0x2c /home/ql_xu/develop/trunk/uClinux-dist/user/curl-7.36.0/lib/.libs/libcurl.a(libcurl_la-splay.o)
 .comment       0x0000000000000000       0x2c /home/ql_xu/develop/trunk/uClinux-dist/user/curl-7.36.0/lib/.libs/libcurl.a(libcurl_la-slist.o)
 .comment       0x0000000000000000       0x2c /home/ql_xu/develop/trunk/uClinux-dist/user/curl-7.36.0/lib/.libs/libcurl.a(libcurl_la-nonblock.o)
 .comment       0x0000000000000000       0x2c /home/ql_xu/develop/trunk/uClinux-dist/user/curl-7.36.0/lib/.libs/libcurl.a(libcurl_la-warnless.o)
 .comment       0x0000000000000000       0x2c /home/ql_xu/develop/trunk/uClinux-dist/user/curl-7.36.0/lib/.libs/libcurl.a(libcurl_la-conncache.o)
 .comment       0x0000000000000000       0x2c /home/ql_xu/develop/trunk/uClinux-dist/user/curl-7.36.0/lib/.libs/libcurl.a(libcurl_la-pipeline.o)
 .comment       0x0000000000000000       0x2c /home/ql_xu/develop/trunk/uClinux-dist/user/curl-7.36.0/lib/.libs/libcurl.a(libcurl_la-timeval.o)
 .comment       0x0000000000000000       0x2c /home/ql_xu/develop/trunk/uClinux-dist/user/curl-7.36.0/lib/.libs/libcurl.a(libcurl_la-hostip.o)
 .comment       0x0000000000000000       0x2c /home/ql_xu/develop/trunk/uClinux-dist/user/curl-7.36.0/lib/.libs/libcurl.a(libcurl_la-progress.o)
 .comment       0x0000000000000000       0x2c /home/ql_xu/develop/trunk/uClinux-dist/user/curl-7.36.0/lib/.libs/libcurl.a(libcurl_la-cookie.o)
 .comment       0x0000000000000000       0x2c /home/ql_xu/develop/trunk/uClinux-dist/user/curl-7.36.0/lib/.libs/libcurl.a(libcurl_la-http.o)
 .comment       0x0000000000000000       0x2c /home/ql_xu/develop/trunk/uClinux-dist/user/curl-7.36.0/lib/.libs/libcurl.a(libcurl_la-sendf.o)
 .comment       0x0000000000000000       0x2c /home/ql_xu/develop/trunk/uClinux-dist/user/curl-7.36.0/lib/.libs/libcurl.a(libcurl_la-url.o)
 .comment       0x0000000000000000       0x2c /home/ql_xu/develop/trunk/uClinux-dist/user/curl-7.36.0/lib/.libs/libcurl.a(libcurl_la-dict.o)
 .comment       0x0000000000000000       0x2c /home/ql_xu/develop/trunk/uClinux-dist/user/curl-7.36.0/lib/.libs/libcurl.a(libcurl_la-if2ip.o)
 .comment       0x0000000000000000       0x2c /home/ql_xu/develop/trunk/uClinux-dist/user/curl-7.36.0/lib/.libs/libcurl.a(libcurl_la-speedcheck.o)
 .comment       0x0000000000000000       0x2c /home/ql_xu/develop/trunk/uClinux-dist/user/curl-7.36.0/lib/.libs/libcurl.a(libcurl_la-getenv.o)
 .comment       0x0000000000000000       0x2c /home/ql_xu/develop/trunk/uClinux-dist/user/curl-7.36.0/lib/.libs/libcurl.a(libcurl_la-telnet.o)
 .comment       0x0000000000000000       0x2c /home/ql_xu/develop/trunk/uClinux-dist/user/curl-7.36.0/lib/.libs/libcurl.a(libcurl_la-netrc.o)
 .comment       0x0000000000000000       0x2c /home/ql_xu/develop/trunk/uClinux-dist/user/curl-7.36.0/lib/.libs/libcurl.a(libcurl_la-getinfo.o)
 .comment       0x0000000000000000       0x2c /home/ql_xu/develop/trunk/uClinux-dist/user/curl-7.36.0/lib/.libs/libcurl.a(libcurl_la-transfer.o)
 .comment       0x0000000000000000       0x2c /home/ql_xu/develop/trunk/uClinux-dist/user/curl-7.36.0/lib/.libs/libcurl.a(libcurl_la-strequal.o)
 .comment       0x0000000000000000       0x2c /home/ql_xu/develop/trunk/uClinux-dist/user/curl-7.36.0/lib/.libs/libcurl.a(libcurl_la-wildcard.o)
 .comment       0x0000000000000000       0x2c /home/ql_xu/develop/trunk/uClinux-dist/user/curl-7.36.0/lib/.libs/libcurl.a(libcurl_la-http_chunks.o)
 .comment       0x0000000000000000       0x2c /home/ql_xu/develop/trunk/uClinux-dist/user/curl-7.36.0/lib/.libs/libcurl.a(libcurl_la-llist.o)
 .comment       0x0000000000000000       0x2c /home/ql_xu/develop/trunk/uClinux-dist/user/curl-7.36.0/lib/.libs/libcurl.a(libcurl_la-hash.o)
 .comment       0x0000000000000000       0x2c /home/ql_xu/develop/trunk/uClinux-dist/user/curl-7.36.0/lib/.libs/libcurl.a(libcurl_la-share.o)
 .comment       0x0000000000000000       0x2c /home/ql_xu/develop/trunk/uClinux-dist/user/curl-7.36.0/lib/.libs/libcurl.a(libcurl_la-http_digest.o)
 .comment       0x0000000000000000       0x2c /home/ql_xu/develop/trunk/uClinux-dist/user/curl-7.36.0/lib/.libs/libcurl.a(libcurl_la-md5.o)
 .comment       0x0000000000000000       0x2c /home/ql_xu/develop/trunk/uClinux-dist/user/curl-7.36.0/lib/.libs/libcurl.a(libcurl_la-hostip4.o)
 .comment       0x0000000000000000       0x2c /home/ql_xu/develop/trunk/uClinux-dist/user/curl-7.36.0/lib/.libs/libcurl.a(libcurl_la-hostsyn.o)
 .comment       0x0000000000000000       0x2c /home/ql_xu/develop/trunk/uClinux-dist/user/curl-7.36.0/lib/.libs/libcurl.a(libcurl_la-parsedate.o)
 .comment       0x0000000000000000       0x2c /home/ql_xu/develop/trunk/uClinux-dist/user/curl-7.36.0/lib/.libs/libcurl.a(libcurl_la-tftp.o)
 .comment       0x0000000000000000       0x2c /home/ql_xu/develop/trunk/uClinux-dist/user/curl-7.36.0/lib/.libs/libcurl.a(libcurl_la-socks.o)
 .comment       0x0000000000000000       0x2c /home/ql_xu/develop/trunk/uClinux-dist/user/curl-7.36.0/lib/.libs/libcurl.a(libcurl_la-rawstr.o)
 .comment       0x0000000000000000       0x2c /home/ql_xu/develop/trunk/uClinux-dist/user/curl-7.36.0/lib/.libs/libcurl.a(libcurl_la-curl_addrinfo.o)
 .comment       0x0000000000000000       0x2c /home/ql_xu/develop/trunk/uClinux-dist/user/curl-7.36.0/lib/.libs/libcurl.a(libcurl_la-curl_memrchr.o)
 .comment       0x0000000000000000       0x2c /home/ql_xu/develop/trunk/uClinux-dist/user/curl-7.36.0/lib/.libs/libcurl.a(libcurl_la-imap.o)
 .comment       0x0000000000000000       0x2c /home/ql_xu/develop/trunk/uClinux-dist/user/curl-7.36.0/lib/.libs/libcurl.a(libcurl_la-pop3.o)
 .comment       0x0000000000000000       0x2c /home/ql_xu/develop/trunk/uClinux-dist/user/curl-7.36.0/lib/.libs/libcurl.a(libcurl_la-smtp.o)
 .comment       0x0000000000000000       0x2c /home/ql_xu/develop/trunk/uClinux-dist/user/curl-7.36.0/lib/.libs/libcurl.a(libcurl_la-pingpong.o)
 .comment       0x0000000000000000       0x2c /home/ql_xu/develop/trunk/uClinux-dist/user/curl-7.36.0/lib/.libs/libcurl.a(libcurl_la-rtsp.o)
 .comment       0x0000000000000000       0x2c /home/ql_xu/develop/trunk/uClinux-dist/user/curl-7.36.0/lib/.libs/libcurl.a(libcurl_la-curl_gethostname.o)
 .comment       0x0000000000000000       0x2c /home/ql_xu/develop/trunk/uClinux-dist/user/curl-7.36.0/lib/.libs/libcurl.a(libcurl_la-gopher.o)
 .comment       0x0000000000000000       0x2c /home/ql_xu/develop/trunk/uClinux-dist/user/curl-7.36.0/lib/.libs/libcurl.a(libcurl_la-http_proxy.o)
 .comment       0x0000000000000000       0x2c /home/ql_xu/develop/trunk/uClinux-dist/user/curl-7.36.0/lib/.libs/libcurl.a(libcurl_la-curl_sasl.o)
 .comment       0x0000000000000000       0x2c /home/ql_xu/develop/trunk/uClinux-dist/user/curl-7.36.0/lib/.libs/libcurl.a(libcurl_la-bundles.o)
 .comment       0x0000000000000000       0x2c /home/ql_xu/develop/trunk/uClinux-dist/user/curl-7.36.0/lib/.libs/libcurl.a(libcurl_la-dotdot.o)
 .comment       0x0000000000000000       0x2c /home/ql_xu/develop/trunk/uClinux-dist/user/curl-7.36.0/lib/.libs/libcurl.a(libcurl_la-vtls.o)
 .comment       0x0000000000000000       0x2c /home/ql_xu/develop/trunk/uClinux-dist/user/curl-7.36.0/lib/.libs/libcurl.a(libcurl_la-file.o)
 .comment       0x0000000000000000       0x2c /home/ql_xu/develop/trunk/uClinux-dist/user/curl-7.36.0/lib/.libs/libcurl.a(libcurl_la-base64.o)
 .comment       0x0000000000000000       0x2c /home/ql_xu/develop/trunk/uClinux-dist/user/curl-7.36.0/lib/.libs/libcurl.a(libcurl_la-formdata.o)
 .comment       0x0000000000000000       0x2c /home/ql_xu/develop/trunk/uClinux-dist/user/curl-7.36.0/lib/.libs/libcurl.a(libcurl_la-ftp.o)
 .comment       0x0000000000000000       0x2c /home/ql_xu/develop/trunk/uClinux-dist/user/curl-7.36.0/lib/.libs/libcurl.a(libcurl_la-fileinfo.o)
 .comment       0x0000000000000000       0x2c /home/ql_xu/develop/trunk/uClinux-dist/user/curl-7.36.0/lib/.libs/libcurl.a(libcurl_la-ftplistparser.o)
 .comment       0x0000000000000000       0x2c /home/ql_xu/develop/trunk/uClinux-dist/user/curl-7.36.0/lib/.libs/libcurl.a(libcurl_la-hmac.o)
 .comment       0x0000000000000000       0x2c /home/ql_xu/develop/trunk/uClinux-dist/user/curl-7.36.0/lib/.libs/libcurl.a(libcurl_la-curl_fnmatch.o)
 .comment       0x0000000000000000       0x2c /home/ql_xu/develop/trunk/uClinux-dist/lib/zlib/libz.a(deflate.o)
 .comment       0x0000000000000000       0x2c /home/ql_xu/develop/trunk/uClinux-dist/lib/zlib/libz.a(trees.o)
 .comment       0x0000000000000000       0x2c /home/ql_xu/develop/trunk/uClinux-dist/lib/zlib/libz.a(zutil.o)
 .comment       0x0000000000000000       0x2c /home/ql_xu/develop/trunk/uClinux-dist/lib/zlib/libz.a(inflate.o)
 .comment       0x0000000000000000       0x2c /home/ql_xu/develop/trunk/uClinux-dist/lib/zlib/libz.a(infblock.o)
 .comment       0x0000000000000000       0x2c /home/ql_xu/develop/trunk/uClinux-dist/lib/zlib/libz.a(inftrees.o)
 .comment       0x0000000000000000       0x2c /home/ql_xu/develop/trunk/uClinux-dist/lib/zlib/libz.a(infcodes.o)
 .comment       0x0000000000000000       0x2c /home/ql_xu/develop/trunk/uClinux-dist/lib/zlib/libz.a(infutil.o)
 .comment       0x0000000000000000       0x2c /home/ql_xu/develop/trunk/uClinux-dist/lib/zlib/libz.a(inffast.o)
 .comment       0x0000000000000000       0x2c /home/ql_xu/develop/trunk/uClinux-dist/lib/zlib/libz.a(adler32.o)
 .comment       0x0000000000000000       0x2c /rsdk-4.4.7-5281-EB-2.6.30-0.9.33-m32utb-140606/bin/../lib/gcc/mips-linux-uclibc/4.4.7/5281/libgcc.a(_fixunssfsi.o)
 .comment       0x0000000000000000       0x2c /rsdk-4.4.7-5281-EB-2.6.30-0.9.33-m32utb-140606/bin/../lib/gcc/mips-linux-uclibc/4.4.7/5281/libgcc.a(_fixunsdfsi.o)
 .comment       0x0000000000000000       0x2c /rsdk-4.4.7-5281-EB-2.6.30-0.9.33-m32utb-140606/bin/../lib/gcc/mips-linux-uclibc/4.4.7/5281/libgcc.a(_fixdfdi.o)
 .comment       0x0000000000000000       0x2c /rsdk-4.4.7-5281-EB-2.6.30-0.9.33-m32utb-140606/bin/../lib/gcc/mips-linux-uclibc/4.4.7/5281/libgcc.a(_fixunsdfdi.o)
 .comment       0x0000000000000000       0x2c /rsdk-4.4.7-5281-EB-2.6.30-0.9.33-m32utb-140606/bin/../lib/gcc/mips-linux-uclibc/4.4.7/5281/libgcc.a(_floatdidf.o)
 .comment       0x0000000000000000       0x2c /rsdk-4.4.7-5281-EB-2.6.30-0.9.33-m32utb-140606/bin/../lib/gcc/mips-linux-uclibc/4.4.7/5281/libgcc.a(_floatundisf.o)
 .comment       0x0000000000000000       0x2c /rsdk-4.4.7-5281-EB-2.6.30-0.9.33-m32utb-140606/bin/../lib/gcc/mips-linux-uclibc/4.4.7/5281/libgcc.a(_floatundidf.o)
 .comment       0x0000000000000000       0x2c /rsdk-4.4.7-5281-EB-2.6.30-0.9.33-m32utb-140606/bin/../lib/gcc/mips-linux-uclibc/4.4.7/5281/libgcc.a(_divdi3.o)
 .comment       0x0000000000000000       0x2c /rsdk-4.4.7-5281-EB-2.6.30-0.9.33-m32utb-140606/bin/../lib/gcc/mips-linux-uclibc/4.4.7/5281/libgcc.a(_udivdi3.o)
 .comment       0x0000000000000000       0x2c /rsdk-4.4.7-5281-EB-2.6.30-0.9.33-m32utb-140606/bin/../lib/gcc/mips-linux-uclibc/4.4.7/5281/libgcc.a(_umoddi3.o)
 .comment       0x0000000000000000       0x2c /rsdk-4.4.7-5281-EB-2.6.30-0.9.33-m32utb-140606/bin/../lib/gcc/mips-linux-uclibc/4.4.7/5281/libgcc.a(addsf3.o)
 .comment       0x0000000000000000       0x2c /rsdk-4.4.7-5281-EB-2.6.30-0.9.33-m32utb-140606/bin/../lib/gcc/mips-linux-uclibc/4.4.7/5281/libgcc.a(divsf3.o)
 .comment       0x0000000000000000       0x2c /rsdk-4.4.7-5281-EB-2.6.30-0.9.33-m32utb-140606/bin/../lib/gcc/mips-linux-uclibc/4.4.7/5281/libgcc.a(gesf2.o)
 .comment       0x0000000000000000       0x2c /rsdk-4.4.7-5281-EB-2.6.30-0.9.33-m32utb-140606/bin/../lib/gcc/mips-linux-uclibc/4.4.7/5281/libgcc.a(lesf2.o)
 .comment       0x0000000000000000       0x2c /rsdk-4.4.7-5281-EB-2.6.30-0.9.33-m32utb-140606/bin/../lib/gcc/mips-linux-uclibc/4.4.7/5281/libgcc.a(mulsf3.o)
 .comment       0x0000000000000000       0x2c /rsdk-4.4.7-5281-EB-2.6.30-0.9.33-m32utb-140606/bin/../lib/gcc/mips-linux-uclibc/4.4.7/5281/libgcc.a(subsf3.o)
 .comment       0x0000000000000000       0x2c /rsdk-4.4.7-5281-EB-2.6.30-0.9.33-m32utb-140606/bin/../lib/gcc/mips-linux-uclibc/4.4.7/5281/libgcc.a(fixsfsi.o)
 .comment       0x0000000000000000       0x2c /rsdk-4.4.7-5281-EB-2.6.30-0.9.33-m32utb-140606/bin/../lib/gcc/mips-linux-uclibc/4.4.7/5281/libgcc.a(floatsisf.o)
 .comment       0x0000000000000000       0x2c /rsdk-4.4.7-5281-EB-2.6.30-0.9.33-m32utb-140606/bin/../lib/gcc/mips-linux-uclibc/4.4.7/5281/libgcc.a(floatunsisf.o)
 .comment       0x0000000000000000       0x2c /rsdk-4.4.7-5281-EB-2.6.30-0.9.33-m32utb-140606/bin/../lib/gcc/mips-linux-uclibc/4.4.7/5281/libgcc.a(adddf3.o)
 .comment       0x0000000000000000       0x2c /rsdk-4.4.7-5281-EB-2.6.30-0.9.33-m32utb-140606/bin/../lib/gcc/mips-linux-uclibc/4.4.7/5281/libgcc.a(divdf3.o)
 .comment       0x0000000000000000       0x2c /rsdk-4.4.7-5281-EB-2.6.30-0.9.33-m32utb-140606/bin/../lib/gcc/mips-linux-uclibc/4.4.7/5281/libgcc.a(gedf2.o)
 .comment       0x0000000000000000       0x2c /rsdk-4.4.7-5281-EB-2.6.30-0.9.33-m32utb-140606/bin/../lib/gcc/mips-linux-uclibc/4.4.7/5281/libgcc.a(ledf2.o)
 .comment       0x0000000000000000       0x2c /rsdk-4.4.7-5281-EB-2.6.30-0.9.33-m32utb-140606/bin/../lib/gcc/mips-linux-uclibc/4.4.7/5281/libgcc.a(muldf3.o)
 .comment       0x0000000000000000       0x2c /rsdk-4.4.7-5281-EB-2.6.30-0.9.33-m32utb-140606/bin/../lib/gcc/mips-linux-uclibc/4.4.7/5281/libgcc.a(subdf3.o)
 .comment       0x0000000000000000       0x2c /rsdk-4.4.7-5281-EB-2.6.30-0.9.33-m32utb-140606/bin/../lib/gcc/mips-linux-uclibc/4.4.7/5281/libgcc.a(fixdfsi.o)
 .comment       0x0000000000000000       0x2c /rsdk-4.4.7-5281-EB-2.6.30-0.9.33-m32utb-140606/bin/../lib/gcc/mips-linux-uclibc/4.4.7/5281/libgcc.a(floatsidf.o)
 .comment       0x0000000000000000       0x2c /rsdk-4.4.7-5281-EB-2.6.30-0.9.33-m32utb-140606/bin/../lib/gcc/mips-linux-uclibc/4.4.7/5281/libgcc.a(floatunsidf.o)
 .comment       0x0000000000000000       0x2c /rsdk-4.4.7-5281-EB-2.6.30-0.9.33-m32utb-140606/bin/../lib/gcc/mips-linux-uclibc/4.4.7/5281/libgcc.a(extendsfdf2.o)
 .comment       0x0000000000000000       0x2c /rsdk-4.4.7-5281-EB-2.6.30-0.9.33-m32utb-140606/bin/../lib/gcc/mips-linux-uclibc/4.4.7/5281/libgcc.a(truncdfsf2.o)
 .comment       0x0000000000000000       0x2c /rsdk-4.4.7-5281-EB-2.6.30-0.9.33-m32utb-140606/bin/../lib/gcc/mips-linux-uclibc/4.4.7/5281/libgcc.a(_clz.o)
 .comment       0x0000000000000000       0x2c /rsdk-4.4.7-5281-EB-2.6.30-0.9.33-m32utb-140606/bin/../lib/gcc/mips-linux-uclibc/4.4.7/5281/libgcc.a(_clzsi2.o)
 .comment       0x0000000000000000       0x2c /rsdk-4.4.7-5281-EB-2.6.30-0.9.33-m32utb-140606/bin/../lib/gcc/mips-linux-uclibc/4.4.7/5281/crtend.o
 .comment       0x0000000000000000       0x12 /rsdk-4.4.7-5281-EB-2.6.30-0.9.33-m32utb-140606/bin/../lib/gcc/mips-linux-uclibc/4.4.7/../../../../mips-linux-uclibc/lib/crtn.o

.pdr            0x0000000000000000    0x14340
 .pdr           0x0000000000000000       0x20 /rsdk-4.4.7-5281-EB-2.6.30-0.9.33-m32utb-140606/bin/../lib/gcc/mips-linux-uclibc/4.4.7/../../../../mips-linux-uclibc/lib/crt1.o
 .pdr           0x0000000000000020       0x40 /rsdk-4.4.7-5281-EB-2.6.30-0.9.33-m32utb-140606/bin/../lib/gcc/mips-linux-uclibc/4.4.7/../../../../mips-linux-uclibc/lib/crti.o
 .pdr           0x0000000000000060        0x0 /rsdk-4.4.7-5281-EB-2.6.30-0.9.33-m32utb-140606/bin/../lib/gcc/mips-linux-uclibc/4.4.7/5281/crtbegin.o
 .pdr           0x0000000000000060       0x80 cli.o
 .pdr           0x00000000000000e0      0xa60 ../libtransmission/libtransmission.a(bencode.o)
 .pdr           0x0000000000000b40      0x120 ../libtransmission/libtransmission.a(ConvertUTF.o)
 .pdr           0x0000000000000c60      0x260 ../libtransmission/libtransmission.a(fdlimit.o)
 .pdr           0x0000000000000ec0       0x60 ../libtransmission/libtransmission.a(json.o)
 .pdr           0x0000000000000f20      0x120 ../libtransmission/libtransmission.a(JSON_parser.o)
 .pdr           0x0000000000001040      0x160 ../libtransmission/libtransmission.a(list.o)
 .pdr           0x00000000000011a0      0x280 ../libtransmission/libtransmission.a(net.o)
 .pdr           0x0000000000001420      0x6e0 ../libtransmission/libtransmission.a(peer-io.o)
 .pdr           0x0000000000001b00      0x260 ../libtransmission/libtransmission.a(platform.o)
 .pdr           0x0000000000001d60      0x140 ../libtransmission/libtransmission.a(ptrarray.o)
 .pdr           0x0000000000001ea0     0x1340 ../libtransmission/libtransmission.a(session.o)
 .pdr           0x00000000000031e0      0x120 ../libtransmission/libtransmission.a(stats.o)
 .pdr           0x0000000000003300     0x1060 ../libtransmission/libtransmission.a(torrent.o)
 .pdr           0x0000000000004360      0x380 ../libtransmission/libtransmission.a(torrent-ctor.o)
 .pdr           0x00000000000046e0       0xc0 ../libtransmission/libtransmission.a(torrent-magnet.o)
 .pdr           0x00000000000047a0      0x2a0 ../libtransmission/libtransmission.a(tr-dht.o)
 .pdr           0x0000000000004a40       0xe0 ../libtransmission/libtransmission.a(tr-lpd.o)
 .pdr           0x0000000000004b20       0xa0 ../libtransmission/libtransmission.a(tr-udp.o)
 .pdr           0x0000000000004bc0       0xc0 ../libtransmission/libtransmission.a(tr-utp.o)
 .pdr           0x0000000000004c80       0xa0 ../libtransmission/libtransmission.a(tr-getopt.o)
 .pdr           0x0000000000004d20       0xe0 ../libtransmission/libtransmission.a(trevent.o)
 .pdr           0x0000000000004e00      0x920 ../libtransmission/libtransmission.a(utils.o)
 .pdr           0x0000000000005720       0xe0 ../libtransmission/libtransmission.a(verify.o)
 .pdr           0x0000000000005800      0x1c0 ../libtransmission/libtransmission.a(web.o)
 .pdr           0x00000000000059c0      0x4c0 ../libtransmission/libtransmission.a(announcer.o)
 .pdr           0x0000000000005e80       0xc0 ../libtransmission/libtransmission.a(announcer-http.o)
 .pdr           0x0000000000005f40      0x280 ../libtransmission/libtransmission.a(announcer-udp.o)
 .pdr           0x00000000000061c0      0x1a0 ../libtransmission/libtransmission.a(bandwidth.o)
 .pdr           0x0000000000006360      0x200 ../libtransmission/libtransmission.a(bitfield.o)
 .pdr           0x0000000000006560      0x1a0 ../libtransmission/libtransmission.a(blocklist.o)
 .pdr           0x0000000000006700      0x240 ../libtransmission/libtransmission.a(cache.o)
 .pdr           0x0000000000006940      0x200 ../libtransmission/libtransmission.a(completion.o)
 .pdr           0x0000000000006b40      0x260 ../libtransmission/libtransmission.a(crypto.o)
 .pdr           0x0000000000006da0       0xe0 ../libtransmission/libtransmission.a(inout.o)
 .pdr           0x0000000000006e80       0x60 ../libtransmission/libtransmission.a(magnet.o)
 .pdr           0x0000000000006ee0      0x120 ../libtransmission/libtransmission.a(metainfo.o)
 .pdr           0x0000000000007000      0x920 ../libtransmission/libtransmission.a(peer-mgr.o)
 .pdr           0x0000000000007920      0x3a0 ../libtransmission/libtransmission.a(peer-msgs.o)
 .pdr           0x0000000000007cc0      0x140 ../libtransmission/libtransmission.a(port-forwarding.o)
 .pdr           0x0000000000007e00      0x100 ../libtransmission/libtransmission.a(resume.o)
 .pdr           0x0000000000007f00      0x3e0 ../libtransmission/libtransmission.a(rpc-server.o)
 .pdr           0x00000000000082e0       0xc0 ../libtransmission/libtransmission.a(upnp.o)
 .pdr           0x00000000000083a0      0x1a0 ../libtransmission/libtransmission.a(webseed.o)
 .pdr           0x0000000000008540       0x40 ../libtransmission/libtransmission.a(wildmat.o)
 .pdr           0x0000000000008580       0xc0 ../libtransmission/libtransmission.a(clients.o)
 .pdr           0x0000000000008640      0x200 ../libtransmission/libtransmission.a(handshake.o)
 .pdr           0x0000000000008840       0x40 ../libtransmission/libtransmission.a(history.o)
 .pdr           0x0000000000008880       0x80 ../libtransmission/libtransmission.a(natpmp.o)
 .pdr           0x0000000000008900      0x4e0 ../libtransmission/libtransmission.a(rpcimpl.o)
 .pdr           0x0000000000008de0      0x140 ../third-party/libnatpmp/libnatpmp.a(natpmp.o)
 .pdr           0x0000000000008f20       0x20 ../third-party/libnatpmp/libnatpmp.a(getgateway.o)
 .pdr           0x0000000000008f40      0x160 ../third-party/miniupnp/libminiupnp.a(miniupnpc.o)
 .pdr           0x00000000000090a0       0xa0 ../third-party/miniupnp/libminiupnp.a(miniwget.o)
 .pdr           0x0000000000009140       0x20 ../third-party/miniupnp/libminiupnp.a(minixml.o)
 .pdr           0x0000000000009160       0x20 ../third-party/miniupnp/libminiupnp.a(receivedata.o)
 .pdr           0x0000000000009180      0x2c0 ../third-party/miniupnp/libminiupnp.a(upnpcommands.o)
 .pdr           0x0000000000009440       0xa0 ../third-party/miniupnp/libminiupnp.a(upnpreplyparse.o)
 .pdr           0x00000000000094e0       0x20 ../third-party/miniupnp/libminiupnp.a(connecthostport.o)
 .pdr           0x0000000000009500       0x80 ../third-party/miniupnp/libminiupnp.a(igd_desc_parse.o)
 .pdr           0x0000000000009580       0x20 ../third-party/miniupnp/libminiupnp.a(minisoap.o)
 .pdr           0x00000000000095a0       0x20 ../third-party/miniupnp/libminiupnp.a(minissdpc.o)
 .pdr           0x00000000000095c0       0xa0 ../third-party/miniupnp/libminiupnp.a(portlistingparse.o)
 .pdr           0x0000000000009660      0x580 ../third-party/dht/libdht.a(dht.o)
 .pdr           0x0000000000009be0      0x5e0 ../third-party/libutp/libutp.a(utp.o)
 .pdr           0x000000000000a1c0       0xe0 ../third-party/libutp/libutp.a(utp_utils.o)
 .pdr           0x000000000000a2a0      0xb40 /home/ql_xu/develop/trunk/uClinux-dist/lib/libevent/.libs/libevent.a(event.o)
 .pdr           0x000000000000ade0      0x1c0 /home/ql_xu/develop/trunk/uClinux-dist/lib/libevent/.libs/libevent.a(evthread.o)
 .pdr           0x000000000000afa0      0x900 /home/ql_xu/develop/trunk/uClinux-dist/lib/libevent/.libs/libevent.a(buffer.o)
 .pdr           0x000000000000b8a0      0x580 /home/ql_xu/develop/trunk/uClinux-dist/lib/libevent/.libs/libevent.a(bufferevent.o)
 .pdr           0x000000000000be20      0x480 /home/ql_xu/develop/trunk/uClinux-dist/lib/libevent/.libs/libevent.a(bufferevent_ratelim.o)
 .pdr           0x000000000000c2a0      0x260 /home/ql_xu/develop/trunk/uClinux-dist/lib/libevent/.libs/libevent.a(evmap.o)
 .pdr           0x000000000000c500      0x180 /home/ql_xu/develop/trunk/uClinux-dist/lib/libevent/.libs/libevent.a(log.o)
 .pdr           0x000000000000c680      0x5c0 /home/ql_xu/develop/trunk/uClinux-dist/lib/libevent/.libs/libevent.a(evutil.o)
 .pdr           0x000000000000cc40       0xc0 /home/ql_xu/develop/trunk/uClinux-dist/lib/libevent/.libs/libevent.a(evutil_rand.o)
 .pdr           0x000000000000cd00       0xe0 /home/ql_xu/develop/trunk/uClinux-dist/lib/libevent/.libs/libevent.a(select.o)
 .pdr           0x000000000000cde0       0xa0 /home/ql_xu/develop/trunk/uClinux-dist/lib/libevent/.libs/libevent.a(poll.o)
 .pdr           0x000000000000ce80       0xc0 /home/ql_xu/develop/trunk/uClinux-dist/lib/libevent/.libs/libevent.a(epoll.o)
 .pdr           0x000000000000cf40      0x140 /home/ql_xu/develop/trunk/uClinux-dist/lib/libevent/.libs/libevent.a(signal.o)
 .pdr           0x000000000000d080     0x1100 /home/ql_xu/develop/trunk/uClinux-dist/lib/libevent/.libs/libevent.a(http.o)
 .pdr           0x000000000000e180      0xd00 /home/ql_xu/develop/trunk/uClinux-dist/lib/libevent/.libs/libevent.a(evdns.o)
 .pdr           0x000000000000ee80      0x220 /home/ql_xu/develop/trunk/uClinux-dist/lib/libevent/.libs/libevent.a(bufferevent_sock.o)
 .pdr           0x000000000000f0a0      0x200 /home/ql_xu/develop/trunk/uClinux-dist/lib/libevent/.libs/libevent.a(listener.o)
 .pdr           0x000000000000f2a0       0xc0 /home/ql_xu/develop/trunk/uClinux-dist/user/curl-7.36.0/lib/.libs/libcurl.a(libcurl_la-escape.o)
 .pdr           0x000000000000f360      0x1c0 /home/ql_xu/develop/trunk/uClinux-dist/user/curl-7.36.0/lib/.libs/libcurl.a(libcurl_la-mprintf.o)
 .pdr           0x000000000000f520      0x1c0 /home/ql_xu/develop/trunk/uClinux-dist/user/curl-7.36.0/lib/.libs/libcurl.a(libcurl_la-easy.o)
 .pdr           0x000000000000f6e0      0x1a0 /home/ql_xu/develop/trunk/uClinux-dist/user/curl-7.36.0/lib/.libs/libcurl.a(libcurl_la-connect.o)
 .pdr           0x000000000000f880      0x540 /home/ql_xu/develop/trunk/uClinux-dist/user/curl-7.36.0/lib/.libs/libcurl.a(libcurl_la-multi.o)
 .pdr           0x000000000000fdc0       0x80 /home/ql_xu/develop/trunk/uClinux-dist/user/curl-7.36.0/lib/.libs/libcurl.a(libcurl_la-strerror.o)
 .pdr           0x000000000000fe40       0x60 /home/ql_xu/develop/trunk/uClinux-dist/user/curl-7.36.0/lib/.libs/libcurl.a(libcurl_la-select.o)
 .pdr           0x000000000000fea0       0x80 /home/ql_xu/develop/trunk/uClinux-dist/user/curl-7.36.0/lib/.libs/libcurl.a(libcurl_la-splay.o)
 .pdr           0x000000000000ff20       0x80 /home/ql_xu/develop/trunk/uClinux-dist/user/curl-7.36.0/lib/.libs/libcurl.a(libcurl_la-slist.o)
 .pdr           0x000000000000ffa0       0x20 /home/ql_xu/develop/trunk/uClinux-dist/user/curl-7.36.0/lib/.libs/libcurl.a(libcurl_la-nonblock.o)
 .pdr           0x000000000000ffc0      0x1a0 /home/ql_xu/develop/trunk/uClinux-dist/user/curl-7.36.0/lib/.libs/libcurl.a(libcurl_la-warnless.o)
 .pdr           0x0000000000010160      0x120 /home/ql_xu/develop/trunk/uClinux-dist/user/curl-7.36.0/lib/.libs/libcurl.a(libcurl_la-conncache.o)
 .pdr           0x0000000000010280      0x120 /home/ql_xu/develop/trunk/uClinux-dist/user/curl-7.36.0/lib/.libs/libcurl.a(libcurl_la-pipeline.o)
 .pdr           0x00000000000103a0       0x80 /home/ql_xu/develop/trunk/uClinux-dist/user/curl-7.36.0/lib/.libs/libcurl.a(libcurl_la-timeval.o)
 .pdr           0x0000000000010420      0x220 /home/ql_xu/develop/trunk/uClinux-dist/user/curl-7.36.0/lib/.libs/libcurl.a(libcurl_la-hostip.o)
 .pdr           0x0000000000010640      0x160 /home/ql_xu/develop/trunk/uClinux-dist/user/curl-7.36.0/lib/.libs/libcurl.a(libcurl_la-progress.o)
 .pdr           0x00000000000107a0      0x220 /home/ql_xu/develop/trunk/uClinux-dist/user/curl-7.36.0/lib/.libs/libcurl.a(libcurl_la-cookie.o)
 .pdr           0x00000000000109c0      0x320 /home/ql_xu/develop/trunk/uClinux-dist/user/curl-7.36.0/lib/.libs/libcurl.a(libcurl_la-http.o)
 .pdr           0x0000000000010ce0      0x1a0 /home/ql_xu/develop/trunk/uClinux-dist/user/curl-7.36.0/lib/.libs/libcurl.a(libcurl_la-sendf.o)
 .pdr           0x0000000000010e80      0x540 /home/ql_xu/develop/trunk/uClinux-dist/user/curl-7.36.0/lib/.libs/libcurl.a(libcurl_la-url.o)
 .pdr           0x00000000000113c0       0x40 /home/ql_xu/develop/trunk/uClinux-dist/user/curl-7.36.0/lib/.libs/libcurl.a(libcurl_la-dict.o)
 .pdr           0x0000000000011400       0x40 /home/ql_xu/develop/trunk/uClinux-dist/user/curl-7.36.0/lib/.libs/libcurl.a(libcurl_la-if2ip.o)
 .pdr           0x0000000000011440       0x40 /home/ql_xu/develop/trunk/uClinux-dist/user/curl-7.36.0/lib/.libs/libcurl.a(libcurl_la-speedcheck.o)
 .pdr           0x0000000000011480       0x20 /home/ql_xu/develop/trunk/uClinux-dist/user/curl-7.36.0/lib/.libs/libcurl.a(libcurl_la-getenv.o)
 .pdr           0x00000000000114a0      0x120 /home/ql_xu/develop/trunk/uClinux-dist/user/curl-7.36.0/lib/.libs/libcurl.a(libcurl_la-telnet.o)
 .pdr           0x00000000000115c0       0x20 /home/ql_xu/develop/trunk/uClinux-dist/user/curl-7.36.0/lib/.libs/libcurl.a(libcurl_la-netrc.o)
 .pdr           0x00000000000115e0       0x40 /home/ql_xu/develop/trunk/uClinux-dist/user/curl-7.36.0/lib/.libs/libcurl.a(libcurl_la-getinfo.o)
 .pdr           0x0000000000011620      0x180 /home/ql_xu/develop/trunk/uClinux-dist/user/curl-7.36.0/lib/.libs/libcurl.a(libcurl_la-transfer.o)
 .pdr           0x00000000000117a0       0x40 /home/ql_xu/develop/trunk/uClinux-dist/user/curl-7.36.0/lib/.libs/libcurl.a(libcurl_la-strequal.o)
 .pdr           0x00000000000117e0       0x40 /home/ql_xu/develop/trunk/uClinux-dist/user/curl-7.36.0/lib/.libs/libcurl.a(libcurl_la-wildcard.o)
 .pdr           0x0000000000011820       0x60 /home/ql_xu/develop/trunk/uClinux-dist/user/curl-7.36.0/lib/.libs/libcurl.a(libcurl_la-http_chunks.o)
 .pdr           0x0000000000011880       0xc0 /home/ql_xu/develop/trunk/uClinux-dist/user/curl-7.36.0/lib/.libs/libcurl.a(libcurl_la-llist.o)
 .pdr           0x0000000000011940      0x1a0 /home/ql_xu/develop/trunk/uClinux-dist/user/curl-7.36.0/lib/.libs/libcurl.a(libcurl_la-hash.o)
 .pdr           0x0000000000011ae0       0xa0 /home/ql_xu/develop/trunk/uClinux-dist/user/curl-7.36.0/lib/.libs/libcurl.a(libcurl_la-share.o)
 .pdr           0x0000000000011b80       0xa0 /home/ql_xu/develop/trunk/uClinux-dist/user/curl-7.36.0/lib/.libs/libcurl.a(libcurl_la-http_digest.o)
 .pdr           0x0000000000011c20      0x100 /home/ql_xu/develop/trunk/uClinux-dist/user/curl-7.36.0/lib/.libs/libcurl.a(libcurl_la-md5.o)
 .pdr           0x0000000000011d20       0x60 /home/ql_xu/develop/trunk/uClinux-dist/user/curl-7.36.0/lib/.libs/libcurl.a(libcurl_la-hostip4.o)
 .pdr           0x0000000000011d80       0x80 /home/ql_xu/develop/trunk/uClinux-dist/user/curl-7.36.0/lib/.libs/libcurl.a(libcurl_la-hostsyn.o)
 .pdr           0x0000000000011e00       0x40 /home/ql_xu/develop/trunk/uClinux-dist/user/curl-7.36.0/lib/.libs/libcurl.a(libcurl_la-parsedate.o)
 .pdr           0x0000000000011e40      0x1e0 /home/ql_xu/develop/trunk/uClinux-dist/user/curl-7.36.0/lib/.libs/libcurl.a(libcurl_la-tftp.o)
 .pdr           0x0000000000012020       0x60 /home/ql_xu/develop/trunk/uClinux-dist/user/curl-7.36.0/lib/.libs/libcurl.a(libcurl_la-socks.o)
 .pdr           0x0000000000012080       0x80 /home/ql_xu/develop/trunk/uClinux-dist/user/curl-7.36.0/lib/.libs/libcurl.a(libcurl_la-rawstr.o)
 .pdr           0x0000000000012100       0xa0 /home/ql_xu/develop/trunk/uClinux-dist/user/curl-7.36.0/lib/.libs/libcurl.a(libcurl_la-curl_addrinfo.o)
 .pdr           0x00000000000121a0       0x20 /home/ql_xu/develop/trunk/uClinux-dist/user/curl-7.36.0/lib/.libs/libcurl.a(libcurl_la-curl_memrchr.o)
 .pdr           0x00000000000121c0      0x280 /home/ql_xu/develop/trunk/uClinux-dist/user/curl-7.36.0/lib/.libs/libcurl.a(libcurl_la-imap.o)
 .pdr           0x0000000000012440      0x200 /home/ql_xu/develop/trunk/uClinux-dist/user/curl-7.36.0/lib/.libs/libcurl.a(libcurl_la-pop3.o)
 .pdr           0x0000000000012640      0x240 /home/ql_xu/develop/trunk/uClinux-dist/user/curl-7.36.0/lib/.libs/libcurl.a(libcurl_la-smtp.o)
 .pdr           0x0000000000012880      0x140 /home/ql_xu/develop/trunk/uClinux-dist/user/curl-7.36.0/lib/.libs/libcurl.a(libcurl_la-pingpong.o)
 .pdr           0x00000000000129c0      0x120 /home/ql_xu/develop/trunk/uClinux-dist/user/curl-7.36.0/lib/.libs/libcurl.a(libcurl_la-rtsp.o)
 .pdr           0x0000000000012ae0       0x20 /home/ql_xu/develop/trunk/uClinux-dist/user/curl-7.36.0/lib/.libs/libcurl.a(libcurl_la-curl_gethostname.o)
 .pdr           0x0000000000012b00       0x20 /home/ql_xu/develop/trunk/uClinux-dist/user/curl-7.36.0/lib/.libs/libcurl.a(libcurl_la-gopher.o)
 .pdr           0x0000000000012b20       0x40 /home/ql_xu/develop/trunk/uClinux-dist/user/curl-7.36.0/lib/.libs/libcurl.a(libcurl_la-http_proxy.o)
 .pdr           0x0000000000012b60      0x120 /home/ql_xu/develop/trunk/uClinux-dist/user/curl-7.36.0/lib/.libs/libcurl.a(libcurl_la-curl_sasl.o)
 .pdr           0x0000000000012c80       0xa0 /home/ql_xu/develop/trunk/uClinux-dist/user/curl-7.36.0/lib/.libs/libcurl.a(libcurl_la-bundles.o)
 .pdr           0x0000000000012d20       0x20 /home/ql_xu/develop/trunk/uClinux-dist/user/curl-7.36.0/lib/.libs/libcurl.a(libcurl_la-dotdot.o)
 .pdr           0x0000000000012d40       0xa0 /home/ql_xu/develop/trunk/uClinux-dist/user/curl-7.36.0/lib/.libs/libcurl.a(libcurl_la-vtls.o)
 .pdr           0x0000000000012de0       0xa0 /home/ql_xu/develop/trunk/uClinux-dist/user/curl-7.36.0/lib/.libs/libcurl.a(libcurl_la-file.o)
 .pdr           0x0000000000012e80       0x40 /home/ql_xu/develop/trunk/uClinux-dist/user/curl-7.36.0/lib/.libs/libcurl.a(libcurl_la-base64.o)
 .pdr           0x0000000000012ec0      0x1c0 /home/ql_xu/develop/trunk/uClinux-dist/user/curl-7.36.0/lib/.libs/libcurl.a(libcurl_la-formdata.o)
 .pdr           0x0000000000013080      0x500 /home/ql_xu/develop/trunk/uClinux-dist/user/curl-7.36.0/lib/.libs/libcurl.a(libcurl_la-ftp.o)
 .pdr           0x0000000000013580       0x40 /home/ql_xu/develop/trunk/uClinux-dist/user/curl-7.36.0/lib/.libs/libcurl.a(libcurl_la-fileinfo.o)
 .pdr           0x00000000000135c0       0xc0 /home/ql_xu/develop/trunk/uClinux-dist/user/curl-7.36.0/lib/.libs/libcurl.a(libcurl_la-ftplistparser.o)
 .pdr           0x0000000000013680       0x60 /home/ql_xu/develop/trunk/uClinux-dist/user/curl-7.36.0/lib/.libs/libcurl.a(libcurl_la-hmac.o)
 .pdr           0x00000000000136e0       0x40 /home/ql_xu/develop/trunk/uClinux-dist/user/curl-7.36.0/lib/.libs/libcurl.a(libcurl_la-curl_fnmatch.o)
 .pdr           0x0000000000013720      0x220 /home/ql_xu/develop/trunk/uClinux-dist/lib/zlib/libz.a(deflate.o)
 .pdr           0x0000000000013940      0x2a0 /home/ql_xu/develop/trunk/uClinux-dist/lib/zlib/libz.a(trees.o)
 .pdr           0x0000000000013be0       0x80 /home/ql_xu/develop/trunk/uClinux-dist/lib/zlib/libz.a(zutil.o)
 .pdr           0x0000000000013c60      0x100 /home/ql_xu/develop/trunk/uClinux-dist/lib/zlib/libz.a(inflate.o)
 .pdr           0x0000000000013d60       0xc0 /home/ql_xu/develop/trunk/uClinux-dist/lib/zlib/libz.a(infblock.o)
 .pdr           0x0000000000013e20       0x80 /home/ql_xu/develop/trunk/uClinux-dist/lib/zlib/libz.a(inftrees.o)
 .pdr           0x0000000000013ea0       0x60 /home/ql_xu/develop/trunk/uClinux-dist/lib/zlib/libz.a(infcodes.o)
 .pdr           0x0000000000013f00       0x20 /home/ql_xu/develop/trunk/uClinux-dist/lib/zlib/libz.a(infutil.o)
 .pdr           0x0000000000013f20       0x20 /home/ql_xu/develop/trunk/uClinux-dist/lib/zlib/libz.a(inffast.o)
 .pdr           0x0000000000013f40       0x20 /home/ql_xu/develop/trunk/uClinux-dist/lib/zlib/libz.a(adler32.o)
 .pdr           0x0000000000013f60       0x20 /rsdk-4.4.7-5281-EB-2.6.30-0.9.33-m32utb-140606/bin/../lib/gcc/mips-linux-uclibc/4.4.7/5281/libgcc.a(_fixunssfsi.o)
 .pdr           0x0000000000013f80       0x20 /rsdk-4.4.7-5281-EB-2.6.30-0.9.33-m32utb-140606/bin/../lib/gcc/mips-linux-uclibc/4.4.7/5281/libgcc.a(_fixunsdfsi.o)
 .pdr           0x0000000000013fa0       0x20 /rsdk-4.4.7-5281-EB-2.6.30-0.9.33-m32utb-140606/bin/../lib/gcc/mips-linux-uclibc/4.4.7/5281/libgcc.a(_fixdfdi.o)
 .pdr           0x0000000000013fc0       0x20 /rsdk-4.4.7-5281-EB-2.6.30-0.9.33-m32utb-140606/bin/../lib/gcc/mips-linux-uclibc/4.4.7/5281/libgcc.a(_fixunsdfdi.o)
 .pdr           0x0000000000013fe0       0x20 /rsdk-4.4.7-5281-EB-2.6.30-0.9.33-m32utb-140606/bin/../lib/gcc/mips-linux-uclibc/4.4.7/5281/libgcc.a(_floatdidf.o)
 .pdr           0x0000000000014000       0x20 /rsdk-4.4.7-5281-EB-2.6.30-0.9.33-m32utb-140606/bin/../lib/gcc/mips-linux-uclibc/4.4.7/5281/libgcc.a(_floatundisf.o)
 .pdr           0x0000000000014020       0x20 /rsdk-4.4.7-5281-EB-2.6.30-0.9.33-m32utb-140606/bin/../lib/gcc/mips-linux-uclibc/4.4.7/5281/libgcc.a(_floatundidf.o)
 .pdr           0x0000000000014040       0x20 /rsdk-4.4.7-5281-EB-2.6.30-0.9.33-m32utb-140606/bin/../lib/gcc/mips-linux-uclibc/4.4.7/5281/libgcc.a(_divdi3.o)
 .pdr           0x0000000000014060       0x20 /rsdk-4.4.7-5281-EB-2.6.30-0.9.33-m32utb-140606/bin/../lib/gcc/mips-linux-uclibc/4.4.7/5281/libgcc.a(_udivdi3.o)
 .pdr           0x0000000000014080       0x20 /rsdk-4.4.7-5281-EB-2.6.30-0.9.33-m32utb-140606/bin/../lib/gcc/mips-linux-uclibc/4.4.7/5281/libgcc.a(_umoddi3.o)
 .pdr           0x00000000000140a0       0x20 /rsdk-4.4.7-5281-EB-2.6.30-0.9.33-m32utb-140606/bin/../lib/gcc/mips-linux-uclibc/4.4.7/5281/libgcc.a(addsf3.o)
 .pdr           0x00000000000140c0       0x20 /rsdk-4.4.7-5281-EB-2.6.30-0.9.33-m32utb-140606/bin/../lib/gcc/mips-linux-uclibc/4.4.7/5281/libgcc.a(divsf3.o)
 .pdr           0x00000000000140e0       0x20 /rsdk-4.4.7-5281-EB-2.6.30-0.9.33-m32utb-140606/bin/../lib/gcc/mips-linux-uclibc/4.4.7/5281/libgcc.a(gesf2.o)
 .pdr           0x0000000000014100       0x20 /rsdk-4.4.7-5281-EB-2.6.30-0.9.33-m32utb-140606/bin/../lib/gcc/mips-linux-uclibc/4.4.7/5281/libgcc.a(lesf2.o)
 .pdr           0x0000000000014120       0x20 /rsdk-4.4.7-5281-EB-2.6.30-0.9.33-m32utb-140606/bin/../lib/gcc/mips-linux-uclibc/4.4.7/5281/libgcc.a(mulsf3.o)
 .pdr           0x0000000000014140       0x20 /rsdk-4.4.7-5281-EB-2.6.30-0.9.33-m32utb-140606/bin/../lib/gcc/mips-linux-uclibc/4.4.7/5281/libgcc.a(subsf3.o)
 .pdr           0x0000000000014160       0x20 /rsdk-4.4.7-5281-EB-2.6.30-0.9.33-m32utb-140606/bin/../lib/gcc/mips-linux-uclibc/4.4.7/5281/libgcc.a(fixsfsi.o)
 .pdr           0x0000000000014180       0x20 /rsdk-4.4.7-5281-EB-2.6.30-0.9.33-m32utb-140606/bin/../lib/gcc/mips-linux-uclibc/4.4.7/5281/libgcc.a(floatsisf.o)
 .pdr           0x00000000000141a0       0x20 /rsdk-4.4.7-5281-EB-2.6.30-0.9.33-m32utb-140606/bin/../lib/gcc/mips-linux-uclibc/4.4.7/5281/libgcc.a(floatunsisf.o)
 .pdr           0x00000000000141c0       0x20 /rsdk-4.4.7-5281-EB-2.6.30-0.9.33-m32utb-140606/bin/../lib/gcc/mips-linux-uclibc/4.4.7/5281/libgcc.a(adddf3.o)
 .pdr           0x00000000000141e0       0x20 /rsdk-4.4.7-5281-EB-2.6.30-0.9.33-m32utb-140606/bin/../lib/gcc/mips-linux-uclibc/4.4.7/5281/libgcc.a(divdf3.o)
 .pdr           0x0000000000014200       0x20 /rsdk-4.4.7-5281-EB-2.6.30-0.9.33-m32utb-140606/bin/../lib/gcc/mips-linux-uclibc/4.4.7/5281/libgcc.a(gedf2.o)
 .pdr           0x0000000000014220       0x20 /rsdk-4.4.7-5281-EB-2.6.30-0.9.33-m32utb-140606/bin/../lib/gcc/mips-linux-uclibc/4.4.7/5281/libgcc.a(ledf2.o)
 .pdr           0x0000000000014240       0x20 /rsdk-4.4.7-5281-EB-2.6.30-0.9.33-m32utb-140606/bin/../lib/gcc/mips-linux-uclibc/4.4.7/5281/libgcc.a(muldf3.o)
 .pdr           0x0000000000014260       0x20 /rsdk-4.4.7-5281-EB-2.6.30-0.9.33-m32utb-140606/bin/../lib/gcc/mips-linux-uclibc/4.4.7/5281/libgcc.a(subdf3.o)
 .pdr           0x0000000000014280       0x20 /rsdk-4.4.7-5281-EB-2.6.30-0.9.33-m32utb-140606/bin/../lib/gcc/mips-linux-uclibc/4.4.7/5281/libgcc.a(fixdfsi.o)
 .pdr           0x00000000000142a0       0x20 /rsdk-4.4.7-5281-EB-2.6.30-0.9.33-m32utb-140606/bin/../lib/gcc/mips-linux-uclibc/4.4.7/5281/libgcc.a(floatsidf.o)
 .pdr           0x00000000000142c0       0x20 /rsdk-4.4.7-5281-EB-2.6.30-0.9.33-m32utb-140606/bin/../lib/gcc/mips-linux-uclibc/4.4.7/5281/libgcc.a(floatunsidf.o)
 .pdr           0x00000000000142e0       0x20 /rsdk-4.4.7-5281-EB-2.6.30-0.9.33-m32utb-140606/bin/../lib/gcc/mips-linux-uclibc/4.4.7/5281/libgcc.a(extendsfdf2.o)
 .pdr           0x0000000000014300       0x20 /rsdk-4.4.7-5281-EB-2.6.30-0.9.33-m32utb-140606/bin/../lib/gcc/mips-linux-uclibc/4.4.7/5281/libgcc.a(truncdfsf2.o)
 .pdr           0x0000000000014320        0x0 /rsdk-4.4.7-5281-EB-2.6.30-0.9.33-m32utb-140606/bin/../lib/gcc/mips-linux-uclibc/4.4.7/5281/libgcc.a(_clz.o)
 .pdr           0x0000000000014320       0x20 /rsdk-4.4.7-5281-EB-2.6.30-0.9.33-m32utb-140606/bin/../lib/gcc/mips-linux-uclibc/4.4.7/5281/libgcc.a(_clzsi2.o)
 .pdr           0x0000000000014340        0x0 /rsdk-4.4.7-5281-EB-2.6.30-0.9.33-m32utb-140606/bin/../lib/gcc/mips-linux-uclibc/4.4.7/5281/crtend.o
 .pdr           0x0000000000014340        0x0 /rsdk-4.4.7-5281-EB-2.6.30-0.9.33-m32utb-140606/bin/../lib/gcc/mips-linux-uclibc/4.4.7/../../../../mips-linux-uclibc/lib/crtn.o

.debug
 *(.debug)

.line
 *(.line)

.debug_srcinfo
 *(.debug_srcinfo)

.debug_sfnames
 *(.debug_sfnames)

.debug_aranges  0x0000000000000000      0xa88
 *(.debug_aranges)
 .debug_aranges
                0x0000000000000000       0x20 cli.o
 .debug_aranges
                0x0000000000000020       0x20 ../libtransmission/libtransmission.a(bencode.o)
 .debug_aranges
                0x0000000000000040       0x20 ../libtransmission/libtransmission.a(ConvertUTF.o)
 .debug_aranges
                0x0000000000000060       0x20 ../libtransmission/libtransmission.a(fdlimit.o)
 .debug_aranges
                0x0000000000000080       0x20 ../libtransmission/libtransmission.a(json.o)
 .debug_aranges
                0x00000000000000a0       0x20 ../libtransmission/libtransmission.a(JSON_parser.o)
 .debug_aranges
                0x00000000000000c0       0x20 ../libtransmission/libtransmission.a(list.o)
 .debug_aranges
                0x00000000000000e0       0x20 ../libtransmission/libtransmission.a(net.o)
 .debug_aranges
                0x0000000000000100       0x20 ../libtransmission/libtransmission.a(peer-io.o)
 .debug_aranges
                0x0000000000000120       0x20 ../libtransmission/libtransmission.a(platform.o)
 .debug_aranges
                0x0000000000000140       0x20 ../libtransmission/libtransmission.a(ptrarray.o)
 .debug_aranges
                0x0000000000000160       0x20 ../libtransmission/libtransmission.a(session.o)
 .debug_aranges
                0x0000000000000180       0x20 ../libtransmission/libtransmission.a(stats.o)
 .debug_aranges
                0x00000000000001a0       0x20 ../libtransmission/libtransmission.a(torrent.o)
 .debug_aranges
                0x00000000000001c0       0x20 ../libtransmission/libtransmission.a(torrent-ctor.o)
 .debug_aranges
                0x00000000000001e0       0x20 ../libtransmission/libtransmission.a(torrent-magnet.o)
 .debug_aranges
                0x0000000000000200       0x20 ../libtransmission/libtransmission.a(tr-dht.o)
 .debug_aranges
                0x0000000000000220       0x20 ../libtransmission/libtransmission.a(tr-lpd.o)
 .debug_aranges
                0x0000000000000240       0x20 ../libtransmission/libtransmission.a(tr-udp.o)
 .debug_aranges
                0x0000000000000260       0x20 ../libtransmission/libtransmission.a(tr-utp.o)
 .debug_aranges
                0x0000000000000280       0x20 ../libtransmission/libtransmission.a(tr-getopt.o)
 .debug_aranges
                0x00000000000002a0       0x20 ../libtransmission/libtransmission.a(trevent.o)
 .debug_aranges
                0x00000000000002c0       0x28 ../libtransmission/libtransmission.a(utils.o)
 .debug_aranges
                0x00000000000002e8       0x20 ../libtransmission/libtransmission.a(verify.o)
 .debug_aranges
                0x0000000000000308       0x20 ../libtransmission/libtransmission.a(web.o)
 .debug_aranges
                0x0000000000000328       0x20 ../libtransmission/libtransmission.a(announcer.o)
 .debug_aranges
                0x0000000000000348       0x20 ../libtransmission/libtransmission.a(announcer-http.o)
 .debug_aranges
                0x0000000000000368       0x20 ../libtransmission/libtransmission.a(announcer-udp.o)
 .debug_aranges
                0x0000000000000388       0x20 ../libtransmission/libtransmission.a(bandwidth.o)
 .debug_aranges
                0x00000000000003a8       0x20 ../libtransmission/libtransmission.a(bitfield.o)
 .debug_aranges
                0x00000000000003c8       0x20 ../libtransmission/libtransmission.a(blocklist.o)
 .debug_aranges
                0x00000000000003e8       0x20 ../libtransmission/libtransmission.a(cache.o)
 .debug_aranges
                0x0000000000000408       0x20 ../libtransmission/libtransmission.a(completion.o)
 .debug_aranges
                0x0000000000000428       0x20 ../libtransmission/libtransmission.a(crypto.o)
 .debug_aranges
                0x0000000000000448       0x20 ../libtransmission/libtransmission.a(inout.o)
 .debug_aranges
                0x0000000000000468       0x20 ../libtransmission/libtransmission.a(magnet.o)
 .debug_aranges
                0x0000000000000488       0x20 ../libtransmission/libtransmission.a(metainfo.o)
 .debug_aranges
                0x00000000000004a8       0x20 ../libtransmission/libtransmission.a(peer-mgr.o)
 .debug_aranges
                0x00000000000004c8       0x20 ../libtransmission/libtransmission.a(peer-msgs.o)
 .debug_aranges
                0x00000000000004e8       0x20 ../libtransmission/libtransmission.a(port-forwarding.o)
 .debug_aranges
                0x0000000000000508       0x20 ../libtransmission/libtransmission.a(resume.o)
 .debug_aranges
                0x0000000000000528       0x20 ../libtransmission/libtransmission.a(rpc-server.o)
 .debug_aranges
                0x0000000000000548       0x20 ../libtransmission/libtransmission.a(upnp.o)
 .debug_aranges
                0x0000000000000568       0x20 ../libtransmission/libtransmission.a(webseed.o)
 .debug_aranges
                0x0000000000000588       0x20 ../libtransmission/libtransmission.a(wildmat.o)
 .debug_aranges
                0x00000000000005a8       0x20 ../libtransmission/libtransmission.a(clients.o)
 .debug_aranges
                0x00000000000005c8       0x20 ../libtransmission/libtransmission.a(handshake.o)
 .debug_aranges
                0x00000000000005e8       0x20 ../libtransmission/libtransmission.a(history.o)
 .debug_aranges
                0x0000000000000608       0x20 ../libtransmission/libtransmission.a(natpmp.o)
 .debug_aranges
                0x0000000000000628       0x20 ../libtransmission/libtransmission.a(rpcimpl.o)
 .debug_aranges
                0x0000000000000648       0x20 ../third-party/libnatpmp/libnatpmp.a(natpmp.o)
 .debug_aranges
                0x0000000000000668       0x20 ../third-party/libnatpmp/libnatpmp.a(getgateway.o)
 .debug_aranges
                0x0000000000000688       0x20 ../third-party/miniupnp/libminiupnp.a(miniupnpc.o)
 .debug_aranges
                0x00000000000006a8       0x20 ../third-party/miniupnp/libminiupnp.a(miniwget.o)
 .debug_aranges
                0x00000000000006c8       0x20 ../third-party/miniupnp/libminiupnp.a(minixml.o)
 .debug_aranges
                0x00000000000006e8       0x20 ../third-party/miniupnp/libminiupnp.a(receivedata.o)
 .debug_aranges
                0x0000000000000708       0x20 ../third-party/miniupnp/libminiupnp.a(upnpcommands.o)
 .debug_aranges
                0x0000000000000728       0x20 ../third-party/miniupnp/libminiupnp.a(upnpreplyparse.o)
 .debug_aranges
                0x0000000000000748       0x20 ../third-party/miniupnp/libminiupnp.a(connecthostport.o)
 .debug_aranges
                0x0000000000000768       0x20 ../third-party/miniupnp/libminiupnp.a(igd_desc_parse.o)
 .debug_aranges
                0x0000000000000788       0x20 ../third-party/miniupnp/libminiupnp.a(minisoap.o)
 .debug_aranges
                0x00000000000007a8       0x20 ../third-party/miniupnp/libminiupnp.a(minissdpc.o)
 .debug_aranges
                0x00000000000007c8       0x20 ../third-party/miniupnp/libminiupnp.a(portlistingparse.o)
 .debug_aranges
                0x00000000000007e8       0x20 ../third-party/dht/libdht.a(dht.o)
 .debug_aranges
                0x0000000000000808       0x40 ../third-party/libutp/libutp.a(utp.o)
 .debug_aranges
                0x0000000000000848       0x20 ../third-party/libutp/libutp.a(utp_utils.o)
 .debug_aranges
                0x0000000000000868       0x20 /home/ql_xu/develop/trunk/uClinux-dist/lib/libevent/.libs/libevent.a(event.o)
 .debug_aranges
                0x0000000000000888       0x20 /home/ql_xu/develop/trunk/uClinux-dist/lib/libevent/.libs/libevent.a(evthread.o)
 .debug_aranges
                0x00000000000008a8       0x20 /home/ql_xu/develop/trunk/uClinux-dist/lib/libevent/.libs/libevent.a(buffer.o)
 .debug_aranges
                0x00000000000008c8       0x20 /home/ql_xu/develop/trunk/uClinux-dist/lib/libevent/.libs/libevent.a(bufferevent.o)
 .debug_aranges
                0x00000000000008e8       0x20 /home/ql_xu/develop/trunk/uClinux-dist/lib/libevent/.libs/libevent.a(bufferevent_ratelim.o)
 .debug_aranges
                0x0000000000000908       0x20 /home/ql_xu/develop/trunk/uClinux-dist/lib/libevent/.libs/libevent.a(evmap.o)
 .debug_aranges
                0x0000000000000928       0x20 /home/ql_xu/develop/trunk/uClinux-dist/lib/libevent/.libs/libevent.a(log.o)
 .debug_aranges
                0x0000000000000948       0x20 /home/ql_xu/develop/trunk/uClinux-dist/lib/libevent/.libs/libevent.a(evutil.o)
 .debug_aranges
                0x0000000000000968       0x20 /home/ql_xu/develop/trunk/uClinux-dist/lib/libevent/.libs/libevent.a(evutil_rand.o)
 .debug_aranges
                0x0000000000000988       0x20 /home/ql_xu/develop/trunk/uClinux-dist/lib/libevent/.libs/libevent.a(select.o)
 .debug_aranges
                0x00000000000009a8       0x20 /home/ql_xu/develop/trunk/uClinux-dist/lib/libevent/.libs/libevent.a(poll.o)
 .debug_aranges
                0x00000000000009c8       0x20 /home/ql_xu/develop/trunk/uClinux-dist/lib/libevent/.libs/libevent.a(epoll.o)
 .debug_aranges
                0x00000000000009e8       0x20 /home/ql_xu/develop/trunk/uClinux-dist/lib/libevent/.libs/libevent.a(signal.o)
 .debug_aranges
                0x0000000000000a08       0x20 /home/ql_xu/develop/trunk/uClinux-dist/lib/libevent/.libs/libevent.a(http.o)
 .debug_aranges
                0x0000000000000a28       0x20 /home/ql_xu/develop/trunk/uClinux-dist/lib/libevent/.libs/libevent.a(evdns.o)
 .debug_aranges
                0x0000000000000a48       0x20 /home/ql_xu/develop/trunk/uClinux-dist/lib/libevent/.libs/libevent.a(bufferevent_sock.o)
 .debug_aranges
                0x0000000000000a68       0x20 /home/ql_xu/develop/trunk/uClinux-dist/lib/libevent/.libs/libevent.a(listener.o)

.debug_pubnames
                0x0000000000000000     0x8ba6
 *(.debug_pubnames)
 .debug_pubnames
                0x0000000000000000       0x1b cli.o
 .debug_pubnames
                0x000000000000001b      0x461 ../libtransmission/libtransmission.a(bencode.o)
 .debug_pubnames
                0x000000000000047c       0xcb ../libtransmission/libtransmission.a(ConvertUTF.o)
 .debug_pubnames
                0x0000000000000547      0x179 ../libtransmission/libtransmission.a(fdlimit.o)
 .debug_pubnames
                0x00000000000006c0       0x23 ../libtransmission/libtransmission.a(json.o)
 .debug_pubnames
                0x00000000000006e3       0xa8 ../libtransmission/libtransmission.a(JSON_parser.o)
 .debug_pubnames
                0x000000000000078b       0xc7 ../libtransmission/libtransmission.a(list.o)
 .debug_pubnames
                0x0000000000000852      0x1e1 ../libtransmission/libtransmission.a(net.o)
 .debug_pubnames
                0x0000000000000a33      0x2f4 ../libtransmission/libtransmission.a(peer-io.o)
 .debug_pubnames
                0x0000000000000d27      0x141 ../libtransmission/libtransmission.a(platform.o)
 .debug_pubnames
                0x0000000000000e68      0x115 ../libtransmission/libtransmission.a(ptrarray.o)
 .debug_pubnames
                0x0000000000000f7d      0xf68 ../libtransmission/libtransmission.a(session.o)
 .debug_pubnames
                0x0000000000001ee5       0xe6 ../libtransmission/libtransmission.a(stats.o)
 .debug_pubnames
                0x0000000000001fcb      0xba1 ../libtransmission/libtransmission.a(torrent.o)
 .debug_pubnames
                0x0000000000002b6c      0x2c8 ../libtransmission/libtransmission.a(torrent-ctor.o)
 .debug_pubnames
                0x0000000000002e34       0xd8 ../libtransmission/libtransmission.a(torrent-magnet.o)
 .debug_pubnames
                0x0000000000002f0c       0xea ../libtransmission/libtransmission.a(tr-dht.o)
 .debug_pubnames
                0x0000000000002ff6       0x80 ../libtransmission/libtransmission.a(tr-lpd.o)
 .debug_pubnames
                0x0000000000003076       0x4d ../libtransmission/libtransmission.a(tr-udp.o)
 .debug_pubnames
                0x00000000000030c3       0x44 ../libtransmission/libtransmission.a(tr-utp.o)
 .debug_pubnames
                0x0000000000003107       0x42 ../libtransmission/libtransmission.a(tr-getopt.o)
 .debug_pubnames
                0x0000000000003149       0x64 ../libtransmission/libtransmission.a(trevent.o)
 .debug_pubnames
                0x00000000000031ad      0x56e ../libtransmission/libtransmission.a(utils.o)
 .debug_pubnames
                0x000000000000371b       0x4a ../libtransmission/libtransmission.a(verify.o)
 .debug_pubnames
                0x0000000000003765       0xc6 ../libtransmission/libtransmission.a(web.o)
 .debug_pubnames
                0x000000000000382b      0x1f8 ../libtransmission/libtransmission.a(announcer.o)
 .debug_pubnames
                0x0000000000003a23       0x4a ../libtransmission/libtransmission.a(announcer-http.o)
 .debug_pubnames
                0x0000000000003a6d       0xcf ../libtransmission/libtransmission.a(announcer-udp.o)
 .debug_pubnames
                0x0000000000003b3c       0xfd ../libtransmission/libtransmission.a(bandwidth.o)
 .debug_pubnames
                0x0000000000003c39      0x167 ../libtransmission/libtransmission.a(bitfield.o)
 .debug_pubnames
                0x0000000000003da0       0xff ../libtransmission/libtransmission.a(blocklist.o)
 .debug_pubnames
                0x0000000000003e9f       0xe9 ../libtransmission/libtransmission.a(cache.o)
 .debug_pubnames
                0x0000000000003f88      0x176 ../libtransmission/libtransmission.a(completion.o)
 .debug_pubnames
                0x00000000000040fe      0x197 ../libtransmission/libtransmission.a(crypto.o)
 .debug_pubnames
                0x0000000000004295       0x6e ../libtransmission/libtransmission.a(inout.o)
 .debug_pubnames
                0x0000000000004303       0x53 ../libtransmission/libtransmission.a(magnet.o)
 .debug_pubnames
                0x0000000000004356       0x88 ../libtransmission/libtransmission.a(metainfo.o)
 .debug_pubnames
                0x00000000000043de      0x38f ../libtransmission/libtransmission.a(peer-mgr.o)
 .debug_pubnames
                0x000000000000476d       0xcb ../libtransmission/libtransmission.a(peer-msgs.o)
 .debug_pubnames
                0x0000000000004838       0xaa ../libtransmission/libtransmission.a(port-forwarding.o)
 .debug_pubnames
                0x00000000000048e2       0x5f ../libtransmission/libtransmission.a(resume.o)
 .debug_pubnames
                0x0000000000004941      0x1b4 ../libtransmission/libtransmission.a(rpc-server.o)
 .debug_pubnames
                0x0000000000004af5       0x44 ../libtransmission/libtransmission.a(upnp.o)
 .debug_pubnames
                0x0000000000004b39       0x69 ../libtransmission/libtransmission.a(webseed.o)
 .debug_pubnames
                0x0000000000004ba2       0x21 ../libtransmission/libtransmission.a(wildmat.o)
 .debug_pubnames
                0x0000000000004bc3       0x25 ../libtransmission/libtransmission.a(clients.o)
 .debug_pubnames
                0x0000000000004be8       0x82 ../libtransmission/libtransmission.a(handshake.o)
 .debug_pubnames
                0x0000000000004c6a       0x36 ../libtransmission/libtransmission.a(history.o)
 .debug_pubnames
                0x0000000000004ca0       0x4a ../libtransmission/libtransmission.a(natpmp.o)
 .debug_pubnames
                0x0000000000004cea       0x65 ../libtransmission/libtransmission.a(rpcimpl.o)
 .debug_pubnames
                0x0000000000004d4f       0xfb ../third-party/libnatpmp/libnatpmp.a(natpmp.o)
 .debug_pubnames
                0x0000000000004e4a       0x28 ../third-party/libnatpmp/libnatpmp.a(getgateway.o)
 .debug_pubnames
                0x0000000000004e72       0xdb ../third-party/miniupnp/libminiupnp.a(miniupnpc.o)
 .debug_pubnames
                0x0000000000004f4d       0x55 ../third-party/miniupnp/libminiupnp.a(miniwget.o)
 .debug_pubnames
                0x0000000000004fa2       0x1f ../third-party/miniupnp/libminiupnp.a(minixml.o)
 .debug_pubnames
                0x0000000000004fc1       0x22 ../third-party/miniupnp/libminiupnp.a(receivedata.o)
 .debug_pubnames
                0x0000000000004fe3      0x279 ../third-party/miniupnp/libminiupnp.a(upnpcommands.o)
 .debug_pubnames
                0x000000000000525c       0x5a ../third-party/miniupnp/libminiupnp.a(upnpreplyparse.o)
 .debug_pubnames
                0x00000000000052b6       0x26 ../third-party/miniupnp/libminiupnp.a(connecthostport.o)
 .debug_pubnames
                0x00000000000052dc       0x49 ../third-party/miniupnp/libminiupnp.a(igd_desc_parse.o)
 .debug_pubnames
                0x0000000000005325       0x25 ../third-party/miniupnp/libminiupnp.a(minisoap.o)
 .debug_pubnames
                0x000000000000534a       0x2e ../third-party/miniupnp/libminiupnp.a(minissdpc.o)
 .debug_pubnames
                0x0000000000005378       0x3b ../third-party/miniupnp/libminiupnp.a(portlistingparse.o)
 .debug_pubnames
                0x00000000000053b3       0xcb ../third-party/dht/libdht.a(dht.o)
 .debug_pubnames
                0x000000000000547e      0x49a ../third-party/libutp/libutp.a(utp.o)
 .debug_pubnames
                0x0000000000005918       0xa4 ../third-party/libutp/libutp.a(utp_utils.o)
 .debug_pubnames
                0x00000000000059bc      0x771 /home/ql_xu/develop/trunk/uClinux-dist/lib/libevent/.libs/libevent.a(event.o)
 .debug_pubnames
                0x000000000000612d      0x160 /home/ql_xu/develop/trunk/uClinux-dist/lib/libevent/.libs/libevent.a(evthread.o)
 .debug_pubnames
                0x000000000000628d      0x573 /home/ql_xu/develop/trunk/uClinux-dist/lib/libevent/.libs/libevent.a(buffer.o)
 .debug_pubnames
                0x0000000000006800      0x44a /home/ql_xu/develop/trunk/uClinux-dist/lib/libevent/.libs/libevent.a(bufferevent.o)
 .debug_pubnames
                0x0000000000006c4a      0x45e /home/ql_xu/develop/trunk/uClinux-dist/lib/libevent/.libs/libevent.a(bufferevent_ratelim.o)
 .debug_pubnames
                0x00000000000070a8      0x19d /home/ql_xu/develop/trunk/uClinux-dist/lib/libevent/.libs/libevent.a(evmap.o)
 .debug_pubnames
                0x0000000000007245       0xce /home/ql_xu/develop/trunk/uClinux-dist/lib/libevent/.libs/libevent.a(log.o)
 .debug_pubnames
                0x0000000000007313      0x468 /home/ql_xu/develop/trunk/uClinux-dist/lib/libevent/.libs/libevent.a(evutil.o)
 .debug_pubnames
                0x000000000000777b       0x97 /home/ql_xu/develop/trunk/uClinux-dist/lib/libevent/.libs/libevent.a(evutil_rand.o)
 .debug_pubnames
                0x0000000000007812       0x20 /home/ql_xu/develop/trunk/uClinux-dist/lib/libevent/.libs/libevent.a(select.o)
 .debug_pubnames
                0x0000000000007832       0x1e /home/ql_xu/develop/trunk/uClinux-dist/lib/libevent/.libs/libevent.a(poll.o)
 .debug_pubnames
                0x0000000000007850       0x1f /home/ql_xu/develop/trunk/uClinux-dist/lib/libevent/.libs/libevent.a(epoll.o)
 .debug_pubnames
                0x000000000000786f       0x96 /home/ql_xu/develop/trunk/uClinux-dist/lib/libevent/.libs/libevent.a(signal.o)
 .debug_pubnames
                0x0000000000007905      0xa73 /home/ql_xu/develop/trunk/uClinux-dist/lib/libevent/.libs/libevent.a(http.o)
 .debug_pubnames
                0x0000000000008378      0x62e /home/ql_xu/develop/trunk/uClinux-dist/lib/libevent/.libs/libevent.a(evdns.o)
 .debug_pubnames
                0x00000000000089a6       0xfe /home/ql_xu/develop/trunk/uClinux-dist/lib/libevent/.libs/libevent.a(bufferevent_sock.o)
 .debug_pubnames
                0x0000000000008aa4      0x102 /home/ql_xu/develop/trunk/uClinux-dist/lib/libevent/.libs/libevent.a(listener.o)

.debug_info     0x0000000000000000    0xa409e
 *(.debug_info .gnu.linkonce.wi.*)
 .debug_info    0x0000000000000000     0x11a6 cli.o
 .debug_info    0x00000000000011a6     0x3d67 ../libtransmission/libtransmission.a(bencode.o)
 .debug_info    0x0000000000004f0d      0x791 ../libtransmission/libtransmission.a(ConvertUTF.o)
 .debug_info    0x000000000000569e     0x2c00 ../libtransmission/libtransmission.a(fdlimit.o)
 .debug_info    0x000000000000829e      0x829 ../libtransmission/libtransmission.a(json.o)
 .debug_info    0x0000000000008ac7      0xa49 ../libtransmission/libtransmission.a(JSON_parser.o)
 .debug_info    0x0000000000009510      0x598 ../libtransmission/libtransmission.a(list.o)
 .debug_info    0x0000000000009aa8     0x260e ../libtransmission/libtransmission.a(net.o)
 .debug_info    0x000000000000c0b6     0x33de ../libtransmission/libtransmission.a(peer-io.o)
 .debug_info    0x000000000000f494     0x1a50 ../libtransmission/libtransmission.a(platform.o)
 .debug_info    0x0000000000010ee4      0x5ac ../libtransmission/libtransmission.a(ptrarray.o)
 .debug_info    0x0000000000011490     0x6445 ../libtransmission/libtransmission.a(session.o)
 .debug_info    0x00000000000178d5     0x12ce ../libtransmission/libtransmission.a(stats.o)
 .debug_info    0x0000000000018ba3     0x7287 ../libtransmission/libtransmission.a(torrent.o)
 .debug_info    0x000000000001fe2a     0x25b9 ../libtransmission/libtransmission.a(torrent-ctor.o)
 .debug_info    0x00000000000223e3     0x22b5 ../libtransmission/libtransmission.a(torrent-magnet.o)
 .debug_info    0x0000000000024698     0x2d3c ../libtransmission/libtransmission.a(tr-dht.o)
 .debug_info    0x00000000000273d4     0x260e ../libtransmission/libtransmission.a(tr-lpd.o)
 .debug_info    0x00000000000299e2     0x1326 ../libtransmission/libtransmission.a(tr-udp.o)
 .debug_info    0x000000000002ad08     0x117d ../libtransmission/libtransmission.a(tr-utp.o)
 .debug_info    0x000000000002be85      0x5b1 ../libtransmission/libtransmission.a(tr-getopt.o)
 .debug_info    0x000000000002c436     0x101b ../libtransmission/libtransmission.a(trevent.o)
 .debug_info    0x000000000002d451     0x3403 ../libtransmission/libtransmission.a(utils.o)
 .debug_info    0x0000000000030854     0x20eb ../libtransmission/libtransmission.a(verify.o)
 .debug_info    0x000000000003293f     0x2706 ../libtransmission/libtransmission.a(web.o)
 .debug_info    0x0000000000035045     0x488f ../libtransmission/libtransmission.a(announcer.o)
 .debug_info    0x00000000000398d4     0x2a4c ../libtransmission/libtransmission.a(announcer-http.o)
 .debug_info    0x000000000003c320     0x355b ../libtransmission/libtransmission.a(announcer-udp.o)
 .debug_info    0x000000000003f87b     0x1691 ../libtransmission/libtransmission.a(bandwidth.o)
 .debug_info    0x0000000000040f0c      0xc7c ../libtransmission/libtransmission.a(bitfield.o)
 .debug_info    0x0000000000041b88      0xe62 ../libtransmission/libtransmission.a(blocklist.o)
 .debug_info    0x00000000000429ea     0x2538 ../libtransmission/libtransmission.a(cache.o)
 .debug_info    0x0000000000044f22     0x24e0 ../libtransmission/libtransmission.a(completion.o)
 .debug_info    0x0000000000047402      0xf93 ../libtransmission/libtransmission.a(crypto.o)
 .debug_info    0x0000000000048395     0x2008 ../libtransmission/libtransmission.a(inout.o)
 .debug_info    0x000000000004a39d      0x7b0 ../libtransmission/libtransmission.a(magnet.o)
 .debug_info    0x000000000004ab4d     0x1fd3 ../libtransmission/libtransmission.a(metainfo.o)
 .debug_info    0x000000000004cb20     0x8a30 ../libtransmission/libtransmission.a(peer-mgr.o)
 .debug_info    0x0000000000055550     0x5af6 ../libtransmission/libtransmission.a(peer-msgs.o)
 .debug_info    0x000000000005b046     0x1d75 ../libtransmission/libtransmission.a(port-forwarding.o)
 .debug_info    0x000000000005cdbb     0x307c ../libtransmission/libtransmission.a(resume.o)
 .debug_info    0x000000000005fe37     0x27a0 ../libtransmission/libtransmission.a(rpc-server.o)
 .debug_info    0x00000000000625d7      0x70e ../libtransmission/libtransmission.a(upnp.o)
 .debug_info    0x0000000000062ce5     0x29c8 ../libtransmission/libtransmission.a(webseed.o)
 .debug_info    0x00000000000656ad      0x1a1 ../libtransmission/libtransmission.a(wildmat.o)
 .debug_info    0x000000000006584e      0x9f4 ../libtransmission/libtransmission.a(clients.o)
 .debug_info    0x0000000000066242     0x38d0 ../libtransmission/libtransmission.a(handshake.o)
 .debug_info    0x0000000000069b12      0x23a ../libtransmission/libtransmission.a(history.o)
 .debug_info    0x0000000000069d4c      0x688 ../libtransmission/libtransmission.a(natpmp.o)
 .debug_info    0x000000000006a3d4     0x49a8 ../libtransmission/libtransmission.a(rpcimpl.o)
 .debug_info    0x000000000006ed7c      0x663 ../third-party/libnatpmp/libnatpmp.a(natpmp.o)
 .debug_info    0x000000000006f3df      0x4e8 ../third-party/libnatpmp/libnatpmp.a(getgateway.o)
 .debug_info    0x000000000006f8c7     0x12fc ../third-party/miniupnp/libminiupnp.a(miniupnpc.o)
 .debug_info    0x0000000000070bc3      0xa95 ../third-party/miniupnp/libminiupnp.a(miniwget.o)
 .debug_info    0x0000000000071658      0x252 ../third-party/miniupnp/libminiupnp.a(minixml.o)
 .debug_info    0x00000000000718aa      0x137 ../third-party/miniupnp/libminiupnp.a(receivedata.o)
 .debug_info    0x00000000000719e1     0x1328 ../third-party/miniupnp/libminiupnp.a(upnpcommands.o)
 .debug_info    0x0000000000072d09      0x3bb ../third-party/miniupnp/libminiupnp.a(upnpreplyparse.o)
 .debug_info    0x00000000000730c4      0x663 ../third-party/miniupnp/libminiupnp.a(connecthostport.o)
 .debug_info    0x0000000000073727      0x29c ../third-party/miniupnp/libminiupnp.a(igd_desc_parse.o)
 .debug_info    0x00000000000739c3      0x1fb ../third-party/miniupnp/libminiupnp.a(minisoap.o)
 .debug_info    0x0000000000073bbe      0x2b6 ../third-party/miniupnp/libminiupnp.a(minissdpc.o)
 .debug_info    0x0000000000073e74      0x599 ../third-party/miniupnp/libminiupnp.a(portlistingparse.o)
 .debug_info    0x000000000007440d     0x3c18 ../third-party/dht/libdht.a(dht.o)
 .debug_info    0x0000000000078025     0x50c6 ../third-party/libutp/libutp.a(utp.o)
 .debug_info    0x000000000007d0eb      0x390 ../third-party/libutp/libutp.a(utp_utils.o)
 .debug_info    0x000000000007d47b     0x5088 /home/ql_xu/develop/trunk/uClinux-dist/lib/libevent/.libs/libevent.a(event.o)
 .debug_info    0x0000000000082503      0xac9 /home/ql_xu/develop/trunk/uClinux-dist/lib/libevent/.libs/libevent.a(evthread.o)
 .debug_info    0x0000000000082fcc     0x3c8e /home/ql_xu/develop/trunk/uClinux-dist/lib/libevent/.libs/libevent.a(buffer.o)
 .debug_info    0x0000000000086c5a     0x23f1 /home/ql_xu/develop/trunk/uClinux-dist/lib/libevent/.libs/libevent.a(bufferevent.o)
 .debug_info    0x000000000008904b     0x2954 /home/ql_xu/develop/trunk/uClinux-dist/lib/libevent/.libs/libevent.a(bufferevent_ratelim.o)
 .debug_info    0x000000000008b99f     0x1bdb /home/ql_xu/develop/trunk/uClinux-dist/lib/libevent/.libs/libevent.a(evmap.o)
 .debug_info    0x000000000008d57a      0x7ae /home/ql_xu/develop/trunk/uClinux-dist/lib/libevent/.libs/libevent.a(log.o)
 .debug_info    0x000000000008dd28     0x25b9 /home/ql_xu/develop/trunk/uClinux-dist/lib/libevent/.libs/libevent.a(evutil.o)
 .debug_info    0x00000000000902e1      0xb41 /home/ql_xu/develop/trunk/uClinux-dist/lib/libevent/.libs/libevent.a(evutil_rand.o)
 .debug_info    0x0000000000090e22     0x1444 /home/ql_xu/develop/trunk/uClinux-dist/lib/libevent/.libs/libevent.a(select.o)
 .debug_info    0x0000000000092266     0x144c /home/ql_xu/develop/trunk/uClinux-dist/lib/libevent/.libs/libevent.a(poll.o)
 .debug_info    0x00000000000936b2     0x1640 /home/ql_xu/develop/trunk/uClinux-dist/lib/libevent/.libs/libevent.a(epoll.o)
 .debug_info    0x0000000000094cf2     0x15cd /home/ql_xu/develop/trunk/uClinux-dist/lib/libevent/.libs/libevent.a(signal.o)
 .debug_info    0x00000000000962bf     0x55f2 /home/ql_xu/develop/trunk/uClinux-dist/lib/libevent/.libs/libevent.a(http.o)
 .debug_info    0x000000000009b8b1     0x5ec8 /home/ql_xu/develop/trunk/uClinux-dist/lib/libevent/.libs/libevent.a(evdns.o)
 .debug_info    0x00000000000a1779     0x19e7 /home/ql_xu/develop/trunk/uClinux-dist/lib/libevent/.libs/libevent.a(bufferevent_sock.o)
 .debug_info    0x00000000000a3160      0xf3e /home/ql_xu/develop/trunk/uClinux-dist/lib/libevent/.libs/libevent.a(listener.o)

.debug_abbrev   0x0000000000000000    0x11618
 *(.debug_abbrev)
 .debug_abbrev  0x0000000000000000      0x380 cli.o
 .debug_abbrev  0x0000000000000380      0x50d ../libtransmission/libtransmission.a(bencode.o)
 .debug_abbrev  0x000000000000088d      0x1de ../libtransmission/libtransmission.a(ConvertUTF.o)
 .debug_abbrev  0x0000000000000a6b      0x472 ../libtransmission/libtransmission.a(fdlimit.o)
 .debug_abbrev  0x0000000000000edd      0x243 ../libtransmission/libtransmission.a(json.o)
 .debug_abbrev  0x0000000000001120      0x2f0 ../libtransmission/libtransmission.a(JSON_parser.o)
 .debug_abbrev  0x0000000000001410      0x258 ../libtransmission/libtransmission.a(list.o)
 .debug_abbrev  0x0000000000001668      0x4bc ../libtransmission/libtransmission.a(net.o)
 .debug_abbrev  0x0000000000001b24      0x54c ../libtransmission/libtransmission.a(peer-io.o)
 .debug_abbrev  0x0000000000002070      0x419 ../libtransmission/libtransmission.a(platform.o)
 .debug_abbrev  0x0000000000002489      0x1f6 ../libtransmission/libtransmission.a(ptrarray.o)
 .debug_abbrev  0x000000000000267f      0x5ce ../libtransmission/libtransmission.a(session.o)
 .debug_abbrev  0x0000000000002c4d      0x2e9 ../libtransmission/libtransmission.a(stats.o)
 .debug_abbrev  0x0000000000002f36      0x60f ../libtransmission/libtransmission.a(torrent.o)
 .debug_abbrev  0x0000000000003545      0x40c ../libtransmission/libtransmission.a(torrent-ctor.o)
 .debug_abbrev  0x0000000000003951      0x38e ../libtransmission/libtransmission.a(torrent-magnet.o)
 .debug_abbrev  0x0000000000003cdf      0x498 ../libtransmission/libtransmission.a(tr-dht.o)
 .debug_abbrev  0x0000000000004177      0x401 ../libtransmission/libtransmission.a(tr-lpd.o)
 .debug_abbrev  0x0000000000004578      0x2dc ../libtransmission/libtransmission.a(tr-udp.o)
 .debug_abbrev  0x0000000000004854      0x244 ../libtransmission/libtransmission.a(tr-utp.o)
 .debug_abbrev  0x0000000000004a98      0x1ee ../libtransmission/libtransmission.a(tr-getopt.o)
 .debug_abbrev  0x0000000000004c86      0x271 ../libtransmission/libtransmission.a(trevent.o)
 .debug_abbrev  0x0000000000004ef7      0x556 ../libtransmission/libtransmission.a(utils.o)
 .debug_abbrev  0x000000000000544d      0x3f1 ../libtransmission/libtransmission.a(verify.o)
 .debug_abbrev  0x000000000000583e      0x40f ../libtransmission/libtransmission.a(web.o)
 .debug_abbrev  0x0000000000005c4d      0x569 ../libtransmission/libtransmission.a(announcer.o)
 .debug_abbrev  0x00000000000061b6      0x3cd ../libtransmission/libtransmission.a(announcer-http.o)
 .debug_abbrev  0x0000000000006583      0x4d9 ../libtransmission/libtransmission.a(announcer-udp.o)
 .debug_abbrev  0x0000000000006a5c      0x470 ../libtransmission/libtransmission.a(bandwidth.o)
 .debug_abbrev  0x0000000000006ecc      0x303 ../libtransmission/libtransmission.a(bitfield.o)
 .debug_abbrev  0x00000000000071cf      0x3e0 ../libtransmission/libtransmission.a(blocklist.o)
 .debug_abbrev  0x00000000000075af      0x457 ../libtransmission/libtransmission.a(cache.o)
 .debug_abbrev  0x0000000000007a06      0x37c ../libtransmission/libtransmission.a(completion.o)
 .debug_abbrev  0x0000000000007d82      0x393 ../libtransmission/libtransmission.a(crypto.o)
 .debug_abbrev  0x0000000000008115      0x39f ../libtransmission/libtransmission.a(inout.o)
 .debug_abbrev  0x00000000000084b4      0x22a ../libtransmission/libtransmission.a(magnet.o)
 .debug_abbrev  0x00000000000086de      0x404 ../libtransmission/libtransmission.a(metainfo.o)
 .debug_abbrev  0x0000000000008ae2      0x50f ../libtransmission/libtransmission.a(peer-mgr.o)
 .debug_abbrev  0x0000000000008ff1      0x523 ../libtransmission/libtransmission.a(peer-msgs.o)
 .debug_abbrev  0x0000000000009514      0x325 ../libtransmission/libtransmission.a(port-forwarding.o)
 .debug_abbrev  0x0000000000009839      0x44c ../libtransmission/libtransmission.a(resume.o)
 .debug_abbrev  0x0000000000009c85      0x512 ../libtransmission/libtransmission.a(rpc-server.o)
 .debug_abbrev  0x000000000000a197      0x252 ../libtransmission/libtransmission.a(upnp.o)
 .debug_abbrev  0x000000000000a3e9      0x3db ../libtransmission/libtransmission.a(webseed.o)
 .debug_abbrev  0x000000000000a7c4       0xf4 ../libtransmission/libtransmission.a(wildmat.o)
 .debug_abbrev  0x000000000000a8b8      0x256 ../libtransmission/libtransmission.a(clients.o)
 .debug_abbrev  0x000000000000ab0e      0x454 ../libtransmission/libtransmission.a(handshake.o)
 .debug_abbrev  0x000000000000af62      0x16d ../libtransmission/libtransmission.a(history.o)
 .debug_abbrev  0x000000000000b0cf      0x252 ../libtransmission/libtransmission.a(natpmp.o)
 .debug_abbrev  0x000000000000b321      0x46c ../libtransmission/libtransmission.a(rpcimpl.o)
 .debug_abbrev  0x000000000000b78d      0x1de ../third-party/libnatpmp/libnatpmp.a(natpmp.o)
 .debug_abbrev  0x000000000000b96b      0x13a ../third-party/libnatpmp/libnatpmp.a(getgateway.o)
 .debug_abbrev  0x000000000000baa5      0x362 ../third-party/miniupnp/libminiupnp.a(miniupnpc.o)
 .debug_abbrev  0x000000000000be07      0x287 ../third-party/miniupnp/libminiupnp.a(miniwget.o)
 .debug_abbrev  0x000000000000c08e      0x132 ../third-party/miniupnp/libminiupnp.a(minixml.o)
 .debug_abbrev  0x000000000000c1c0       0xc1 ../third-party/miniupnp/libminiupnp.a(receivedata.o)
 .debug_abbrev  0x000000000000c281      0x1ad ../third-party/miniupnp/libminiupnp.a(upnpcommands.o)
 .debug_abbrev  0x000000000000c42e      0x156 ../third-party/miniupnp/libminiupnp.a(upnpreplyparse.o)
 .debug_abbrev  0x000000000000c584      0x18d ../third-party/miniupnp/libminiupnp.a(connecthostport.o)
 .debug_abbrev  0x000000000000c711       0xf1 ../third-party/miniupnp/libminiupnp.a(igd_desc_parse.o)
 .debug_abbrev  0x000000000000c802      0x13f ../third-party/miniupnp/libminiupnp.a(minisoap.o)
 .debug_abbrev  0x000000000000c941      0x12a ../third-party/miniupnp/libminiupnp.a(minissdpc.o)
 .debug_abbrev  0x000000000000ca6b      0x1e0 ../third-party/miniupnp/libminiupnp.a(portlistingparse.o)
 .debug_abbrev  0x000000000000cc4b      0x3f7 ../third-party/dht/libdht.a(dht.o)
 .debug_abbrev  0x000000000000d042      0x6b4 ../third-party/libutp/libutp.a(utp.o)
 .debug_abbrev  0x000000000000d6f6      0x1b4 ../third-party/libutp/libutp.a(utp_utils.o)
 .debug_abbrev  0x000000000000d8aa      0x567 /home/ql_xu/develop/trunk/uClinux-dist/lib/libevent/.libs/libevent.a(event.o)
 .debug_abbrev  0x000000000000de11      0x27f /home/ql_xu/develop/trunk/uClinux-dist/lib/libevent/.libs/libevent.a(evthread.o)
 .debug_abbrev  0x000000000000e090      0x485 /home/ql_xu/develop/trunk/uClinux-dist/lib/libevent/.libs/libevent.a(buffer.o)
 .debug_abbrev  0x000000000000e515      0x38d /home/ql_xu/develop/trunk/uClinux-dist/lib/libevent/.libs/libevent.a(bufferevent.o)
 .debug_abbrev  0x000000000000e8a2      0x4ad /home/ql_xu/develop/trunk/uClinux-dist/lib/libevent/.libs/libevent.a(bufferevent_ratelim.o)
 .debug_abbrev  0x000000000000ed4f      0x40c /home/ql_xu/develop/trunk/uClinux-dist/lib/libevent/.libs/libevent.a(evmap.o)
 .debug_abbrev  0x000000000000f15b      0x1fc /home/ql_xu/develop/trunk/uClinux-dist/lib/libevent/.libs/libevent.a(log.o)
 .debug_abbrev  0x000000000000f357      0x49c /home/ql_xu/develop/trunk/uClinux-dist/lib/libevent/.libs/libevent.a(evutil.o)
 .debug_abbrev  0x000000000000f7f3      0x2c3 /home/ql_xu/develop/trunk/uClinux-dist/lib/libevent/.libs/libevent.a(evutil_rand.o)
 .debug_abbrev  0x000000000000fab6      0x29a /home/ql_xu/develop/trunk/uClinux-dist/lib/libevent/.libs/libevent.a(select.o)
 .debug_abbrev  0x000000000000fd50      0x27e /home/ql_xu/develop/trunk/uClinux-dist/lib/libevent/.libs/libevent.a(poll.o)
 .debug_abbrev  0x000000000000ffce      0x363 /home/ql_xu/develop/trunk/uClinux-dist/lib/libevent/.libs/libevent.a(epoll.o)
 .debug_abbrev  0x0000000000010331      0x346 /home/ql_xu/develop/trunk/uClinux-dist/lib/libevent/.libs/libevent.a(signal.o)
 .debug_abbrev  0x0000000000010677      0x483 /home/ql_xu/develop/trunk/uClinux-dist/lib/libevent/.libs/libevent.a(http.o)
 .debug_abbrev  0x0000000000010afa      0x4ae /home/ql_xu/develop/trunk/uClinux-dist/lib/libevent/.libs/libevent.a(evdns.o)
 .debug_abbrev  0x0000000000010fa8      0x3a8 /home/ql_xu/develop/trunk/uClinux-dist/lib/libevent/.libs/libevent.a(bufferevent_sock.o)
 .debug_abbrev  0x0000000000011350      0x2c8 /home/ql_xu/develop/trunk/uClinux-dist/lib/libevent/.libs/libevent.a(listener.o)

.debug_line     0x0000000000000000    0x3b1c9
 *(.debug_line)
 .debug_line    0x0000000000000000      0xad1 cli.o
 .debug_line    0x0000000000000ad1     0x14b2 ../libtransmission/libtransmission.a(bencode.o)
 .debug_line    0x0000000000001f83      0x52f ../libtransmission/libtransmission.a(ConvertUTF.o)
 .debug_line    0x00000000000024b2      0xb64 ../libtransmission/libtransmission.a(fdlimit.o)
 .debug_line    0x0000000000003016      0x73c ../libtransmission/libtransmission.a(json.o)
 .debug_line    0x0000000000003752      0xb25 ../libtransmission/libtransmission.a(JSON_parser.o)
 .debug_line    0x0000000000004277      0x50e ../libtransmission/libtransmission.a(list.o)
 .debug_line    0x0000000000004785      0xd49 ../libtransmission/libtransmission.a(net.o)
 .debug_line    0x00000000000054ce     0x111e ../libtransmission/libtransmission.a(peer-io.o)
 .debug_line    0x00000000000065ec      0x9d1 ../libtransmission/libtransmission.a(platform.o)
 .debug_line    0x0000000000006fbd      0x5df ../libtransmission/libtransmission.a(ptrarray.o)
 .debug_line    0x000000000000759c     0x1bc7 ../libtransmission/libtransmission.a(session.o)
 .debug_line    0x0000000000009163      0x5e7 ../libtransmission/libtransmission.a(stats.o)
 .debug_line    0x000000000000974a     0x2253 ../libtransmission/libtransmission.a(torrent.o)
 .debug_line    0x000000000000b99d      0x793 ../libtransmission/libtransmission.a(torrent-ctor.o)
 .debug_line    0x000000000000c130      0xc69 ../libtransmission/libtransmission.a(torrent-magnet.o)
 .debug_line    0x000000000000cd99      0xf05 ../libtransmission/libtransmission.a(tr-dht.o)
 .debug_line    0x000000000000dc9e      0xc40 ../libtransmission/libtransmission.a(tr-lpd.o)
 .debug_line    0x000000000000e8de      0xb6e ../libtransmission/libtransmission.a(tr-udp.o)
 .debug_line    0x000000000000f44c      0xb37 ../libtransmission/libtransmission.a(tr-utp.o)
 .debug_line    0x000000000000ff83      0x51a ../libtransmission/libtransmission.a(tr-getopt.o)
 .debug_line    0x000000000001049d      0xa8a ../libtransmission/libtransmission.a(trevent.o)
 .debug_line    0x0000000000010f27     0x13aa ../libtransmission/libtransmission.a(utils.o)
 .debug_line    0x00000000000122d1      0xa4d ../libtransmission/libtransmission.a(verify.o)
 .debug_line    0x0000000000012d1e      0xcb8 ../libtransmission/libtransmission.a(web.o)
 .debug_line    0x00000000000139d6     0x14a8 ../libtransmission/libtransmission.a(announcer.o)
 .debug_line    0x0000000000014e7e      0xc8c ../libtransmission/libtransmission.a(announcer-http.o)
 .debug_line    0x0000000000015b0a     0x105d ../libtransmission/libtransmission.a(announcer-udp.o)
 .debug_line    0x0000000000016b67      0xb54 ../libtransmission/libtransmission.a(bandwidth.o)
 .debug_line    0x00000000000176bb      0x87b ../libtransmission/libtransmission.a(bitfield.o)
 .debug_line    0x0000000000017f36      0x9d3 ../libtransmission/libtransmission.a(blocklist.o)
 .debug_line    0x0000000000018909      0xb2a ../libtransmission/libtransmission.a(cache.o)
 .debug_line    0x0000000000019433      0x885 ../libtransmission/libtransmission.a(completion.o)
 .debug_line    0x0000000000019cb8      0x92b ../libtransmission/libtransmission.a(crypto.o)
 .debug_line    0x000000000001a5e3      0xa1a ../libtransmission/libtransmission.a(inout.o)
 .debug_line    0x000000000001affd      0x89a ../libtransmission/libtransmission.a(magnet.o)
 .debug_line    0x000000000001b897      0xd91 ../libtransmission/libtransmission.a(metainfo.o)
 .debug_line    0x000000000001c628     0x23a9 ../libtransmission/libtransmission.a(peer-mgr.o)
 .debug_line    0x000000000001e9d1     0x1883 ../libtransmission/libtransmission.a(peer-msgs.o)
 .debug_line    0x0000000000020254      0xa6c ../libtransmission/libtransmission.a(port-forwarding.o)
 .debug_line    0x0000000000020cc0      0xd56 ../libtransmission/libtransmission.a(resume.o)
 .debug_line    0x0000000000021a16     0x1081 ../libtransmission/libtransmission.a(rpc-server.o)
 .debug_line    0x0000000000022a97      0x7cf ../libtransmission/libtransmission.a(upnp.o)
 .debug_line    0x0000000000023266      0xd30 ../libtransmission/libtransmission.a(webseed.o)
 .debug_line    0x0000000000023f96      0x4a5 ../libtransmission/libtransmission.a(wildmat.o)
 .debug_line    0x000000000002443b      0xa0d ../libtransmission/libtransmission.a(clients.o)
 .debug_line    0x0000000000024e48     0x10a1 ../libtransmission/libtransmission.a(handshake.o)
 .debug_line    0x0000000000025ee9      0x496 ../libtransmission/libtransmission.a(history.o)
 .debug_line    0x000000000002637f      0x9b6 ../libtransmission/libtransmission.a(natpmp.o)
 .debug_line    0x0000000000026d35     0x181c ../libtransmission/libtransmission.a(rpcimpl.o)
 .debug_line    0x0000000000028551      0x8e4 ../third-party/libnatpmp/libnatpmp.a(natpmp.o)
 .debug_line    0x0000000000028e35      0x7a7 ../third-party/libnatpmp/libnatpmp.a(getgateway.o)
 .debug_line    0x00000000000295dc      0xe13 ../third-party/miniupnp/libminiupnp.a(miniupnpc.o)
 .debug_line    0x000000000002a3ef      0xb87 ../third-party/miniupnp/libminiupnp.a(miniwget.o)
 .debug_line    0x000000000002af76      0x384 ../third-party/miniupnp/libminiupnp.a(minixml.o)
 .debug_line    0x000000000002b2fa      0x760 ../third-party/miniupnp/libminiupnp.a(receivedata.o)
 .debug_line    0x000000000002ba5a      0x8ec ../third-party/miniupnp/libminiupnp.a(upnpcommands.o)
 .debug_line    0x000000000002c346      0x44f ../third-party/miniupnp/libminiupnp.a(upnpreplyparse.o)
 .debug_line    0x000000000002c795      0x953 ../third-party/miniupnp/libminiupnp.a(connecthostport.o)
 .debug_line    0x000000000002d0e8      0x3af ../third-party/miniupnp/libminiupnp.a(igd_desc_parse.o)
 .debug_line    0x000000000002d497      0x773 ../third-party/miniupnp/libminiupnp.a(minisoap.o)
 .debug_line    0x000000000002dc0a      0x7e9 ../third-party/miniupnp/libminiupnp.a(minissdpc.o)
 .debug_line    0x000000000002e3f3      0x49e ../third-party/miniupnp/libminiupnp.a(portlistingparse.o)
 .debug_line    0x000000000002e891     0x18e0 ../third-party/dht/libdht.a(dht.o)
 .debug_line    0x0000000000030171     0x13d8 ../third-party/libutp/libutp.a(utp.o)
 .debug_line    0x0000000000031549      0x288 ../third-party/libutp/libutp.a(utp_utils.o)
 .debug_line    0x00000000000317d1     0x1337 /home/ql_xu/develop/trunk/uClinux-dist/lib/libevent/.libs/libevent.a(event.o)
 .debug_line    0x0000000000032b08      0x3c6 /home/ql_xu/develop/trunk/uClinux-dist/lib/libevent/.libs/libevent.a(evthread.o)
 .debug_line    0x0000000000032ece     0x1145 /home/ql_xu/develop/trunk/uClinux-dist/lib/libevent/.libs/libevent.a(buffer.o)
 .debug_line    0x0000000000034013      0x6b7 /home/ql_xu/develop/trunk/uClinux-dist/lib/libevent/.libs/libevent.a(bufferevent.o)
 .debug_line    0x00000000000346ca      0x8e0 /home/ql_xu/develop/trunk/uClinux-dist/lib/libevent/.libs/libevent.a(bufferevent_ratelim.o)
 .debug_line    0x0000000000034faa      0x5bc /home/ql_xu/develop/trunk/uClinux-dist/lib/libevent/.libs/libevent.a(evmap.o)
 .debug_line    0x0000000000035566      0x29b /home/ql_xu/develop/trunk/uClinux-dist/lib/libevent/.libs/libevent.a(log.o)
 .debug_line    0x0000000000035801      0xab0 /home/ql_xu/develop/trunk/uClinux-dist/lib/libevent/.libs/libevent.a(evutil.o)
 .debug_line    0x00000000000362b1      0x4a9 /home/ql_xu/develop/trunk/uClinux-dist/lib/libevent/.libs/libevent.a(evutil_rand.o)
 .debug_line    0x000000000003675a      0x453 /home/ql_xu/develop/trunk/uClinux-dist/lib/libevent/.libs/libevent.a(select.o)
 .debug_line    0x0000000000036bad      0x456 /home/ql_xu/develop/trunk/uClinux-dist/lib/libevent/.libs/libevent.a(poll.o)
 .debug_line    0x0000000000037003      0x4e1 /home/ql_xu/develop/trunk/uClinux-dist/lib/libevent/.libs/libevent.a(epoll.o)
 .debug_line    0x00000000000374e4      0x508 /home/ql_xu/develop/trunk/uClinux-dist/lib/libevent/.libs/libevent.a(signal.o)
 .debug_line    0x00000000000379ec     0x154d /home/ql_xu/develop/trunk/uClinux-dist/lib/libevent/.libs/libevent.a(http.o)
 .debug_line    0x0000000000038f39     0x1814 /home/ql_xu/develop/trunk/uClinux-dist/lib/libevent/.libs/libevent.a(evdns.o)
 .debug_line    0x000000000003a74d      0x69e /home/ql_xu/develop/trunk/uClinux-dist/lib/libevent/.libs/libevent.a(bufferevent_sock.o)
 .debug_line    0x000000000003adeb      0x3de /home/ql_xu/develop/trunk/uClinux-dist/lib/libevent/.libs/libevent.a(listener.o)

.debug_frame    0x0000000000000000     0xe60c
 *(.debug_frame)
 .debug_frame   0x0000000000000000       0x8c cli.o
 .debug_frame   0x000000000000008c      0x970 ../libtransmission/libtransmission.a(bencode.o)
 .debug_frame   0x00000000000009fc      0x140 ../libtransmission/libtransmission.a(ConvertUTF.o)
 .debug_frame   0x0000000000000b3c      0x24c ../libtransmission/libtransmission.a(fdlimit.o)
 .debug_frame   0x0000000000000d88       0x7c ../libtransmission/libtransmission.a(json.o)
 .debug_frame   0x0000000000000e04       0xf8 ../libtransmission/libtransmission.a(JSON_parser.o)
 .debug_frame   0x0000000000000efc      0x128 ../libtransmission/libtransmission.a(list.o)
 .debug_frame   0x0000000000001024      0x224 ../libtransmission/libtransmission.a(net.o)
 .debug_frame   0x0000000000001248      0x65c ../libtransmission/libtransmission.a(peer-io.o)
 .debug_frame   0x00000000000018a4      0x234 ../libtransmission/libtransmission.a(platform.o)
 .debug_frame   0x0000000000001ad8      0x134 ../libtransmission/libtransmission.a(ptrarray.o)
 .debug_frame   0x0000000000001c0c      0xd4c ../libtransmission/libtransmission.a(session.o)
 .debug_frame   0x0000000000002958       0xf0 ../libtransmission/libtransmission.a(stats.o)
 .debug_frame   0x0000000000002a48      0xda0 ../libtransmission/libtransmission.a(torrent.o)
 .debug_frame   0x00000000000037e8      0x294 ../libtransmission/libtransmission.a(torrent-ctor.o)
 .debug_frame   0x0000000000003a7c      0x100 ../libtransmission/libtransmission.a(torrent-magnet.o)
 .debug_frame   0x0000000000003b7c      0x288 ../libtransmission/libtransmission.a(tr-dht.o)
 .debug_frame   0x0000000000003e04      0x108 ../libtransmission/libtransmission.a(tr-lpd.o)
 .debug_frame   0x0000000000003f0c       0xb8 ../libtransmission/libtransmission.a(tr-udp.o)
 .debug_frame   0x0000000000003fc4       0xc4 ../libtransmission/libtransmission.a(tr-utp.o)
 .debug_frame   0x0000000000004088       0xf0 ../libtransmission/libtransmission.a(tr-getopt.o)
 .debug_frame   0x0000000000004178       0xe0 ../libtransmission/libtransmission.a(trevent.o)
 .debug_frame   0x0000000000004258      0x884 ../libtransmission/libtransmission.a(utils.o)
 .debug_frame   0x0000000000004adc       0xec ../libtransmission/libtransmission.a(verify.o)
 .debug_frame   0x0000000000004bc8      0x1c8 ../libtransmission/libtransmission.a(web.o)
 .debug_frame   0x0000000000004d90      0x4fc ../libtransmission/libtransmission.a(announcer.o)
 .debug_frame   0x000000000000528c      0x114 ../libtransmission/libtransmission.a(announcer-http.o)
 .debug_frame   0x00000000000053a0      0x2a4 ../libtransmission/libtransmission.a(announcer-udp.o)
 .debug_frame   0x0000000000005644      0x194 ../libtransmission/libtransmission.a(bandwidth.o)
 .debug_frame   0x00000000000057d8      0x1e0 ../libtransmission/libtransmission.a(bitfield.o)
 .debug_frame   0x00000000000059b8      0x160 ../libtransmission/libtransmission.a(blocklist.o)
 .debug_frame   0x0000000000005b18      0x26c ../libtransmission/libtransmission.a(cache.o)
 .debug_frame   0x0000000000005d84      0x244 ../libtransmission/libtransmission.a(completion.o)
 .debug_frame   0x0000000000005fc8      0x22c ../libtransmission/libtransmission.a(crypto.o)
 .debug_frame   0x00000000000061f4       0xec ../libtransmission/libtransmission.a(inout.o)
 .debug_frame   0x00000000000062e0       0x88 ../libtransmission/libtransmission.a(magnet.o)
 .debug_frame   0x0000000000006368      0x164 ../libtransmission/libtransmission.a(metainfo.o)
 .debug_frame   0x00000000000064cc      0x944 ../libtransmission/libtransmission.a(peer-mgr.o)
 .debug_frame   0x0000000000006e10      0x3c0 ../libtransmission/libtransmission.a(peer-msgs.o)
 .debug_frame   0x00000000000071d0      0x114 ../libtransmission/libtransmission.a(port-forwarding.o)
 .debug_frame   0x00000000000072e4      0x148 ../libtransmission/libtransmission.a(resume.o)
 .debug_frame   0x000000000000742c      0x360 ../libtransmission/libtransmission.a(rpc-server.o)
 .debug_frame   0x000000000000778c       0xe0 ../libtransmission/libtransmission.a(upnp.o)
 .debug_frame   0x000000000000786c      0x1f0 ../libtransmission/libtransmission.a(webseed.o)
 .debug_frame   0x0000000000007a5c       0x48 ../libtransmission/libtransmission.a(wildmat.o)
 .debug_frame   0x0000000000007aa4       0xcc ../libtransmission/libtransmission.a(clients.o)
 .debug_frame   0x0000000000007b70      0x208 ../libtransmission/libtransmission.a(handshake.o)
 .debug_frame   0x0000000000007d78       0x30 ../libtransmission/libtransmission.a(history.o)
 .debug_frame   0x0000000000007da8       0x94 ../libtransmission/libtransmission.a(natpmp.o)
 .debug_frame   0x0000000000007e3c      0x5ec ../libtransmission/libtransmission.a(rpcimpl.o)
 .debug_frame   0x0000000000008428      0x10c ../third-party/libnatpmp/libnatpmp.a(natpmp.o)
 .debug_frame   0x0000000000008534       0x44 ../third-party/libnatpmp/libnatpmp.a(getgateway.o)
 .debug_frame   0x0000000000008578      0x1a8 ../third-party/miniupnp/libminiupnp.a(miniupnpc.o)
 .debug_frame   0x0000000000008720       0xe4 ../third-party/miniupnp/libminiupnp.a(miniwget.o)
 .debug_frame   0x0000000000008804       0x44 ../third-party/miniupnp/libminiupnp.a(minixml.o)
 .debug_frame   0x0000000000008848       0x3c ../third-party/miniupnp/libminiupnp.a(receivedata.o)
 .debug_frame   0x0000000000008884      0x344 ../third-party/miniupnp/libminiupnp.a(upnpcommands.o)
 .debug_frame   0x0000000000008bc8       0xb0 ../third-party/miniupnp/libminiupnp.a(upnpreplyparse.o)
 .debug_frame   0x0000000000008c78       0x44 ../third-party/miniupnp/libminiupnp.a(connecthostport.o)
 .debug_frame   0x0000000000008cbc       0x9c ../third-party/miniupnp/libminiupnp.a(igd_desc_parse.o)
 .debug_frame   0x0000000000008d58       0x40 ../third-party/miniupnp/libminiupnp.a(minisoap.o)
 .debug_frame   0x0000000000008d98       0x44 ../third-party/miniupnp/libminiupnp.a(minissdpc.o)
 .debug_frame   0x0000000000008ddc       0xa0 ../third-party/miniupnp/libminiupnp.a(portlistingparse.o)
 .debug_frame   0x0000000000008e7c      0x674 ../third-party/dht/libdht.a(dht.o)
 .debug_frame   0x00000000000094f0      0x568 ../third-party/libutp/libutp.a(utp.o)
 .debug_frame   0x0000000000009a58       0x98 ../third-party/libutp/libutp.a(utp_utils.o)
 .debug_frame   0x0000000000009af0      0xa10 /home/ql_xu/develop/trunk/uClinux-dist/lib/libevent/.libs/libevent.a(event.o)
 .debug_frame   0x000000000000a500      0x194 /home/ql_xu/develop/trunk/uClinux-dist/lib/libevent/.libs/libevent.a(evthread.o)
 .debug_frame   0x000000000000a694      0x948 /home/ql_xu/develop/trunk/uClinux-dist/lib/libevent/.libs/libevent.a(buffer.o)
 .debug_frame   0x000000000000afdc      0x4c4 /home/ql_xu/develop/trunk/uClinux-dist/lib/libevent/.libs/libevent.a(bufferevent.o)
 .debug_frame   0x000000000000b4a0      0x42c /home/ql_xu/develop/trunk/uClinux-dist/lib/libevent/.libs/libevent.a(bufferevent_ratelim.o)
 .debug_frame   0x000000000000b8cc      0x220 /home/ql_xu/develop/trunk/uClinux-dist/lib/libevent/.libs/libevent.a(evmap.o)
 .debug_frame   0x000000000000baec      0x140 /home/ql_xu/develop/trunk/uClinux-dist/lib/libevent/.libs/libevent.a(log.o)
 .debug_frame   0x000000000000bc2c      0x4d0 /home/ql_xu/develop/trunk/uClinux-dist/lib/libevent/.libs/libevent.a(evutil.o)
 .debug_frame   0x000000000000c0fc       0xe4 /home/ql_xu/develop/trunk/uClinux-dist/lib/libevent/.libs/libevent.a(evutil_rand.o)
 .debug_frame   0x000000000000c1e0       0xec /home/ql_xu/develop/trunk/uClinux-dist/lib/libevent/.libs/libevent.a(select.o)
 .debug_frame   0x000000000000c2cc       0xc0 /home/ql_xu/develop/trunk/uClinux-dist/lib/libevent/.libs/libevent.a(poll.o)
 .debug_frame   0x000000000000c38c       0xd4 /home/ql_xu/develop/trunk/uClinux-dist/lib/libevent/.libs/libevent.a(epoll.o)
 .debug_frame   0x000000000000c460      0x168 /home/ql_xu/develop/trunk/uClinux-dist/lib/libevent/.libs/libevent.a(signal.o)
 .debug_frame   0x000000000000c5c8      0xebc /home/ql_xu/develop/trunk/uClinux-dist/lib/libevent/.libs/libevent.a(http.o)
 .debug_frame   0x000000000000d484      0xd6c /home/ql_xu/develop/trunk/uClinux-dist/lib/libevent/.libs/libevent.a(evdns.o)
 .debug_frame   0x000000000000e1f0      0x238 /home/ql_xu/develop/trunk/uClinux-dist/lib/libevent/.libs/libevent.a(bufferevent_sock.o)
 .debug_frame   0x000000000000e428      0x1e4 /home/ql_xu/develop/trunk/uClinux-dist/lib/libevent/.libs/libevent.a(listener.o)

.debug_str      0x0000000000000000    0x1aba7
 *(.debug_str)
 .debug_str     0x0000000000000000      0xcf2 cli.o
                                        0xe09 (size before relaxing)
 .debug_str     0x0000000000000cf2      0xb1e ../libtransmission/libtransmission.a(bencode.o)
                                        0xfdd (size before relaxing)
 .debug_str     0x0000000000001810      0x1a9 ../libtransmission/libtransmission.a(ConvertUTF.o)
                                        0x2cf (size before relaxing)
 .debug_str     0x00000000000019b9     0x1476 ../libtransmission/libtransmission.a(fdlimit.o)
                                       0x1c6d (size before relaxing)
 .debug_str     0x0000000000002e2f      0x19b ../libtransmission/libtransmission.a(json.o)
                                        0x4e7 (size before relaxing)
 .debug_str     0x0000000000002fca      0x35f ../libtransmission/libtransmission.a(JSON_parser.o)
                                        0x636 (size before relaxing)
 .debug_str     0x0000000000003329      0x11c ../libtransmission/libtransmission.a(list.o)
                                        0x2c5 (size before relaxing)
 .debug_str     0x0000000000003445      0x93c ../libtransmission/libtransmission.a(net.o)
                                       0x1747 (size before relaxing)
 .debug_str     0x0000000000003d81      0x758 ../libtransmission/libtransmission.a(peer-io.o)
                                       0x1994 (size before relaxing)
 .debug_str     0x00000000000044d9      0x408 ../libtransmission/libtransmission.a(platform.o)
                                       0x1195 (size before relaxing)
 .debug_str     0x00000000000048e1      0x11e ../libtransmission/libtransmission.a(ptrarray.o)
                                        0x373 (size before relaxing)
 .debug_str     0x00000000000049ff     0x143d ../libtransmission/libtransmission.a(session.o)
                                       0x314e (size before relaxing)
 .debug_str     0x0000000000005e3c      0x195 ../libtransmission/libtransmission.a(stats.o)
                                        0xd43 (size before relaxing)
 .debug_str     0x0000000000005fd1     0x1775 ../libtransmission/libtransmission.a(torrent.o)
                                       0x3355 (size before relaxing)
 .debug_str     0x0000000000007746      0x3ce ../libtransmission/libtransmission.a(torrent-ctor.o)
                                       0x1a1a (size before relaxing)
 .debug_str     0x0000000000007b14      0x1e3 ../libtransmission/libtransmission.a(torrent-magnet.o)
                                       0x19f7 (size before relaxing)
 .debug_str     0x0000000000007cf7      0x2f5 ../libtransmission/libtransmission.a(tr-dht.o)
                                       0x1e59 (size before relaxing)
 .debug_str     0x0000000000007fec      0x30c ../libtransmission/libtransmission.a(tr-lpd.o)
                                       0x1d95 (size before relaxing)
 .debug_str     0x00000000000082f8       0x91 ../libtransmission/libtransmission.a(tr-udp.o)
                                        0xfd4 (size before relaxing)
 .debug_str     0x0000000000008389       0x58 ../libtransmission/libtransmission.a(tr-utp.o)
                                        0xe46 (size before relaxing)
 .debug_str     0x00000000000083e1       0xd3 ../libtransmission/libtransmission.a(tr-getopt.o)
                                        0x2c9 (size before relaxing)
 .debug_str     0x00000000000084b4       0xa3 ../libtransmission/libtransmission.a(trevent.o)
                                        0xc52 (size before relaxing)
 .debug_str     0x0000000000008557      0x8a2 ../libtransmission/libtransmission.a(utils.o)
                                       0x12ca (size before relaxing)
 .debug_str     0x0000000000008df9      0x1a0 ../libtransmission/libtransmission.a(verify.o)
                                       0x18f3 (size before relaxing)
 .debug_str     0x0000000000008f99     0x1d7c ../libtransmission/libtransmission.a(web.o)
                                       0x2ea8 (size before relaxing)
 .debug_str     0x000000000000ad15      0xab0 ../libtransmission/libtransmission.a(announcer.o)
                                       0x2546 (size before relaxing)
 .debug_str     0x000000000000b7c5      0x132 ../libtransmission/libtransmission.a(announcer-http.o)
                                       0x1c84 (size before relaxing)
 .debug_str     0x000000000000b8f7      0x575 ../libtransmission/libtransmission.a(announcer-udp.o)
                                       0x1b91 (size before relaxing)
 .debug_str     0x000000000000be6c      0x19e ../libtransmission/libtransmission.a(bandwidth.o)
                                        0xa5f (size before relaxing)
 .debug_str     0x000000000000c00a      0x259 ../libtransmission/libtransmission.a(bitfield.o)
                                        0x519 (size before relaxing)
 .debug_str     0x000000000000c263      0x19f ../libtransmission/libtransmission.a(blocklist.o)
                                        0x765 (size before relaxing)
 .debug_str     0x000000000000c402      0x1fa ../libtransmission/libtransmission.a(cache.o)
                                       0x184b (size before relaxing)
 .debug_str     0x000000000000c5fc      0x17d ../libtransmission/libtransmission.a(completion.o)
                                       0x17b3 (size before relaxing)
 .debug_str     0x000000000000c779      0x1d6 ../libtransmission/libtransmission.a(crypto.o)
                                        0x6bb (size before relaxing)
 .debug_str     0x000000000000c94f       0xd8 ../libtransmission/libtransmission.a(inout.o)
                                       0x170b (size before relaxing)
 .debug_str     0x000000000000ca27       0xa1 ../libtransmission/libtransmission.a(magnet.o)
                                        0x755 (size before relaxing)
 .debug_str     0x000000000000cac8      0x1ba ../libtransmission/libtransmission.a(metainfo.o)
                                       0x1289 (size before relaxing)
 .debug_str     0x000000000000cc82     0x1609 ../libtransmission/libtransmission.a(peer-mgr.o)
                                       0x36a3 (size before relaxing)
 .debug_str     0x000000000000e28b      0xaba ../libtransmission/libtransmission.a(peer-msgs.o)
                                       0x2e80 (size before relaxing)
 .debug_str     0x000000000000ed45      0x15b ../libtransmission/libtransmission.a(port-forwarding.o)
                                       0x177e (size before relaxing)
 .debug_str     0x000000000000eea0      0x261 ../libtransmission/libtransmission.a(resume.o)
                                       0x1d0e (size before relaxing)
 .debug_str     0x000000000000f101      0x680 ../libtransmission/libtransmission.a(rpc-server.o)
                                       0x15ae (size before relaxing)
 .debug_str     0x000000000000f781      0x250 ../libtransmission/libtransmission.a(upnp.o)
                                        0x4c3 (size before relaxing)
 .debug_str     0x000000000000f9d1      0x33b ../libtransmission/libtransmission.a(webseed.o)
                                       0x1d76 (size before relaxing)
 .debug_str     0x000000000000fd0c       0x25 ../libtransmission/libtransmission.a(wildmat.o)
                                        0x199 (size before relaxing)
 .debug_str     0x000000000000fd31       0xcd ../libtransmission/libtransmission.a(clients.o)
                                        0x301 (size before relaxing)
 .debug_str     0x000000000000fdfe      0x54e ../libtransmission/libtransmission.a(handshake.o)
                                       0x2081 (size before relaxing)
 .debug_str     0x000000000001034c       0x26 ../libtransmission/libtransmission.a(history.o)
                                        0x1d8 (size before relaxing)
 .debug_str     0x0000000000010372      0x1ef ../libtransmission/libtransmission.a(natpmp.o)
                                        0x48e (size before relaxing)
 .debug_str     0x0000000000010561      0x39d ../libtransmission/libtransmission.a(rpcimpl.o)
                                       0x25b3 (size before relaxing)
 .debug_str     0x00000000000108fe      0x126 ../third-party/libnatpmp/libnatpmp.a(natpmp.o)
                                        0x410 (size before relaxing)
 .debug_str     0x0000000000010a24       0x1f ../third-party/libnatpmp/libnatpmp.a(getgateway.o)
                                        0x3b5 (size before relaxing)
 .debug_str     0x0000000000010a43      0x292 ../third-party/miniupnp/libminiupnp.a(miniupnpc.o)
                                        0xa9f (size before relaxing)
 .debug_str     0x0000000000010cd5      0x156 ../third-party/miniupnp/libminiupnp.a(miniwget.o)
                                        0x59b (size before relaxing)
 .debug_str     0x0000000000010e2b       0x59 ../third-party/miniupnp/libminiupnp.a(minixml.o)
                                        0x121 (size before relaxing)
 .debug_str     0x0000000000010e84       0x29 ../third-party/miniupnp/libminiupnp.a(receivedata.o)
                                        0x133 (size before relaxing)
 .debug_str     0x0000000000010ead      0x53e ../third-party/miniupnp/libminiupnp.a(upnpcommands.o)
                                        0x704 (size before relaxing)
 .debug_str     0x00000000000113eb       0x7c ../third-party/miniupnp/libminiupnp.a(upnpreplyparse.o)
                                        0x258 (size before relaxing)
 .debug_str     0x0000000000011467       0x39 ../third-party/miniupnp/libminiupnp.a(connecthostport.o)
                                        0x467 (size before relaxing)
 .debug_str     0x00000000000114a0       0x42 ../third-party/miniupnp/libminiupnp.a(igd_desc_parse.o)
                                        0x1bc (size before relaxing)
 .debug_str     0x00000000000114e2       0x4b ../third-party/miniupnp/libminiupnp.a(minisoap.o)
                                        0x15d (size before relaxing)
 .debug_str     0x000000000001152d       0x5f ../third-party/miniupnp/libminiupnp.a(minissdpc.o)
                                        0x230 (size before relaxing)
 .debug_str     0x000000000001158c       0x34 ../third-party/miniupnp/libminiupnp.a(portlistingparse.o)
                                        0x315 (size before relaxing)
 .debug_str     0x00000000000115c0      0x7be ../third-party/dht/libdht.a(dht.o)
                                        0xdeb (size before relaxing)
 .debug_str     0x0000000000011d7e     0x1ac7 ../third-party/libutp/libutp.a(utp.o)
                                       0x2027 (size before relaxing)
 .debug_str     0x0000000000013845      0x152 ../third-party/libutp/libutp.a(utp_utils.o)
                                        0x31e (size before relaxing)
 .debug_str     0x0000000000013997     0x14ac /home/ql_xu/develop/trunk/uClinux-dist/lib/libevent/.libs/libevent.a(event.o)
                                       0x1ab6 (size before relaxing)
 .debug_str     0x0000000000014e43      0x1ad /home/ql_xu/develop/trunk/uClinux-dist/lib/libevent/.libs/libevent.a(evthread.o)
                                        0x60e (size before relaxing)
 .debug_str     0x0000000000014ff0      0xb1e /home/ql_xu/develop/trunk/uClinux-dist/lib/libevent/.libs/libevent.a(buffer.o)
                                       0x134c (size before relaxing)
 .debug_str     0x0000000000015b0e      0x770 /home/ql_xu/develop/trunk/uClinux-dist/lib/libevent/.libs/libevent.a(bufferevent.o)
                                       0x106b (size before relaxing)
 .debug_str     0x000000000001627e      0x59f /home/ql_xu/develop/trunk/uClinux-dist/lib/libevent/.libs/libevent.a(bufferevent_ratelim.o)
                                       0x15c0 (size before relaxing)
 .debug_str     0x000000000001681d      0x238 /home/ql_xu/develop/trunk/uClinux-dist/lib/libevent/.libs/libevent.a(evmap.o)
                                        0xcea (size before relaxing)
 .debug_str     0x0000000000016a55       0xee /home/ql_xu/develop/trunk/uClinux-dist/lib/libevent/.libs/libevent.a(log.o)
                                        0x40f (size before relaxing)
 .debug_str     0x0000000000016b43      0x882 /home/ql_xu/develop/trunk/uClinux-dist/lib/libevent/.libs/libevent.a(evutil.o)
                                       0x110e (size before relaxing)
 .debug_str     0x00000000000173c5      0x6db /home/ql_xu/develop/trunk/uClinux-dist/lib/libevent/.libs/libevent.a(evutil_rand.o)
                                        0x86d (size before relaxing)
 .debug_str     0x0000000000017aa0       0xda /home/ql_xu/develop/trunk/uClinux-dist/lib/libevent/.libs/libevent.a(select.o)
                                        0xbdf (size before relaxing)
 .debug_str     0x0000000000017b7a       0x54 /home/ql_xu/develop/trunk/uClinux-dist/lib/libevent/.libs/libevent.a(poll.o)
                                        0xb5b (size before relaxing)
 .debug_str     0x0000000000017bce      0x1a0 /home/ql_xu/develop/trunk/uClinux-dist/lib/libevent/.libs/libevent.a(epoll.o)
                                        0xc96 (size before relaxing)
 .debug_str     0x0000000000017d6e      0x111 /home/ql_xu/develop/trunk/uClinux-dist/lib/libevent/.libs/libevent.a(signal.o)
                                        0xc48 (size before relaxing)
 .debug_str     0x0000000000017e7f     0x14cd /home/ql_xu/develop/trunk/uClinux-dist/lib/libevent/.libs/libevent.a(http.o)
                                       0x21f5 (size before relaxing)
 .debug_str     0x000000000001934c     0x147a /home/ql_xu/develop/trunk/uClinux-dist/lib/libevent/.libs/libevent.a(evdns.o)
                                       0x1ef1 (size before relaxing)
 .debug_str     0x000000000001a7c6      0x1e9 /home/ql_xu/develop/trunk/uClinux-dist/lib/libevent/.libs/libevent.a(bufferevent_sock.o)
                                        0xf33 (size before relaxing)
 .debug_str     0x000000000001a9af      0x1f8 /home/ql_xu/develop/trunk/uClinux-dist/lib/libevent/.libs/libevent.a(listener.o)
                                        0x7f9 (size before relaxing)

.debug_loc      0x0000000000000000    0x5b42d
 *(.debug_loc)
 .debug_loc     0x0000000000000000      0x5e7 cli.o
 .debug_loc     0x00000000000005e7     0x3098 ../libtransmission/libtransmission.a(bencode.o)
 .debug_loc     0x000000000000367f      0xe17 ../libtransmission/libtransmission.a(ConvertUTF.o)
 .debug_loc     0x0000000000004496      0xd5e ../libtransmission/libtransmission.a(fdlimit.o)
 .debug_loc     0x00000000000051f4      0x2e2 ../libtransmission/libtransmission.a(json.o)
 .debug_loc     0x00000000000054d6      0x542 ../libtransmission/libtransmission.a(JSON_parser.o)
 .debug_loc     0x0000000000005a18      0x498 ../libtransmission/libtransmission.a(list.o)
 .debug_loc     0x0000000000005eb0      0xa77 ../libtransmission/libtransmission.a(net.o)
 .debug_loc     0x0000000000006927     0x1e68 ../libtransmission/libtransmission.a(peer-io.o)
 .debug_loc     0x000000000000878f      0x6a3 ../libtransmission/libtransmission.a(platform.o)
 .debug_loc     0x0000000000008e32      0x650 ../libtransmission/libtransmission.a(ptrarray.o)
 .debug_loc     0x0000000000009482     0x2620 ../libtransmission/libtransmission.a(session.o)
 .debug_loc     0x000000000000baa2      0x30f ../libtransmission/libtransmission.a(stats.o)
 .debug_loc     0x000000000000bdb1     0x3b2a ../libtransmission/libtransmission.a(torrent.o)
 .debug_loc     0x000000000000f8db      0x93f ../libtransmission/libtransmission.a(torrent-ctor.o)
 .debug_loc     0x000000000001021a      0x9ce ../libtransmission/libtransmission.a(torrent-magnet.o)
 .debug_loc     0x0000000000010be8     0x1030 ../libtransmission/libtransmission.a(tr-dht.o)
 .debug_loc     0x0000000000011c18      0x55c ../libtransmission/libtransmission.a(tr-lpd.o)
 .debug_loc     0x0000000000012174      0x41b ../libtransmission/libtransmission.a(tr-udp.o)
 .debug_loc     0x000000000001258f      0x367 ../libtransmission/libtransmission.a(tr-utp.o)
 .debug_loc     0x00000000000128f6      0x93e ../libtransmission/libtransmission.a(tr-getopt.o)
 .debug_loc     0x0000000000013234      0x346 ../libtransmission/libtransmission.a(trevent.o)
 .debug_loc     0x000000000001357a     0x2e70 ../libtransmission/libtransmission.a(utils.o)
 .debug_loc     0x00000000000163ea      0x451 ../libtransmission/libtransmission.a(verify.o)
 .debug_loc     0x000000000001683b      0x9aa ../libtransmission/libtransmission.a(web.o)
 .debug_loc     0x00000000000171e5     0x1dde ../libtransmission/libtransmission.a(announcer.o)
 .debug_loc     0x0000000000018fc3      0xae6 ../libtransmission/libtransmission.a(announcer-http.o)
 .debug_loc     0x0000000000019aa9     0x1318 ../libtransmission/libtransmission.a(announcer-udp.o)
 .debug_loc     0x000000000001adc1      0x726 ../libtransmission/libtransmission.a(bandwidth.o)
 .debug_loc     0x000000000001b4e7      0xa03 ../libtransmission/libtransmission.a(bitfield.o)
 .debug_loc     0x000000000001beea      0x533 ../libtransmission/libtransmission.a(blocklist.o)
 .debug_loc     0x000000000001c41d      0xd7e ../libtransmission/libtransmission.a(cache.o)
 .debug_loc     0x000000000001d19b      0xa81 ../libtransmission/libtransmission.a(completion.o)
 .debug_loc     0x000000000001dc1c      0x67d ../libtransmission/libtransmission.a(crypto.o)
 .debug_loc     0x000000000001e299      0x7d1 ../libtransmission/libtransmission.a(inout.o)
 .debug_loc     0x000000000001ea6a      0x613 ../libtransmission/libtransmission.a(magnet.o)
 .debug_loc     0x000000000001f07d     0x11af ../libtransmission/libtransmission.a(metainfo.o)
 .debug_loc     0x000000000002022c     0x5275 ../libtransmission/libtransmission.a(peer-mgr.o)
 .debug_loc     0x00000000000254a1     0x21c5 ../libtransmission/libtransmission.a(peer-msgs.o)
 .debug_loc     0x0000000000027666      0x3d1 ../libtransmission/libtransmission.a(port-forwarding.o)
 .debug_loc     0x0000000000027a37     0x2060 ../libtransmission/libtransmission.a(resume.o)
 .debug_loc     0x0000000000029a97     0x1232 ../libtransmission/libtransmission.a(rpc-server.o)
 .debug_loc     0x000000000002acc9      0x561 ../libtransmission/libtransmission.a(upnp.o)
 .debug_loc     0x000000000002b22a      0xae2 ../libtransmission/libtransmission.a(webseed.o)
 .debug_loc     0x000000000002bd0c      0x1b5 ../libtransmission/libtransmission.a(wildmat.o)
 .debug_loc     0x000000000002bec1      0x59b ../libtransmission/libtransmission.a(clients.o)
 .debug_loc     0x000000000002c45c     0x108c ../libtransmission/libtransmission.a(handshake.o)
 .debug_loc     0x000000000002d4e8       0x8b ../libtransmission/libtransmission.a(history.o)
 .debug_loc     0x000000000002d573      0x471 ../libtransmission/libtransmission.a(natpmp.o)
 .debug_loc     0x000000000002d9e4     0x3634 ../libtransmission/libtransmission.a(rpcimpl.o)
 .debug_loc     0x0000000000031018      0x539 ../third-party/libnatpmp/libnatpmp.a(natpmp.o)
 .debug_loc     0x0000000000031551      0x11c ../third-party/libnatpmp/libnatpmp.a(getgateway.o)
 .debug_loc     0x000000000003166d      0xfea ../third-party/miniupnp/libminiupnp.a(miniupnpc.o)
 .debug_loc     0x0000000000032657      0xc33 ../third-party/miniupnp/libminiupnp.a(miniwget.o)
 .debug_loc     0x000000000003328a      0x368 ../third-party/miniupnp/libminiupnp.a(minixml.o)
 .debug_loc     0x00000000000335f2      0x103 ../third-party/miniupnp/libminiupnp.a(receivedata.o)
 .debug_loc     0x00000000000336f5     0x2587 ../third-party/miniupnp/libminiupnp.a(upnpcommands.o)
 .debug_loc     0x0000000000035c7c      0x27f ../third-party/miniupnp/libminiupnp.a(upnpreplyparse.o)
 .debug_loc     0x0000000000035efb      0x211 ../third-party/miniupnp/libminiupnp.a(connecthostport.o)
 .debug_loc     0x000000000003610c      0x28c ../third-party/miniupnp/libminiupnp.a(igd_desc_parse.o)
 .debug_loc     0x0000000000036398      0x179 ../third-party/miniupnp/libminiupnp.a(minisoap.o)
 .debug_loc     0x0000000000036511      0x24f ../third-party/miniupnp/libminiupnp.a(minissdpc.o)
 .debug_loc     0x0000000000036760      0x446 ../third-party/miniupnp/libminiupnp.a(portlistingparse.o)
 .debug_loc     0x0000000000036ba6     0x435a ../third-party/dht/libdht.a(dht.o)
 .debug_loc     0x000000000003af00     0x28c6 ../third-party/libutp/libutp.a(utp.o)
 .debug_loc     0x000000000003d7c6       0x8c ../third-party/libutp/libutp.a(utp_utils.o)
 .debug_loc     0x000000000003d852     0x3ce6 /home/ql_xu/develop/trunk/uClinux-dist/lib/libevent/.libs/libevent.a(event.o)
 .debug_loc     0x0000000000041538      0x84b /home/ql_xu/develop/trunk/uClinux-dist/lib/libevent/.libs/libevent.a(evthread.o)
 .debug_loc     0x0000000000041d83     0x4ad8 /home/ql_xu/develop/trunk/uClinux-dist/lib/libevent/.libs/libevent.a(buffer.o)
 .debug_loc     0x000000000004685b     0x14f5 /home/ql_xu/develop/trunk/uClinux-dist/lib/libevent/.libs/libevent.a(bufferevent.o)
 .debug_loc     0x0000000000047d50     0x159c /home/ql_xu/develop/trunk/uClinux-dist/lib/libevent/.libs/libevent.a(bufferevent_ratelim.o)
 .debug_loc     0x00000000000492ec      0xffe /home/ql_xu/develop/trunk/uClinux-dist/lib/libevent/.libs/libevent.a(evmap.o)
 .debug_loc     0x000000000004a2ea      0x426 /home/ql_xu/develop/trunk/uClinux-dist/lib/libevent/.libs/libevent.a(log.o)
 .debug_loc     0x000000000004a710     0x20d6 /home/ql_xu/develop/trunk/uClinux-dist/lib/libevent/.libs/libevent.a(evutil.o)
 .debug_loc     0x000000000004c7e6      0x5b3 /home/ql_xu/develop/trunk/uClinux-dist/lib/libevent/.libs/libevent.a(evutil_rand.o)
 .debug_loc     0x000000000004cd99      0x4a2 /home/ql_xu/develop/trunk/uClinux-dist/lib/libevent/.libs/libevent.a(select.o)
 .debug_loc     0x000000000004d23b      0x5f9 /home/ql_xu/develop/trunk/uClinux-dist/lib/libevent/.libs/libevent.a(poll.o)
 .debug_loc     0x000000000004d834      0x60b /home/ql_xu/develop/trunk/uClinux-dist/lib/libevent/.libs/libevent.a(epoll.o)
 .debug_loc     0x000000000004de3f      0x630 /home/ql_xu/develop/trunk/uClinux-dist/lib/libevent/.libs/libevent.a(signal.o)
 .debug_loc     0x000000000004e46f     0x51b2 /home/ql_xu/develop/trunk/uClinux-dist/lib/libevent/.libs/libevent.a(http.o)
 .debug_loc     0x0000000000053621     0x6688 /home/ql_xu/develop/trunk/uClinux-dist/lib/libevent/.libs/libevent.a(evdns.o)
 .debug_loc     0x0000000000059ca9      0xdf7 /home/ql_xu/develop/trunk/uClinux-dist/lib/libevent/.libs/libevent.a(bufferevent_sock.o)
 .debug_loc     0x000000000005aaa0      0x98d /home/ql_xu/develop/trunk/uClinux-dist/lib/libevent/.libs/libevent.a(listener.o)

.debug_macinfo  0x0000000000000000   0x625e1d
 *(.debug_macinfo)
 .debug_macinfo
                0x0000000000000000    0x1399e cli.o
 .debug_macinfo
                0x000000000001399e    0x1540a ../libtransmission/libtransmission.a(bencode.o)
 .debug_macinfo
                0x0000000000028da8     0x3dc4 ../libtransmission/libtransmission.a(ConvertUTF.o)
 .debug_macinfo
                0x000000000002cb6c    0x11a0c ../libtransmission/libtransmission.a(fdlimit.o)
 .debug_macinfo
                0x000000000003e578     0xa507 ../libtransmission/libtransmission.a(json.o)
 .debug_macinfo
                0x0000000000048a7f     0xf4de ../libtransmission/libtransmission.a(JSON_parser.o)
 .debug_macinfo
                0x0000000000057f5d     0x834b ../libtransmission/libtransmission.a(list.o)
 .debug_macinfo
                0x00000000000602a8    0x3061d ../libtransmission/libtransmission.a(net.o)
 .debug_macinfo
                0x00000000000908c5    0x309cd ../libtransmission/libtransmission.a(peer-io.o)
 .debug_macinfo
                0x00000000000c1292    0x168fb ../libtransmission/libtransmission.a(platform.o)
 .debug_macinfo
                0x00000000000d7b8d     0x96fd ../libtransmission/libtransmission.a(ptrarray.o)
 .debug_macinfo
                0x00000000000e128a    0x422fc ../libtransmission/libtransmission.a(session.o)
 .debug_macinfo
                0x0000000000123586     0x84f3 ../libtransmission/libtransmission.a(stats.o)
 .debug_macinfo
                0x000000000012ba79    0x3d9ec ../libtransmission/libtransmission.a(torrent.o)
 .debug_macinfo
                0x0000000000169465     0x8cf8 ../libtransmission/libtransmission.a(torrent-ctor.o)
 .debug_macinfo
                0x000000000017215d    0x34de8 ../libtransmission/libtransmission.a(torrent-magnet.o)
 .debug_macinfo
                0x00000000001a6f45    0x3516d ../libtransmission/libtransmission.a(tr-dht.o)
 .debug_macinfo
                0x00000000001dc0b2    0x158de ../libtransmission/libtransmission.a(tr-lpd.o)
 .debug_macinfo
                0x00000000001f1990    0x142ba ../libtransmission/libtransmission.a(tr-udp.o)
 .debug_macinfo
                0x0000000000205c4a    0x306cd ../libtransmission/libtransmission.a(tr-utp.o)
 .debug_macinfo
                0x0000000000236317     0x6dd4 ../libtransmission/libtransmission.a(tr-getopt.o)
 .debug_macinfo
                0x000000000023d0eb    0x15849 ../libtransmission/libtransmission.a(trevent.o)
 .debug_macinfo
                0x0000000000252934    0x54dde ../libtransmission/libtransmission.a(utils.o)
 .debug_macinfo
                0x00000000002a7712     0xde66 ../libtransmission/libtransmission.a(verify.o)
 .debug_macinfo
                0x00000000002b5578    0x155e3 ../libtransmission/libtransmission.a(web.o)
 .debug_macinfo
                0x00000000002cab5b    0x30736 ../libtransmission/libtransmission.a(announcer.o)
 .debug_macinfo
                0x00000000002fb291    0x1587c ../libtransmission/libtransmission.a(announcer-http.o)
 .debug_macinfo
                0x0000000000310b0d    0x307eb ../libtransmission/libtransmission.a(announcer-udp.o)
 .debug_macinfo
                0x00000000003412f8    0x2e6e0 ../libtransmission/libtransmission.a(bandwidth.o)
 .debug_macinfo
                0x000000000036f9d8     0x9670 ../libtransmission/libtransmission.a(bitfield.o)
 .debug_macinfo
                0x0000000000379048    0x12e5d ../libtransmission/libtransmission.a(blocklist.o)
 .debug_macinfo
                0x000000000038bea5     0xe979 ../libtransmission/libtransmission.a(cache.o)
 .debug_macinfo
                0x000000000039a81e     0x8577 ../libtransmission/libtransmission.a(completion.o)
 .debug_macinfo
                0x00000000003a2d95    0x2c9a6 ../libtransmission/libtransmission.a(crypto.o)
 .debug_macinfo
                0x00000000003cf73b     0xd7ad ../libtransmission/libtransmission.a(inout.o)
 .debug_macinfo
                0x00000000003dcee8    0x1153a ../libtransmission/libtransmission.a(magnet.o)
 .debug_macinfo
                0x00000000003ee422    0x346bc ../libtransmission/libtransmission.a(metainfo.o)
 .debug_macinfo
                0x0000000000422ade    0x3099e ../libtransmission/libtransmission.a(peer-mgr.o)
 .debug_macinfo
                0x000000000045347c    0x30b74 ../libtransmission/libtransmission.a(peer-msgs.o)
 .debug_macinfo
                0x0000000000483ff0    0x10582 ../libtransmission/libtransmission.a(port-forwarding.o)
 .debug_macinfo
                0x0000000000494572    0x11138 ../libtransmission/libtransmission.a(resume.o)
 .debug_macinfo
                0x00000000004a56aa    0x39daf ../libtransmission/libtransmission.a(rpc-server.o)
 .debug_macinfo
                0x00000000004df459     0xbbe2 ../libtransmission/libtransmission.a(upnp.o)
 .debug_macinfo
                0x00000000004eb03b    0x15af7 ../libtransmission/libtransmission.a(webseed.o)
 .debug_macinfo
                0x0000000000500b32     0x8382 ../libtransmission/libtransmission.a(wildmat.o)
 .debug_macinfo
                0x0000000000508eb4     0x9bf0 ../libtransmission/libtransmission.a(clients.o)
 .debug_macinfo
                0x0000000000512aa4    0x30c86 ../libtransmission/libtransmission.a(handshake.o)
 .debug_macinfo
                0x000000000054372a     0x841d ../libtransmission/libtransmission.a(history.o)
 .debug_macinfo
                0x000000000054bb47     0xeeaf ../libtransmission/libtransmission.a(natpmp.o)
 .debug_macinfo
                0x000000000055a9f6    0x19ef5 ../libtransmission/libtransmission.a(rpcimpl.o)
 .debug_macinfo
                0x00000000005748eb     0xe9ea ../third-party/libnatpmp/libnatpmp.a(natpmp.o)
 .debug_macinfo
                0x00000000005832d5     0xb519 ../third-party/libnatpmp/libnatpmp.a(getgateway.o)
 .debug_macinfo
                0x000000000058e7ee    0x14704 ../third-party/miniupnp/libminiupnp.a(miniupnpc.o)
 .debug_macinfo
                0x00000000005a2ef2    0x10df2 ../third-party/miniupnp/libminiupnp.a(miniwget.o)
 .debug_macinfo
                0x00000000005b3ce4     0x4012 ../third-party/miniupnp/libminiupnp.a(minixml.o)
 .debug_macinfo
                0x00000000005b7cf6     0xdb20 ../third-party/miniupnp/libminiupnp.a(receivedata.o)
 .debug_macinfo
                0x00000000005c5816     0x9ff5 ../third-party/miniupnp/libminiupnp.a(upnpcommands.o)
 .debug_macinfo
                0x00000000005cf80b     0x9e21 ../third-party/miniupnp/libminiupnp.a(upnpreplyparse.o)
 .debug_macinfo
                0x00000000005d962c    0x107eb ../third-party/miniupnp/libminiupnp.a(connecthostport.o)
 .debug_macinfo
                0x00000000005e9e17     0x5920 ../third-party/miniupnp/libminiupnp.a(igd_desc_parse.o)
 .debug_macinfo
                0x00000000005ef737     0xdb84 ../third-party/miniupnp/libminiupnp.a(minisoap.o)
 .debug_macinfo
                0x00000000005fd2bb     0xde76 ../third-party/miniupnp/libminiupnp.a(minissdpc.o)
 .debug_macinfo
                0x000000000060b131     0x8cf8 ../third-party/miniupnp/libminiupnp.a(portlistingparse.o)
 .debug_macinfo
                0x0000000000613e29    0x11ff4 ../third-party/dht/libdht.a(dht.o)

.debug_weaknames
 *(.debug_weaknames)

.debug_funcnames
 *(.debug_funcnames)

.debug_typenames
 *(.debug_typenames)

.debug_varnames
 *(.debug_varnames)

.debug_pubtypes
 *(.debug_pubtypes)

.debug_ranges   0x0000000000000000    0x11448
 *(.debug_ranges)
 .debug_ranges  0x0000000000000000      0x178 cli.o
 .debug_ranges  0x0000000000000178      0x890 ../libtransmission/libtransmission.a(bencode.o)
 .debug_ranges  0x0000000000000a08      0x198 ../libtransmission/libtransmission.a(ConvertUTF.o)
 .debug_ranges  0x0000000000000ba0      0x240 ../libtransmission/libtransmission.a(fdlimit.o)
 .debug_ranges  0x0000000000000de0       0x18 ../libtransmission/libtransmission.a(json.o)
 .debug_ranges  0x0000000000000df8       0xf8 ../libtransmission/libtransmission.a(JSON_parser.o)
 .debug_ranges  0x0000000000000ef0       0x18 ../libtransmission/libtransmission.a(list.o)
 .debug_ranges  0x0000000000000f08      0x260 ../libtransmission/libtransmission.a(net.o)
 .debug_ranges  0x0000000000001168      0x400 ../libtransmission/libtransmission.a(peer-io.o)
 .debug_ranges  0x0000000000001568      0x228 ../libtransmission/libtransmission.a(platform.o)
 .debug_ranges  0x0000000000001790       0x20 ../libtransmission/libtransmission.a(ptrarray.o)
 .debug_ranges  0x00000000000017b0      0x778 ../libtransmission/libtransmission.a(session.o)
 .debug_ranges  0x0000000000001f28      0x140 ../libtransmission/libtransmission.a(stats.o)
 .debug_ranges  0x0000000000002068      0xf58 ../libtransmission/libtransmission.a(torrent.o)
 .debug_ranges  0x0000000000002fc0       0x48 ../libtransmission/libtransmission.a(torrent-ctor.o)
 .debug_ranges  0x0000000000003008      0x1d8 ../libtransmission/libtransmission.a(torrent-magnet.o)
 .debug_ranges  0x00000000000031e0       0xd8 ../libtransmission/libtransmission.a(tr-dht.o)
 .debug_ranges  0x00000000000032b8      0x1a0 ../libtransmission/libtransmission.a(tr-lpd.o)
 .debug_ranges  0x0000000000003458       0x50 ../libtransmission/libtransmission.a(tr-udp.o)
 .debug_ranges  0x00000000000034a8       0xc8 ../libtransmission/libtransmission.a(tr-getopt.o)
 .debug_ranges  0x0000000000003570      0x5d0 ../libtransmission/libtransmission.a(utils.o)
 .debug_ranges  0x0000000000003b40      0x100 ../libtransmission/libtransmission.a(verify.o)
 .debug_ranges  0x0000000000003c40      0x460 ../libtransmission/libtransmission.a(web.o)
 .debug_ranges  0x00000000000040a0      0xac0 ../libtransmission/libtransmission.a(announcer.o)
 .debug_ranges  0x0000000000004b60      0x2b0 ../libtransmission/libtransmission.a(announcer-http.o)
 .debug_ranges  0x0000000000004e10      0x688 ../libtransmission/libtransmission.a(announcer-udp.o)
 .debug_ranges  0x0000000000005498      0x188 ../libtransmission/libtransmission.a(bandwidth.o)
 .debug_ranges  0x0000000000005620      0x380 ../libtransmission/libtransmission.a(bitfield.o)
 .debug_ranges  0x00000000000059a0      0x120 ../libtransmission/libtransmission.a(blocklist.o)
 .debug_ranges  0x0000000000005ac0       0xf8 ../libtransmission/libtransmission.a(cache.o)
 .debug_ranges  0x0000000000005bb8      0x550 ../libtransmission/libtransmission.a(completion.o)
 .debug_ranges  0x0000000000006108       0x50 ../libtransmission/libtransmission.a(crypto.o)
 .debug_ranges  0x0000000000006158      0x1e0 ../libtransmission/libtransmission.a(inout.o)
 .debug_ranges  0x0000000000006338       0xf8 ../libtransmission/libtransmission.a(magnet.o)
 .debug_ranges  0x0000000000006430      0x368 ../libtransmission/libtransmission.a(metainfo.o)
 .debug_ranges  0x0000000000006798     0x1f50 ../libtransmission/libtransmission.a(peer-mgr.o)
 .debug_ranges  0x00000000000086e8      0xe50 ../libtransmission/libtransmission.a(peer-msgs.o)
 .debug_ranges  0x0000000000009538       0xc8 ../libtransmission/libtransmission.a(port-forwarding.o)
 .debug_ranges  0x0000000000009600      0x670 ../libtransmission/libtransmission.a(resume.o)
 .debug_ranges  0x0000000000009c70      0x368 ../libtransmission/libtransmission.a(rpc-server.o)
 .debug_ranges  0x0000000000009fd8       0x48 ../libtransmission/libtransmission.a(upnp.o)
 .debug_ranges  0x000000000000a020      0x1e8 ../libtransmission/libtransmission.a(webseed.o)
 .debug_ranges  0x000000000000a208      0x2b0 ../libtransmission/libtransmission.a(clients.o)
 .debug_ranges  0x000000000000a4b8      0x6f8 ../libtransmission/libtransmission.a(handshake.o)
 .debug_ranges  0x000000000000abb0       0x60 ../libtransmission/libtransmission.a(natpmp.o)
 .debug_ranges  0x000000000000ac10      0x668 ../libtransmission/libtransmission.a(rpcimpl.o)
 .debug_ranges  0x000000000000b278       0xd0 ../third-party/miniupnp/libminiupnp.a(miniupnpc.o)
 .debug_ranges  0x000000000000b348       0x78 ../third-party/miniupnp/libminiupnp.a(miniwget.o)
 .debug_ranges  0x000000000000b3c0      0x188 ../third-party/miniupnp/libminiupnp.a(minixml.o)
 .debug_ranges  0x000000000000b548       0x58 ../third-party/miniupnp/libminiupnp.a(connecthostport.o)
 .debug_ranges  0x000000000000b5a0       0x50 ../third-party/miniupnp/libminiupnp.a(minisoap.o)
 .debug_ranges  0x000000000000b5f0       0xc0 ../third-party/miniupnp/libminiupnp.a(portlistingparse.o)
 .debug_ranges  0x000000000000b6b0      0xdb8 ../third-party/dht/libdht.a(dht.o)
 .debug_ranges  0x000000000000c468     0x1828 ../third-party/libutp/libutp.a(utp.o)
 .debug_ranges  0x000000000000dc90      0x160 ../third-party/libutp/libutp.a(utp_utils.o)
 .debug_ranges  0x000000000000ddf0      0xcb0 /home/ql_xu/develop/trunk/uClinux-dist/lib/libevent/.libs/libevent.a(event.o)
 .debug_ranges  0x000000000000eaa0       0x60 /home/ql_xu/develop/trunk/uClinux-dist/lib/libevent/.libs/libevent.a(evthread.o)
 .debug_ranges  0x000000000000eb00      0x8c0 /home/ql_xu/develop/trunk/uClinux-dist/lib/libevent/.libs/libevent.a(buffer.o)
 .debug_ranges  0x000000000000f3c0      0x1e8 /home/ql_xu/develop/trunk/uClinux-dist/lib/libevent/.libs/libevent.a(bufferevent.o)
 .debug_ranges  0x000000000000f5a8      0x278 /home/ql_xu/develop/trunk/uClinux-dist/lib/libevent/.libs/libevent.a(bufferevent_ratelim.o)
 .debug_ranges  0x000000000000f820       0xa8 /home/ql_xu/develop/trunk/uClinux-dist/lib/libevent/.libs/libevent.a(evmap.o)
 .debug_ranges  0x000000000000f8c8       0x20 /home/ql_xu/develop/trunk/uClinux-dist/lib/libevent/.libs/libevent.a(log.o)
 .debug_ranges  0x000000000000f8e8      0x400 /home/ql_xu/develop/trunk/uClinux-dist/lib/libevent/.libs/libevent.a(evutil.o)
 .debug_ranges  0x000000000000fce8      0x340 /home/ql_xu/develop/trunk/uClinux-dist/lib/libevent/.libs/libevent.a(evutil_rand.o)
 .debug_ranges  0x0000000000010028       0x18 /home/ql_xu/develop/trunk/uClinux-dist/lib/libevent/.libs/libevent.a(select.o)
 .debug_ranges  0x0000000000010040       0x50 /home/ql_xu/develop/trunk/uClinux-dist/lib/libevent/.libs/libevent.a(poll.o)
 .debug_ranges  0x0000000000010090       0x78 /home/ql_xu/develop/trunk/uClinux-dist/lib/libevent/.libs/libevent.a(epoll.o)
 .debug_ranges  0x0000000000010108       0x18 /home/ql_xu/develop/trunk/uClinux-dist/lib/libevent/.libs/libevent.a(signal.o)
 .debug_ranges  0x0000000000010120      0x810 /home/ql_xu/develop/trunk/uClinux-dist/lib/libevent/.libs/libevent.a(http.o)
 .debug_ranges  0x0000000000010930      0xa50 /home/ql_xu/develop/trunk/uClinux-dist/lib/libevent/.libs/libevent.a(evdns.o)
 .debug_ranges  0x0000000000011380       0xa0 /home/ql_xu/develop/trunk/uClinux-dist/lib/libevent/.libs/libevent.a(bufferevent_sock.o)
 .debug_ranges  0x0000000000011420       0x28 /home/ql_xu/develop/trunk/uClinux-dist/lib/libevent/.libs/libevent.a(listener.o)

.debug_macro
 *(.debug_macro)

.gnu.attributes
                0x0000000000000000       0x10
 *(.gnu.attributes)
 .gnu.attributes
                0x0000000000000000       0x10 /rsdk-4.4.7-5281-EB-2.6.30-0.9.33-m32utb-140606/bin/../lib/gcc/mips-linux-uclibc/4.4.7/5281/crtbegin.o
 .gnu.attributes
                0x0000000000000010       0x10 cli.o
 .gnu.attributes
                0x0000000000000020       0x10 ../libtransmission/libtransmission.a(bencode.o)
 .gnu.attributes
                0x0000000000000030       0x10 ../libtransmission/libtransmission.a(ConvertUTF.o)
 .gnu.attributes
                0x0000000000000040       0x10 ../libtransmission/libtransmission.a(fdlimit.o)
 .gnu.attributes
                0x0000000000000050       0x10 ../libtransmission/libtransmission.a(json.o)
 .gnu.attributes
                0x0000000000000060       0x10 ../libtransmission/libtransmission.a(JSON_parser.o)
 .gnu.attributes
                0x0000000000000070       0x10 ../libtransmission/libtransmission.a(list.o)
 .gnu.attributes
                0x0000000000000080       0x10 ../libtransmission/libtransmission.a(net.o)
 .gnu.attributes
                0x0000000000000090       0x10 ../libtransmission/libtransmission.a(peer-io.o)
 .gnu.attributes
                0x00000000000000a0       0x10 ../libtransmission/libtransmission.a(platform.o)
 .gnu.attributes
                0x00000000000000b0       0x10 ../libtransmission/libtransmission.a(ptrarray.o)
 .gnu.attributes
                0x00000000000000c0       0x10 ../libtransmission/libtransmission.a(session.o)
 .gnu.attributes
                0x00000000000000d0       0x10 ../libtransmission/libtransmission.a(stats.o)
 .gnu.attributes
                0x00000000000000e0       0x10 ../libtransmission/libtransmission.a(torrent.o)
 .gnu.attributes
                0x00000000000000f0       0x10 ../libtransmission/libtransmission.a(torrent-ctor.o)
 .gnu.attributes
                0x0000000000000100       0x10 ../libtransmission/libtransmission.a(torrent-magnet.o)
 .gnu.attributes
                0x0000000000000110       0x10 ../libtransmission/libtransmission.a(tr-dht.o)
 .gnu.attributes
                0x0000000000000120       0x10 ../libtransmission/libtransmission.a(tr-lpd.o)
 .gnu.attributes
                0x0000000000000130       0x10 ../libtransmission/libtransmission.a(tr-udp.o)
 .gnu.attributes
                0x0000000000000140       0x10 ../libtransmission/libtransmission.a(tr-utp.o)
 .gnu.attributes
                0x0000000000000150       0x10 ../libtransmission/libtransmission.a(tr-getopt.o)
 .gnu.attributes
                0x0000000000000160       0x10 ../libtransmission/libtransmission.a(trevent.o)
 .gnu.attributes
                0x0000000000000170       0x10 ../libtransmission/libtransmission.a(utils.o)
 .gnu.attributes
                0x0000000000000180       0x10 ../libtransmission/libtransmission.a(verify.o)
 .gnu.attributes
                0x0000000000000190       0x10 ../libtransmission/libtransmission.a(web.o)
 .gnu.attributes
                0x00000000000001a0       0x10 ../libtransmission/libtransmission.a(announcer.o)
 .gnu.attributes
                0x00000000000001b0       0x10 ../libtransmission/libtransmission.a(announcer-http.o)
 .gnu.attributes
                0x00000000000001c0       0x10 ../libtransmission/libtransmission.a(announcer-udp.o)
 .gnu.attributes
                0x00000000000001d0       0x10 ../libtransmission/libtransmission.a(bandwidth.o)
 .gnu.attributes
                0x00000000000001e0       0x10 ../libtransmission/libtransmission.a(bitfield.o)
 .gnu.attributes
                0x00000000000001f0       0x10 ../libtransmission/libtransmission.a(blocklist.o)
 .gnu.attributes
                0x0000000000000200       0x10 ../libtransmission/libtransmission.a(cache.o)
 .gnu.attributes
                0x0000000000000210       0x10 ../libtransmission/libtransmission.a(completion.o)
 .gnu.attributes
                0x0000000000000220       0x10 ../libtransmission/libtransmission.a(crypto.o)
 .gnu.attributes
                0x0000000000000230       0x10 ../libtransmission/libtransmission.a(inout.o)
 .gnu.attributes
                0x0000000000000240       0x10 ../libtransmission/libtransmission.a(magnet.o)
 .gnu.attributes
                0x0000000000000250       0x10 ../libtransmission/libtransmission.a(metainfo.o)
 .gnu.attributes
                0x0000000000000260       0x10 ../libtransmission/libtransmission.a(peer-mgr.o)
 .gnu.attributes
                0x0000000000000270       0x10 ../libtransmission/libtransmission.a(peer-msgs.o)
 .gnu.attributes
                0x0000000000000280       0x10 ../libtransmission/libtransmission.a(port-forwarding.o)
 .gnu.attributes
                0x0000000000000290       0x10 ../libtransmission/libtransmission.a(resume.o)
 .gnu.attributes
                0x00000000000002a0       0x10 ../libtransmission/libtransmission.a(rpc-server.o)
 .gnu.attributes
                0x00000000000002b0       0x10 ../libtransmission/libtransmission.a(upnp.o)
 .gnu.attributes
                0x00000000000002c0       0x10 ../libtransmission/libtransmission.a(webseed.o)
 .gnu.attributes
                0x00000000000002d0       0x10 ../libtransmission/libtransmission.a(wildmat.o)
 .gnu.attributes
                0x00000000000002e0       0x10 ../libtransmission/libtransmission.a(clients.o)
 .gnu.attributes
                0x00000000000002f0       0x10 ../libtransmission/libtransmission.a(handshake.o)
 .gnu.attributes
                0x0000000000000300       0x10 ../libtransmission/libtransmission.a(history.o)
 .gnu.attributes
                0x0000000000000310       0x10 ../libtransmission/libtransmission.a(natpmp.o)
 .gnu.attributes
                0x0000000000000320       0x10 ../libtransmission/libtransmission.a(rpcimpl.o)
 .gnu.attributes
                0x0000000000000330       0x10 ../third-party/libnatpmp/libnatpmp.a(natpmp.o)
 .gnu.attributes
                0x0000000000000340       0x10 ../third-party/libnatpmp/libnatpmp.a(getgateway.o)
 .gnu.attributes
                0x0000000000000350       0x10 ../third-party/miniupnp/libminiupnp.a(miniupnpc.o)
 .gnu.attributes
                0x0000000000000360       0x10 ../third-party/miniupnp/libminiupnp.a(miniwget.o)
 .gnu.attributes
                0x0000000000000370       0x10 ../third-party/miniupnp/libminiupnp.a(minixml.o)
 .gnu.attributes
                0x0000000000000380       0x10 ../third-party/miniupnp/libminiupnp.a(receivedata.o)
 .gnu.attributes
                0x0000000000000390       0x10 ../third-party/miniupnp/libminiupnp.a(upnpcommands.o)
 .gnu.attributes
                0x00000000000003a0       0x10 ../third-party/miniupnp/libminiupnp.a(upnpreplyparse.o)
 .gnu.attributes
                0x00000000000003b0       0x10 ../third-party/miniupnp/libminiupnp.a(connecthostport.o)
 .gnu.attributes
                0x00000000000003c0       0x10 ../third-party/miniupnp/libminiupnp.a(igd_desc_parse.o)
 .gnu.attributes
                0x00000000000003d0       0x10 ../third-party/miniupnp/libminiupnp.a(minisoap.o)
 .gnu.attributes
                0x00000000000003e0       0x10 ../third-party/miniupnp/libminiupnp.a(minissdpc.o)
 .gnu.attributes
                0x00000000000003f0       0x10 ../third-party/miniupnp/libminiupnp.a(portlistingparse.o)
 .gnu.attributes
                0x0000000000000400       0x10 ../third-party/dht/libdht.a(dht.o)
 .gnu.attributes
                0x0000000000000410       0x10 ../third-party/libutp/libutp.a(utp.o)
 .gnu.attributes
                0x0000000000000420       0x10 ../third-party/libutp/libutp.a(utp_utils.o)
 .gnu.attributes
                0x0000000000000430       0x10 /home/ql_xu/develop/trunk/uClinux-dist/lib/libevent/.libs/libevent.a(event.o)
 .gnu.attributes
                0x0000000000000440       0x10 /home/ql_xu/develop/trunk/uClinux-dist/lib/libevent/.libs/libevent.a(evthread.o)
 .gnu.attributes
                0x0000000000000450       0x10 /home/ql_xu/develop/trunk/uClinux-dist/lib/libevent/.libs/libevent.a(buffer.o)
 .gnu.attributes
                0x0000000000000460       0x10 /home/ql_xu/develop/trunk/uClinux-dist/lib/libevent/.libs/libevent.a(bufferevent.o)
 .gnu.attributes
                0x0000000000000470       0x10 /home/ql_xu/develop/trunk/uClinux-dist/lib/libevent/.libs/libevent.a(bufferevent_ratelim.o)
 .gnu.attributes
                0x0000000000000480       0x10 /home/ql_xu/develop/trunk/uClinux-dist/lib/libevent/.libs/libevent.a(evmap.o)
 .gnu.attributes
                0x0000000000000490       0x10 /home/ql_xu/develop/trunk/uClinux-dist/lib/libevent/.libs/libevent.a(log.o)
 .gnu.attributes
                0x00000000000004a0       0x10 /home/ql_xu/develop/trunk/uClinux-dist/lib/libevent/.libs/libevent.a(evutil.o)
 .gnu.attributes
                0x00000000000004b0       0x10 /home/ql_xu/develop/trunk/uClinux-dist/lib/libevent/.libs/libevent.a(evutil_rand.o)
 .gnu.attributes
                0x00000000000004c0       0x10 /home/ql_xu/develop/trunk/uClinux-dist/lib/libevent/.libs/libevent.a(select.o)
 .gnu.attributes
                0x00000000000004d0       0x10 /home/ql_xu/develop/trunk/uClinux-dist/lib/libevent/.libs/libevent.a(poll.o)
 .gnu.attributes
                0x00000000000004e0       0x10 /home/ql_xu/develop/trunk/uClinux-dist/lib/libevent/.libs/libevent.a(epoll.o)
 .gnu.attributes
                0x00000000000004f0       0x10 /home/ql_xu/develop/trunk/uClinux-dist/lib/libevent/.libs/libevent.a(signal.o)
 .gnu.attributes
                0x0000000000000500       0x10 /home/ql_xu/develop/trunk/uClinux-dist/lib/libevent/.libs/libevent.a(http.o)
 .gnu.attributes
                0x0000000000000510       0x10 /home/ql_xu/develop/trunk/uClinux-dist/lib/libevent/.libs/libevent.a(evdns.o)
 .gnu.attributes
                0x0000000000000520       0x10 /home/ql_xu/develop/trunk/uClinux-dist/lib/libevent/.libs/libevent.a(bufferevent_sock.o)
 .gnu.attributes
                0x0000000000000530       0x10 /home/ql_xu/develop/trunk/uClinux-dist/lib/libevent/.libs/libevent.a(listener.o)
 .gnu.attributes
                0x0000000000000540       0x10 /home/ql_xu/develop/trunk/uClinux-dist/user/curl-7.36.0/lib/.libs/libcurl.a(libcurl_la-escape.o)
 .gnu.attributes
                0x0000000000000550       0x10 /home/ql_xu/develop/trunk/uClinux-dist/user/curl-7.36.0/lib/.libs/libcurl.a(libcurl_la-mprintf.o)
 .gnu.attributes
                0x0000000000000560       0x10 /home/ql_xu/develop/trunk/uClinux-dist/user/curl-7.36.0/lib/.libs/libcurl.a(libcurl_la-easy.o)
 .gnu.attributes
                0x0000000000000570       0x10 /home/ql_xu/develop/trunk/uClinux-dist/user/curl-7.36.0/lib/.libs/libcurl.a(libcurl_la-connect.o)
 .gnu.attributes
                0x0000000000000580       0x10 /home/ql_xu/develop/trunk/uClinux-dist/user/curl-7.36.0/lib/.libs/libcurl.a(libcurl_la-multi.o)
 .gnu.attributes
                0x0000000000000590       0x10 /home/ql_xu/develop/trunk/uClinux-dist/user/curl-7.36.0/lib/.libs/libcurl.a(libcurl_la-strerror.o)
 .gnu.attributes
                0x00000000000005a0       0x10 /home/ql_xu/develop/trunk/uClinux-dist/user/curl-7.36.0/lib/.libs/libcurl.a(libcurl_la-select.o)
 .gnu.attributes
                0x00000000000005b0       0x10 /home/ql_xu/develop/trunk/uClinux-dist/user/curl-7.36.0/lib/.libs/libcurl.a(libcurl_la-splay.o)
 .gnu.attributes
                0x00000000000005c0       0x10 /home/ql_xu/develop/trunk/uClinux-dist/user/curl-7.36.0/lib/.libs/libcurl.a(libcurl_la-slist.o)
 .gnu.attributes
                0x00000000000005d0       0x10 /home/ql_xu/develop/trunk/uClinux-dist/user/curl-7.36.0/lib/.libs/libcurl.a(libcurl_la-nonblock.o)
 .gnu.attributes
                0x00000000000005e0       0x10 /home/ql_xu/develop/trunk/uClinux-dist/user/curl-7.36.0/lib/.libs/libcurl.a(libcurl_la-warnless.o)
 .gnu.attributes
                0x00000000000005f0       0x10 /home/ql_xu/develop/trunk/uClinux-dist/user/curl-7.36.0/lib/.libs/libcurl.a(libcurl_la-conncache.o)
 .gnu.attributes
                0x0000000000000600       0x10 /home/ql_xu/develop/trunk/uClinux-dist/user/curl-7.36.0/lib/.libs/libcurl.a(libcurl_la-pipeline.o)
 .gnu.attributes
                0x0000000000000610       0x10 /home/ql_xu/develop/trunk/uClinux-dist/user/curl-7.36.0/lib/.libs/libcurl.a(libcurl_la-timeval.o)
 .gnu.attributes
                0x0000000000000620       0x10 /home/ql_xu/develop/trunk/uClinux-dist/user/curl-7.36.0/lib/.libs/libcurl.a(libcurl_la-hostip.o)
 .gnu.attributes
                0x0000000000000630       0x10 /home/ql_xu/develop/trunk/uClinux-dist/user/curl-7.36.0/lib/.libs/libcurl.a(libcurl_la-progress.o)
 .gnu.attributes
                0x0000000000000640       0x10 /home/ql_xu/develop/trunk/uClinux-dist/user/curl-7.36.0/lib/.libs/libcurl.a(libcurl_la-cookie.o)
 .gnu.attributes
                0x0000000000000650       0x10 /home/ql_xu/develop/trunk/uClinux-dist/user/curl-7.36.0/lib/.libs/libcurl.a(libcurl_la-http.o)
 .gnu.attributes
                0x0000000000000660       0x10 /home/ql_xu/develop/trunk/uClinux-dist/user/curl-7.36.0/lib/.libs/libcurl.a(libcurl_la-sendf.o)
 .gnu.attributes
                0x0000000000000670       0x10 /home/ql_xu/develop/trunk/uClinux-dist/user/curl-7.36.0/lib/.libs/libcurl.a(libcurl_la-url.o)
 .gnu.attributes
                0x0000000000000680       0x10 /home/ql_xu/develop/trunk/uClinux-dist/user/curl-7.36.0/lib/.libs/libcurl.a(libcurl_la-dict.o)
 .gnu.attributes
                0x0000000000000690       0x10 /home/ql_xu/develop/trunk/uClinux-dist/user/curl-7.36.0/lib/.libs/libcurl.a(libcurl_la-if2ip.o)
 .gnu.attributes
                0x00000000000006a0       0x10 /home/ql_xu/develop/trunk/uClinux-dist/user/curl-7.36.0/lib/.libs/libcurl.a(libcurl_la-speedcheck.o)
 .gnu.attributes
                0x00000000000006b0       0x10 /home/ql_xu/develop/trunk/uClinux-dist/user/curl-7.36.0/lib/.libs/libcurl.a(libcurl_la-getenv.o)
 .gnu.attributes
                0x00000000000006c0       0x10 /home/ql_xu/develop/trunk/uClinux-dist/user/curl-7.36.0/lib/.libs/libcurl.a(libcurl_la-telnet.o)
 .gnu.attributes
                0x00000000000006d0       0x10 /home/ql_xu/develop/trunk/uClinux-dist/user/curl-7.36.0/lib/.libs/libcurl.a(libcurl_la-netrc.o)
 .gnu.attributes
                0x00000000000006e0       0x10 /home/ql_xu/develop/trunk/uClinux-dist/user/curl-7.36.0/lib/.libs/libcurl.a(libcurl_la-getinfo.o)
 .gnu.attributes
                0x00000000000006f0       0x10 /home/ql_xu/develop/trunk/uClinux-dist/user/curl-7.36.0/lib/.libs/libcurl.a(libcurl_la-transfer.o)
 .gnu.attributes
                0x0000000000000700       0x10 /home/ql_xu/develop/trunk/uClinux-dist/user/curl-7.36.0/lib/.libs/libcurl.a(libcurl_la-strequal.o)
 .gnu.attributes
                0x0000000000000710       0x10 /home/ql_xu/develop/trunk/uClinux-dist/user/curl-7.36.0/lib/.libs/libcurl.a(libcurl_la-wildcard.o)
 .gnu.attributes
                0x0000000000000720       0x10 /home/ql_xu/develop/trunk/uClinux-dist/user/curl-7.36.0/lib/.libs/libcurl.a(libcurl_la-http_chunks.o)
 .gnu.attributes
                0x0000000000000730       0x10 /home/ql_xu/develop/trunk/uClinux-dist/user/curl-7.36.0/lib/.libs/libcurl.a(libcurl_la-llist.o)
 .gnu.attributes
                0x0000000000000740       0x10 /home/ql_xu/develop/trunk/uClinux-dist/user/curl-7.36.0/lib/.libs/libcurl.a(libcurl_la-hash.o)
 .gnu.attributes
                0x0000000000000750       0x10 /home/ql_xu/develop/trunk/uClinux-dist/user/curl-7.36.0/lib/.libs/libcurl.a(libcurl_la-share.o)
 .gnu.attributes
                0x0000000000000760       0x10 /home/ql_xu/develop/trunk/uClinux-dist/user/curl-7.36.0/lib/.libs/libcurl.a(libcurl_la-http_digest.o)
 .gnu.attributes
                0x0000000000000770       0x10 /home/ql_xu/develop/trunk/uClinux-dist/user/curl-7.36.0/lib/.libs/libcurl.a(libcurl_la-md5.o)
 .gnu.attributes
                0x0000000000000780       0x10 /home/ql_xu/develop/trunk/uClinux-dist/user/curl-7.36.0/lib/.libs/libcurl.a(libcurl_la-hostip4.o)
 .gnu.attributes
                0x0000000000000790       0x10 /home/ql_xu/develop/trunk/uClinux-dist/user/curl-7.36.0/lib/.libs/libcurl.a(libcurl_la-hostsyn.o)
 .gnu.attributes
                0x00000000000007a0       0x10 /home/ql_xu/develop/trunk/uClinux-dist/user/curl-7.36.0/lib/.libs/libcurl.a(libcurl_la-parsedate.o)
 .gnu.attributes
                0x00000000000007b0       0x10 /home/ql_xu/develop/trunk/uClinux-dist/user/curl-7.36.0/lib/.libs/libcurl.a(libcurl_la-tftp.o)
 .gnu.attributes
                0x00000000000007c0       0x10 /home/ql_xu/develop/trunk/uClinux-dist/user/curl-7.36.0/lib/.libs/libcurl.a(libcurl_la-socks.o)
 .gnu.attributes
                0x00000000000007d0       0x10 /home/ql_xu/develop/trunk/uClinux-dist/user/curl-7.36.0/lib/.libs/libcurl.a(libcurl_la-rawstr.o)
 .gnu.attributes
                0x00000000000007e0       0x10 /home/ql_xu/develop/trunk/uClinux-dist/user/curl-7.36.0/lib/.libs/libcurl.a(libcurl_la-curl_addrinfo.o)
 .gnu.attributes
                0x00000000000007f0       0x10 /home/ql_xu/develop/trunk/uClinux-dist/user/curl-7.36.0/lib/.libs/libcurl.a(libcurl_la-curl_memrchr.o)
 .gnu.attributes
                0x0000000000000800       0x10 /home/ql_xu/develop/trunk/uClinux-dist/user/curl-7.36.0/lib/.libs/libcurl.a(libcurl_la-imap.o)
 .gnu.attributes
                0x0000000000000810       0x10 /home/ql_xu/develop/trunk/uClinux-dist/user/curl-7.36.0/lib/.libs/libcurl.a(libcurl_la-pop3.o)
 .gnu.attributes
                0x0000000000000820       0x10 /home/ql_xu/develop/trunk/uClinux-dist/user/curl-7.36.0/lib/.libs/libcurl.a(libcurl_la-smtp.o)
 .gnu.attributes
                0x0000000000000830       0x10 /home/ql_xu/develop/trunk/uClinux-dist/user/curl-7.36.0/lib/.libs/libcurl.a(libcurl_la-pingpong.o)
 .gnu.attributes
                0x0000000000000840       0x10 /home/ql_xu/develop/trunk/uClinux-dist/user/curl-7.36.0/lib/.libs/libcurl.a(libcurl_la-rtsp.o)
 .gnu.attributes
                0x0000000000000850       0x10 /home/ql_xu/develop/trunk/uClinux-dist/user/curl-7.36.0/lib/.libs/libcurl.a(libcurl_la-curl_gethostname.o)
 .gnu.attributes
                0x0000000000000860       0x10 /home/ql_xu/develop/trunk/uClinux-dist/user/curl-7.36.0/lib/.libs/libcurl.a(libcurl_la-gopher.o)
 .gnu.attributes
                0x0000000000000870       0x10 /home/ql_xu/develop/trunk/uClinux-dist/user/curl-7.36.0/lib/.libs/libcurl.a(libcurl_la-http_proxy.o)
 .gnu.attributes
                0x0000000000000880       0x10 /home/ql_xu/develop/trunk/uClinux-dist/user/curl-7.36.0/lib/.libs/libcurl.a(libcurl_la-curl_sasl.o)
 .gnu.attributes
                0x0000000000000890       0x10 /home/ql_xu/develop/trunk/uClinux-dist/user/curl-7.36.0/lib/.libs/libcurl.a(libcurl_la-bundles.o)
 .gnu.attributes
                0x00000000000008a0       0x10 /home/ql_xu/develop/trunk/uClinux-dist/user/curl-7.36.0/lib/.libs/libcurl.a(libcurl_la-dotdot.o)
 .gnu.attributes
                0x00000000000008b0       0x10 /home/ql_xu/develop/trunk/uClinux-dist/user/curl-7.36.0/lib/.libs/libcurl.a(libcurl_la-vtls.o)
 .gnu.attributes
                0x00000000000008c0       0x10 /home/ql_xu/develop/trunk/uClinux-dist/user/curl-7.36.0/lib/.libs/libcurl.a(libcurl_la-file.o)
 .gnu.attributes
                0x00000000000008d0       0x10 /home/ql_xu/develop/trunk/uClinux-dist/user/curl-7.36.0/lib/.libs/libcurl.a(libcurl_la-base64.o)
 .gnu.attributes
                0x00000000000008e0       0x10 /home/ql_xu/develop/trunk/uClinux-dist/user/curl-7.36.0/lib/.libs/libcurl.a(libcurl_la-formdata.o)
 .gnu.attributes
                0x00000000000008f0       0x10 /home/ql_xu/develop/trunk/uClinux-dist/user/curl-7.36.0/lib/.libs/libcurl.a(libcurl_la-ftp.o)
 .gnu.attributes
                0x0000000000000900       0x10 /home/ql_xu/develop/trunk/uClinux-dist/user/curl-7.36.0/lib/.libs/libcurl.a(libcurl_la-fileinfo.o)
 .gnu.attributes
                0x0000000000000910       0x10 /home/ql_xu/develop/trunk/uClinux-dist/user/curl-7.36.0/lib/.libs/libcurl.a(libcurl_la-ftplistparser.o)
 .gnu.attributes
                0x0000000000000920       0x10 /home/ql_xu/develop/trunk/uClinux-dist/user/curl-7.36.0/lib/.libs/libcurl.a(libcurl_la-hmac.o)
 .gnu.attributes
                0x0000000000000930       0x10 /home/ql_xu/develop/trunk/uClinux-dist/user/curl-7.36.0/lib/.libs/libcurl.a(libcurl_la-curl_fnmatch.o)
 .gnu.attributes
                0x0000000000000940       0x10 /home/ql_xu/develop/trunk/uClinux-dist/lib/zlib/libz.a(deflate.o)
 .gnu.attributes
                0x0000000000000950       0x10 /home/ql_xu/develop/trunk/uClinux-dist/lib/zlib/libz.a(trees.o)
 .gnu.attributes
                0x0000000000000960       0x10 /home/ql_xu/develop/trunk/uClinux-dist/lib/zlib/libz.a(zutil.o)
 .gnu.attributes
                0x0000000000000970       0x10 /home/ql_xu/develop/trunk/uClinux-dist/lib/zlib/libz.a(inflate.o)
 .gnu.attributes
                0x0000000000000980       0x10 /home/ql_xu/develop/trunk/uClinux-dist/lib/zlib/libz.a(infblock.o)
 .gnu.attributes
                0x0000000000000990       0x10 /home/ql_xu/develop/trunk/uClinux-dist/lib/zlib/libz.a(inftrees.o)
 .gnu.attributes
                0x00000000000009a0       0x10 /home/ql_xu/develop/trunk/uClinux-dist/lib/zlib/libz.a(infcodes.o)
 .gnu.attributes
                0x00000000000009b0       0x10 /home/ql_xu/develop/trunk/uClinux-dist/lib/zlib/libz.a(infutil.o)
 .gnu.attributes
                0x00000000000009c0       0x10 /home/ql_xu/develop/trunk/uClinux-dist/lib/zlib/libz.a(inffast.o)
 .gnu.attributes
                0x00000000000009d0       0x10 /home/ql_xu/develop/trunk/uClinux-dist/lib/zlib/libz.a(adler32.o)
 .gnu.attributes
                0x00000000000009e0       0x10 /rsdk-4.4.7-5281-EB-2.6.30-0.9.33-m32utb-140606/bin/../lib/gcc/mips-linux-uclibc/4.4.7/5281/libgcc.a(_fixunssfsi.o)
 .gnu.attributes
                0x00000000000009f0       0x10 /rsdk-4.4.7-5281-EB-2.6.30-0.9.33-m32utb-140606/bin/../lib/gcc/mips-linux-uclibc/4.4.7/5281/libgcc.a(_fixunsdfsi.o)
 .gnu.attributes
                0x0000000000000a00       0x10 /rsdk-4.4.7-5281-EB-2.6.30-0.9.33-m32utb-140606/bin/../lib/gcc/mips-linux-uclibc/4.4.7/5281/libgcc.a(_fixdfdi.o)
 .gnu.attributes
                0x0000000000000a10       0x10 /rsdk-4.4.7-5281-EB-2.6.30-0.9.33-m32utb-140606/bin/../lib/gcc/mips-linux-uclibc/4.4.7/5281/libgcc.a(_fixunsdfdi.o)
 .gnu.attributes
                0x0000000000000a20       0x10 /rsdk-4.4.7-5281-EB-2.6.30-0.9.33-m32utb-140606/bin/../lib/gcc/mips-linux-uclibc/4.4.7/5281/libgcc.a(_floatdidf.o)
 .gnu.attributes
                0x0000000000000a30       0x10 /rsdk-4.4.7-5281-EB-2.6.30-0.9.33-m32utb-140606/bin/../lib/gcc/mips-linux-uclibc/4.4.7/5281/libgcc.a(_floatundisf.o)
 .gnu.attributes
                0x0000000000000a40       0x10 /rsdk-4.4.7-5281-EB-2.6.30-0.9.33-m32utb-140606/bin/../lib/gcc/mips-linux-uclibc/4.4.7/5281/libgcc.a(_floatundidf.o)
 .gnu.attributes
                0x0000000000000a50       0x10 /rsdk-4.4.7-5281-EB-2.6.30-0.9.33-m32utb-140606/bin/../lib/gcc/mips-linux-uclibc/4.4.7/5281/libgcc.a(_divdi3.o)
 .gnu.attributes
                0x0000000000000a60       0x10 /rsdk-4.4.7-5281-EB-2.6.30-0.9.33-m32utb-140606/bin/../lib/gcc/mips-linux-uclibc/4.4.7/5281/libgcc.a(_udivdi3.o)
 .gnu.attributes
                0x0000000000000a70       0x10 /rsdk-4.4.7-5281-EB-2.6.30-0.9.33-m32utb-140606/bin/../lib/gcc/mips-linux-uclibc/4.4.7/5281/libgcc.a(_umoddi3.o)
 .gnu.attributes
                0x0000000000000a80       0x10 /rsdk-4.4.7-5281-EB-2.6.30-0.9.33-m32utb-140606/bin/../lib/gcc/mips-linux-uclibc/4.4.7/5281/libgcc.a(addsf3.o)
 .gnu.attributes
                0x0000000000000a90       0x10 /rsdk-4.4.7-5281-EB-2.6.30-0.9.33-m32utb-140606/bin/../lib/gcc/mips-linux-uclibc/4.4.7/5281/libgcc.a(divsf3.o)
 .gnu.attributes
                0x0000000000000aa0       0x10 /rsdk-4.4.7-5281-EB-2.6.30-0.9.33-m32utb-140606/bin/../lib/gcc/mips-linux-uclibc/4.4.7/5281/libgcc.a(gesf2.o)
 .gnu.attributes
                0x0000000000000ab0       0x10 /rsdk-4.4.7-5281-EB-2.6.30-0.9.33-m32utb-140606/bin/../lib/gcc/mips-linux-uclibc/4.4.7/5281/libgcc.a(lesf2.o)
 .gnu.attributes
                0x0000000000000ac0       0x10 /rsdk-4.4.7-5281-EB-2.6.30-0.9.33-m32utb-140606/bin/../lib/gcc/mips-linux-uclibc/4.4.7/5281/libgcc.a(mulsf3.o)
 .gnu.attributes
                0x0000000000000ad0       0x10 /rsdk-4.4.7-5281-EB-2.6.30-0.9.33-m32utb-140606/bin/../lib/gcc/mips-linux-uclibc/4.4.7/5281/libgcc.a(subsf3.o)
 .gnu.attributes
                0x0000000000000ae0       0x10 /rsdk-4.4.7-5281-EB-2.6.30-0.9.33-m32utb-140606/bin/../lib/gcc/mips-linux-uclibc/4.4.7/5281/libgcc.a(fixsfsi.o)
 .gnu.attributes
                0x0000000000000af0       0x10 /rsdk-4.4.7-5281-EB-2.6.30-0.9.33-m32utb-140606/bin/../lib/gcc/mips-linux-uclibc/4.4.7/5281/libgcc.a(floatsisf.o)
 .gnu.attributes
                0x0000000000000b00       0x10 /rsdk-4.4.7-5281-EB-2.6.30-0.9.33-m32utb-140606/bin/../lib/gcc/mips-linux-uclibc/4.4.7/5281/libgcc.a(floatunsisf.o)
 .gnu.attributes
                0x0000000000000b10       0x10 /rsdk-4.4.7-5281-EB-2.6.30-0.9.33-m32utb-140606/bin/../lib/gcc/mips-linux-uclibc/4.4.7/5281/libgcc.a(adddf3.o)
 .gnu.attributes
                0x0000000000000b20       0x10 /rsdk-4.4.7-5281-EB-2.6.30-0.9.33-m32utb-140606/bin/../lib/gcc/mips-linux-uclibc/4.4.7/5281/libgcc.a(divdf3.o)
 .gnu.attributes
                0x0000000000000b30       0x10 /rsdk-4.4.7-5281-EB-2.6.30-0.9.33-m32utb-140606/bin/../lib/gcc/mips-linux-uclibc/4.4.7/5281/libgcc.a(gedf2.o)
 .gnu.attributes
                0x0000000000000b40       0x10 /rsdk-4.4.7-5281-EB-2.6.30-0.9.33-m32utb-140606/bin/../lib/gcc/mips-linux-uclibc/4.4.7/5281/libgcc.a(ledf2.o)
 .gnu.attributes
                0x0000000000000b50       0x10 /rsdk-4.4.7-5281-EB-2.6.30-0.9.33-m32utb-140606/bin/../lib/gcc/mips-linux-uclibc/4.4.7/5281/libgcc.a(muldf3.o)
 .gnu.attributes
                0x0000000000000b60       0x10 /rsdk-4.4.7-5281-EB-2.6.30-0.9.33-m32utb-140606/bin/../lib/gcc/mips-linux-uclibc/4.4.7/5281/libgcc.a(subdf3.o)
 .gnu.attributes
                0x0000000000000b70       0x10 /rsdk-4.4.7-5281-EB-2.6.30-0.9.33-m32utb-140606/bin/../lib/gcc/mips-linux-uclibc/4.4.7/5281/libgcc.a(fixdfsi.o)
 .gnu.attributes
                0x0000000000000b80       0x10 /rsdk-4.4.7-5281-EB-2.6.30-0.9.33-m32utb-140606/bin/../lib/gcc/mips-linux-uclibc/4.4.7/5281/libgcc.a(floatsidf.o)
 .gnu.attributes
                0x0000000000000b90       0x10 /rsdk-4.4.7-5281-EB-2.6.30-0.9.33-m32utb-140606/bin/../lib/gcc/mips-linux-uclibc/4.4.7/5281/libgcc.a(floatunsidf.o)
 .gnu.attributes
                0x0000000000000ba0       0x10 /rsdk-4.4.7-5281-EB-2.6.30-0.9.33-m32utb-140606/bin/../lib/gcc/mips-linux-uclibc/4.4.7/5281/libgcc.a(extendsfdf2.o)
 .gnu.attributes
                0x0000000000000bb0       0x10 /rsdk-4.4.7-5281-EB-2.6.30-0.9.33-m32utb-140606/bin/../lib/gcc/mips-linux-uclibc/4.4.7/5281/libgcc.a(truncdfsf2.o)
 .gnu.attributes
                0x0000000000000bc0       0x10 /rsdk-4.4.7-5281-EB-2.6.30-0.9.33-m32utb-140606/bin/../lib/gcc/mips-linux-uclibc/4.4.7/5281/libgcc.a(_clz.o)
 .gnu.attributes
                0x0000000000000bd0       0x10 /rsdk-4.4.7-5281-EB-2.6.30-0.9.33-m32utb-140606/bin/../lib/gcc/mips-linux-uclibc/4.4.7/5281/libgcc.a(_clzsi2.o)
 .gnu.attributes
                0x0000000000000be0       0x10 /rsdk-4.4.7-5281-EB-2.6.30-0.9.33-m32utb-140606/bin/../lib/gcc/mips-linux-uclibc/4.4.7/5281/crtend.o

.gptab.sdata
 *(.gptab.data)
 *(.gptab.sdata)

.gptab.sbss
 *(.gptab.bss)
 *(.gptab.sbss)

.mdebug.abi32   0x0000000000000000        0x0
 *(.mdebug.abi32)
 .mdebug.abi32  0x0000000000000000        0x0 /rsdk-4.4.7-5281-EB-2.6.30-0.9.33-m32utb-140606/bin/../lib/gcc/mips-linux-uclibc/4.4.7/../../../../mips-linux-uclibc/lib/crti.o
 .mdebug.abi32  0x0000000000000000        0x0 /rsdk-4.4.7-5281-EB-2.6.30-0.9.33-m32utb-140606/bin/../lib/gcc/mips-linux-uclibc/4.4.7/5281/crtbegin.o
 .mdebug.abi32  0x0000000000000000        0x0 cli.o
 .mdebug.abi32  0x0000000000000000        0x0 ../libtransmission/libtransmission.a(bencode.o)
 .mdebug.abi32  0x0000000000000000        0x0 ../libtransmission/libtransmission.a(ConvertUTF.o)
 .mdebug.abi32  0x0000000000000000        0x0 ../libtransmission/libtransmission.a(fdlimit.o)
 .mdebug.abi32  0x0000000000000000        0x0 ../libtransmission/libtransmission.a(json.o)
 .mdebug.abi32  0x0000000000000000        0x0 ../libtransmission/libtransmission.a(JSON_parser.o)
 .mdebug.abi32  0x0000000000000000        0x0 ../libtransmission/libtransmission.a(list.o)
 .mdebug.abi32  0x0000000000000000        0x0 ../libtransmission/libtransmission.a(net.o)
 .mdebug.abi32  0x0000000000000000        0x0 ../libtransmission/libtransmission.a(peer-io.o)
 .mdebug.abi32  0x0000000000000000        0x0 ../libtransmission/libtransmission.a(platform.o)
 .mdebug.abi32  0x0000000000000000        0x0 ../libtransmission/libtransmission.a(ptrarray.o)
 .mdebug.abi32  0x0000000000000000        0x0 ../libtransmission/libtransmission.a(session.o)
 .mdebug.abi32  0x0000000000000000        0x0 ../libtransmission/libtransmission.a(stats.o)
 .mdebug.abi32  0x0000000000000000        0x0 ../libtransmission/libtransmission.a(torrent.o)
 .mdebug.abi32  0x0000000000000000        0x0 ../libtransmission/libtransmission.a(torrent-ctor.o)
 .mdebug.abi32  0x0000000000000000        0x0 ../libtransmission/libtransmission.a(torrent-magnet.o)
 .mdebug.abi32  0x0000000000000000        0x0 ../libtransmission/libtransmission.a(tr-dht.o)
 .mdebug.abi32  0x0000000000000000        0x0 ../libtransmission/libtransmission.a(tr-lpd.o)
 .mdebug.abi32  0x0000000000000000        0x0 ../libtransmission/libtransmission.a(tr-udp.o)
 .mdebug.abi32  0x0000000000000000        0x0 ../libtransmission/libtransmission.a(tr-utp.o)
 .mdebug.abi32  0x0000000000000000        0x0 ../libtransmission/libtransmission.a(tr-getopt.o)
 .mdebug.abi32  0x0000000000000000        0x0 ../libtransmission/libtransmission.a(trevent.o)
 .mdebug.abi32  0x0000000000000000        0x0 ../libtransmission/libtransmission.a(utils.o)
 .mdebug.abi32  0x0000000000000000        0x0 ../libtransmission/libtransmission.a(verify.o)
 .mdebug.abi32  0x0000000000000000        0x0 ../libtransmission/libtransmission.a(web.o)
 .mdebug.abi32  0x0000000000000000        0x0 ../libtransmission/libtransmission.a(announcer.o)
 .mdebug.abi32  0x0000000000000000        0x0 ../libtransmission/libtransmission.a(announcer-http.o)
 .mdebug.abi32  0x0000000000000000        0x0 ../libtransmission/libtransmission.a(announcer-udp.o)
 .mdebug.abi32  0x0000000000000000        0x0 ../libtransmission/libtransmission.a(bandwidth.o)
 .mdebug.abi32  0x0000000000000000        0x0 ../libtransmission/libtransmission.a(bitfield.o)
 .mdebug.abi32  0x0000000000000000        0x0 ../libtransmission/libtransmission.a(blocklist.o)
 .mdebug.abi32  0x0000000000000000        0x0 ../libtransmission/libtransmission.a(cache.o)
 .mdebug.abi32  0x0000000000000000        0x0 ../libtransmission/libtransmission.a(completion.o)
 .mdebug.abi32  0x0000000000000000        0x0 ../libtransmission/libtransmission.a(crypto.o)
 .mdebug.abi32  0x0000000000000000        0x0 ../libtransmission/libtransmission.a(inout.o)
 .mdebug.abi32  0x0000000000000000        0x0 ../libtransmission/libtransmission.a(magnet.o)
 .mdebug.abi32  0x0000000000000000        0x0 ../libtransmission/libtransmission.a(metainfo.o)
 .mdebug.abi32  0x0000000000000000        0x0 ../libtransmission/libtransmission.a(peer-mgr.o)
 .mdebug.abi32  0x0000000000000000        0x0 ../libtransmission/libtransmission.a(peer-msgs.o)
 .mdebug.abi32  0x0000000000000000        0x0 ../libtransmission/libtransmission.a(port-forwarding.o)
 .mdebug.abi32  0x0000000000000000        0x0 ../libtransmission/libtransmission.a(resume.o)
 .mdebug.abi32  0x0000000000000000        0x0 ../libtransmission/libtransmission.a(rpc-server.o)
 .mdebug.abi32  0x0000000000000000        0x0 ../libtransmission/libtransmission.a(upnp.o)
 .mdebug.abi32  0x0000000000000000        0x0 ../libtransmission/libtransmission.a(webseed.o)
 .mdebug.abi32  0x0000000000000000        0x0 ../libtransmission/libtransmission.a(wildmat.o)
 .mdebug.abi32  0x0000000000000000        0x0 ../libtransmission/libtransmission.a(clients.o)
 .mdebug.abi32  0x0000000000000000        0x0 ../libtransmission/libtransmission.a(handshake.o)
 .mdebug.abi32  0x0000000000000000        0x0 ../libtransmission/libtransmission.a(history.o)
 .mdebug.abi32  0x0000000000000000        0x0 ../libtransmission/libtransmission.a(natpmp.o)
 .mdebug.abi32  0x0000000000000000        0x0 ../libtransmission/libtransmission.a(rpcimpl.o)
 .mdebug.abi32  0x0000000000000000        0x0 ../third-party/libnatpmp/libnatpmp.a(natpmp.o)
 .mdebug.abi32  0x0000000000000000        0x0 ../third-party/libnatpmp/libnatpmp.a(getgateway.o)
 .mdebug.abi32  0x0000000000000000        0x0 ../third-party/miniupnp/libminiupnp.a(miniupnpc.o)
 .mdebug.abi32  0x0000000000000000        0x0 ../third-party/miniupnp/libminiupnp.a(miniwget.o)
 .mdebug.abi32  0x0000000000000000        0x0 ../third-party/miniupnp/libminiupnp.a(minixml.o)
 .mdebug.abi32  0x0000000000000000        0x0 ../third-party/miniupnp/libminiupnp.a(receivedata.o)
 .mdebug.abi32  0x0000000000000000        0x0 ../third-party/miniupnp/libminiupnp.a(upnpcommands.o)
 .mdebug.abi32  0x0000000000000000        0x0 ../third-party/miniupnp/libminiupnp.a(upnpreplyparse.o)
 .mdebug.abi32  0x0000000000000000        0x0 ../third-party/miniupnp/libminiupnp.a(connecthostport.o)
 .mdebug.abi32  0x0000000000000000        0x0 ../third-party/miniupnp/libminiupnp.a(igd_desc_parse.o)
 .mdebug.abi32  0x0000000000000000        0x0 ../third-party/miniupnp/libminiupnp.a(minisoap.o)
 .mdebug.abi32  0x0000000000000000        0x0 ../third-party/miniupnp/libminiupnp.a(minissdpc.o)
 .mdebug.abi32  0x0000000000000000        0x0 ../third-party/miniupnp/libminiupnp.a(portlistingparse.o)
 .mdebug.abi32  0x0000000000000000        0x0 ../third-party/dht/libdht.a(dht.o)
 .mdebug.abi32  0x0000000000000000        0x0 ../third-party/libutp/libutp.a(utp.o)
 .mdebug.abi32  0x0000000000000000        0x0 ../third-party/libutp/libutp.a(utp_utils.o)
 .mdebug.abi32  0x0000000000000000        0x0 /home/ql_xu/develop/trunk/uClinux-dist/lib/libevent/.libs/libevent.a(event.o)
 .mdebug.abi32  0x0000000000000000        0x0 /home/ql_xu/develop/trunk/uClinux-dist/lib/libevent/.libs/libevent.a(evthread.o)
 .mdebug.abi32  0x0000000000000000        0x0 /home/ql_xu/develop/trunk/uClinux-dist/lib/libevent/.libs/libevent.a(buffer.o)
 .mdebug.abi32  0x0000000000000000        0x0 /home/ql_xu/develop/trunk/uClinux-dist/lib/libevent/.libs/libevent.a(bufferevent.o)
 .mdebug.abi32  0x0000000000000000        0x0 /home/ql_xu/develop/trunk/uClinux-dist/lib/libevent/.libs/libevent.a(bufferevent_ratelim.o)
 .mdebug.abi32  0x0000000000000000        0x0 /home/ql_xu/develop/trunk/uClinux-dist/lib/libevent/.libs/libevent.a(evmap.o)
 .mdebug.abi32  0x0000000000000000        0x0 /home/ql_xu/develop/trunk/uClinux-dist/lib/libevent/.libs/libevent.a(log.o)
 .mdebug.abi32  0x0000000000000000        0x0 /home/ql_xu/develop/trunk/uClinux-dist/lib/libevent/.libs/libevent.a(evutil.o)
 .mdebug.abi32  0x0000000000000000        0x0 /home/ql_xu/develop/trunk/uClinux-dist/lib/libevent/.libs/libevent.a(evutil_rand.o)
 .mdebug.abi32  0x0000000000000000        0x0 /home/ql_xu/develop/trunk/uClinux-dist/lib/libevent/.libs/libevent.a(select.o)
 .mdebug.abi32  0x0000000000000000        0x0 /home/ql_xu/develop/trunk/uClinux-dist/lib/libevent/.libs/libevent.a(poll.o)
 .mdebug.abi32  0x0000000000000000        0x0 /home/ql_xu/develop/trunk/uClinux-dist/lib/libevent/.libs/libevent.a(epoll.o)
 .mdebug.abi32  0x0000000000000000        0x0 /home/ql_xu/develop/trunk/uClinux-dist/lib/libevent/.libs/libevent.a(signal.o)
 .mdebug.abi32  0x0000000000000000        0x0 /home/ql_xu/develop/trunk/uClinux-dist/lib/libevent/.libs/libevent.a(http.o)
 .mdebug.abi32  0x0000000000000000        0x0 /home/ql_xu/develop/trunk/uClinux-dist/lib/libevent/.libs/libevent.a(evdns.o)
 .mdebug.abi32  0x0000000000000000        0x0 /home/ql_xu/develop/trunk/uClinux-dist/lib/libevent/.libs/libevent.a(bufferevent_sock.o)
 .mdebug.abi32  0x0000000000000000        0x0 /home/ql_xu/develop/trunk/uClinux-dist/lib/libevent/.libs/libevent.a(listener.o)
 .mdebug.abi32  0x0000000000000000        0x0 /home/ql_xu/develop/trunk/uClinux-dist/user/curl-7.36.0/lib/.libs/libcurl.a(libcurl_la-escape.o)
 .mdebug.abi32  0x0000000000000000        0x0 /home/ql_xu/develop/trunk/uClinux-dist/user/curl-7.36.0/lib/.libs/libcurl.a(libcurl_la-mprintf.o)
 .mdebug.abi32  0x0000000000000000        0x0 /home/ql_xu/develop/trunk/uClinux-dist/user/curl-7.36.0/lib/.libs/libcurl.a(libcurl_la-easy.o)
 .mdebug.abi32  0x0000000000000000        0x0 /home/ql_xu/develop/trunk/uClinux-dist/user/curl-7.36.0/lib/.libs/libcurl.a(libcurl_la-connect.o)
 .mdebug.abi32  0x0000000000000000        0x0 /home/ql_xu/develop/trunk/uClinux-dist/user/curl-7.36.0/lib/.libs/libcurl.a(libcurl_la-multi.o)
 .mdebug.abi32  0x0000000000000000        0x0 /home/ql_xu/develop/trunk/uClinux-dist/user/curl-7.36.0/lib/.libs/libcurl.a(libcurl_la-strerror.o)
 .mdebug.abi32  0x0000000000000000        0x0 /home/ql_xu/develop/trunk/uClinux-dist/user/curl-7.36.0/lib/.libs/libcurl.a(libcurl_la-select.o)
 .mdebug.abi32  0x0000000000000000        0x0 /home/ql_xu/develop/trunk/uClinux-dist/user/curl-7.36.0/lib/.libs/libcurl.a(libcurl_la-splay.o)
 .mdebug.abi32  0x0000000000000000        0x0 /home/ql_xu/develop/trunk/uClinux-dist/user/curl-7.36.0/lib/.libs/libcurl.a(libcurl_la-slist.o)
 .mdebug.abi32  0x0000000000000000        0x0 /home/ql_xu/develop/trunk/uClinux-dist/user/curl-7.36.0/lib/.libs/libcurl.a(libcurl_la-nonblock.o)
 .mdebug.abi32  0x0000000000000000        0x0 /home/ql_xu/develop/trunk/uClinux-dist/user/curl-7.36.0/lib/.libs/libcurl.a(libcurl_la-warnless.o)
 .mdebug.abi32  0x0000000000000000        0x0 /home/ql_xu/develop/trunk/uClinux-dist/user/curl-7.36.0/lib/.libs/libcurl.a(libcurl_la-conncache.o)
 .mdebug.abi32  0x0000000000000000        0x0 /home/ql_xu/develop/trunk/uClinux-dist/user/curl-7.36.0/lib/.libs/libcurl.a(libcurl_la-pipeline.o)
 .mdebug.abi32  0x0000000000000000        0x0 /home/ql_xu/develop/trunk/uClinux-dist/user/curl-7.36.0/lib/.libs/libcurl.a(libcurl_la-timeval.o)
 .mdebug.abi32  0x0000000000000000        0x0 /home/ql_xu/develop/trunk/uClinux-dist/user/curl-7.36.0/lib/.libs/libcurl.a(libcurl_la-hostip.o)
 .mdebug.abi32  0x0000000000000000        0x0 /home/ql_xu/develop/trunk/uClinux-dist/user/curl-7.36.0/lib/.libs/libcurl.a(libcurl_la-progress.o)
 .mdebug.abi32  0x0000000000000000        0x0 /home/ql_xu/develop/trunk/uClinux-dist/user/curl-7.36.0/lib/.libs/libcurl.a(libcurl_la-cookie.o)
 .mdebug.abi32  0x0000000000000000        0x0 /home/ql_xu/develop/trunk/uClinux-dist/user/curl-7.36.0/lib/.libs/libcurl.a(libcurl_la-http.o)
 .mdebug.abi32  0x0000000000000000        0x0 /home/ql_xu/develop/trunk/uClinux-dist/user/curl-7.36.0/lib/.libs/libcurl.a(libcurl_la-sendf.o)
 .mdebug.abi32  0x0000000000000000        0x0 /home/ql_xu/develop/trunk/uClinux-dist/user/curl-7.36.0/lib/.libs/libcurl.a(libcurl_la-url.o)
 .mdebug.abi32  0x0000000000000000        0x0 /home/ql_xu/develop/trunk/uClinux-dist/user/curl-7.36.0/lib/.libs/libcurl.a(libcurl_la-dict.o)
 .mdebug.abi32  0x0000000000000000        0x0 /home/ql_xu/develop/trunk/uClinux-dist/user/curl-7.36.0/lib/.libs/libcurl.a(libcurl_la-if2ip.o)
 .mdebug.abi32  0x0000000000000000        0x0 /home/ql_xu/develop/trunk/uClinux-dist/user/curl-7.36.0/lib/.libs/libcurl.a(libcurl_la-speedcheck.o)
 .mdebug.abi32  0x0000000000000000        0x0 /home/ql_xu/develop/trunk/uClinux-dist/user/curl-7.36.0/lib/.libs/libcurl.a(libcurl_la-getenv.o)
 .mdebug.abi32  0x0000000000000000        0x0 /home/ql_xu/develop/trunk/uClinux-dist/user/curl-7.36.0/lib/.libs/libcurl.a(libcurl_la-telnet.o)
 .mdebug.abi32  0x0000000000000000        0x0 /home/ql_xu/develop/trunk/uClinux-dist/user/curl-7.36.0/lib/.libs/libcurl.a(libcurl_la-netrc.o)
 .mdebug.abi32  0x0000000000000000        0x0 /home/ql_xu/develop/trunk/uClinux-dist/user/curl-7.36.0/lib/.libs/libcurl.a(libcurl_la-getinfo.o)
 .mdebug.abi32  0x0000000000000000        0x0 /home/ql_xu/develop/trunk/uClinux-dist/user/curl-7.36.0/lib/.libs/libcurl.a(libcurl_la-transfer.o)
 .mdebug.abi32  0x0000000000000000        0x0 /home/ql_xu/develop/trunk/uClinux-dist/user/curl-7.36.0/lib/.libs/libcurl.a(libcurl_la-strequal.o)
 .mdebug.abi32  0x0000000000000000        0x0 /home/ql_xu/develop/trunk/uClinux-dist/user/curl-7.36.0/lib/.libs/libcurl.a(libcurl_la-wildcard.o)
 .mdebug.abi32  0x0000000000000000        0x0 /home/ql_xu/develop/trunk/uClinux-dist/user/curl-7.36.0/lib/.libs/libcurl.a(libcurl_la-http_chunks.o)
 .mdebug.abi32  0x0000000000000000        0x0 /home/ql_xu/develop/trunk/uClinux-dist/user/curl-7.36.0/lib/.libs/libcurl.a(libcurl_la-llist.o)
 .mdebug.abi32  0x0000000000000000        0x0 /home/ql_xu/develop/trunk/uClinux-dist/user/curl-7.36.0/lib/.libs/libcurl.a(libcurl_la-hash.o)
 .mdebug.abi32  0x0000000000000000        0x0 /home/ql_xu/develop/trunk/uClinux-dist/user/curl-7.36.0/lib/.libs/libcurl.a(libcurl_la-share.o)
 .mdebug.abi32  0x0000000000000000        0x0 /home/ql_xu/develop/trunk/uClinux-dist/user/curl-7.36.0/lib/.libs/libcurl.a(libcurl_la-http_digest.o)
 .mdebug.abi32  0x0000000000000000        0x0 /home/ql_xu/develop/trunk/uClinux-dist/user/curl-7.36.0/lib/.libs/libcurl.a(libcurl_la-md5.o)
 .mdebug.abi32  0x0000000000000000        0x0 /home/ql_xu/develop/trunk/uClinux-dist/user/curl-7.36.0/lib/.libs/libcurl.a(libcurl_la-hostip4.o)
 .mdebug.abi32  0x0000000000000000        0x0 /home/ql_xu/develop/trunk/uClinux-dist/user/curl-7.36.0/lib/.libs/libcurl.a(libcurl_la-hostsyn.o)
 .mdebug.abi32  0x0000000000000000        0x0 /home/ql_xu/develop/trunk/uClinux-dist/user/curl-7.36.0/lib/.libs/libcurl.a(libcurl_la-parsedate.o)
 .mdebug.abi32  0x0000000000000000        0x0 /home/ql_xu/develop/trunk/uClinux-dist/user/curl-7.36.0/lib/.libs/libcurl.a(libcurl_la-tftp.o)
 .mdebug.abi32  0x0000000000000000        0x0 /home/ql_xu/develop/trunk/uClinux-dist/user/curl-7.36.0/lib/.libs/libcurl.a(libcurl_la-socks.o)
 .mdebug.abi32  0x0000000000000000        0x0 /home/ql_xu/develop/trunk/uClinux-dist/user/curl-7.36.0/lib/.libs/libcurl.a(libcurl_la-rawstr.o)
 .mdebug.abi32  0x0000000000000000        0x0 /home/ql_xu/develop/trunk/uClinux-dist/user/curl-7.36.0/lib/.libs/libcurl.a(libcurl_la-curl_addrinfo.o)
 .mdebug.abi32  0x0000000000000000        0x0 /home/ql_xu/develop/trunk/uClinux-dist/user/curl-7.36.0/lib/.libs/libcurl.a(libcurl_la-curl_memrchr.o)
 .mdebug.abi32  0x0000000000000000        0x0 /home/ql_xu/develop/trunk/uClinux-dist/user/curl-7.36.0/lib/.libs/libcurl.a(libcurl_la-imap.o)
 .mdebug.abi32  0x0000000000000000        0x0 /home/ql_xu/develop/trunk/uClinux-dist/user/curl-7.36.0/lib/.libs/libcurl.a(libcurl_la-pop3.o)
 .mdebug.abi32  0x0000000000000000        0x0 /home/ql_xu/develop/trunk/uClinux-dist/user/curl-7.36.0/lib/.libs/libcurl.a(libcurl_la-smtp.o)
 .mdebug.abi32  0x0000000000000000        0x0 /home/ql_xu/develop/trunk/uClinux-dist/user/curl-7.36.0/lib/.libs/libcurl.a(libcurl_la-pingpong.o)
 .mdebug.abi32  0x0000000000000000        0x0 /home/ql_xu/develop/trunk/uClinux-dist/user/curl-7.36.0/lib/.libs/libcurl.a(libcurl_la-rtsp.o)
 .mdebug.abi32  0x0000000000000000        0x0 /home/ql_xu/develop/trunk/uClinux-dist/user/curl-7.36.0/lib/.libs/libcurl.a(libcurl_la-curl_gethostname.o)
 .mdebug.abi32  0x0000000000000000        0x0 /home/ql_xu/develop/trunk/uClinux-dist/user/curl-7.36.0/lib/.libs/libcurl.a(libcurl_la-gopher.o)
 .mdebug.abi32  0x0000000000000000        0x0 /home/ql_xu/develop/trunk/uClinux-dist/user/curl-7.36.0/lib/.libs/libcurl.a(libcurl_la-http_proxy.o)
 .mdebug.abi32  0x0000000000000000        0x0 /home/ql_xu/develop/trunk/uClinux-dist/user/curl-7.36.0/lib/.libs/libcurl.a(libcurl_la-curl_sasl.o)
 .mdebug.abi32  0x0000000000000000        0x0 /home/ql_xu/develop/trunk/uClinux-dist/user/curl-7.36.0/lib/.libs/libcurl.a(libcurl_la-bundles.o)
 .mdebug.abi32  0x0000000000000000        0x0 /home/ql_xu/develop/trunk/uClinux-dist/user/curl-7.36.0/lib/.libs/libcurl.a(libcurl_la-dotdot.o)
 .mdebug.abi32  0x0000000000000000        0x0 /home/ql_xu/develop/trunk/uClinux-dist/user/curl-7.36.0/lib/.libs/libcurl.a(libcurl_la-vtls.o)
 .mdebug.abi32  0x0000000000000000        0x0 /home/ql_xu/develop/trunk/uClinux-dist/user/curl-7.36.0/lib/.libs/libcurl.a(libcurl_la-file.o)
 .mdebug.abi32  0x0000000000000000        0x0 /home/ql_xu/develop/trunk/uClinux-dist/user/curl-7.36.0/lib/.libs/libcurl.a(libcurl_la-base64.o)
 .mdebug.abi32  0x0000000000000000        0x0 /home/ql_xu/develop/trunk/uClinux-dist/user/curl-7.36.0/lib/.libs/libcurl.a(libcurl_la-formdata.o)
 .mdebug.abi32  0x0000000000000000        0x0 /home/ql_xu/develop/trunk/uClinux-dist/user/curl-7.36.0/lib/.libs/libcurl.a(libcurl_la-ftp.o)
 .mdebug.abi32  0x0000000000000000        0x0 /home/ql_xu/develop/trunk/uClinux-dist/user/curl-7.36.0/lib/.libs/libcurl.a(libcurl_la-fileinfo.o)
 .mdebug.abi32  0x0000000000000000        0x0 /home/ql_xu/develop/trunk/uClinux-dist/user/curl-7.36.0/lib/.libs/libcurl.a(libcurl_la-ftplistparser.o)
 .mdebug.abi32  0x0000000000000000        0x0 /home/ql_xu/develop/trunk/uClinux-dist/user/curl-7.36.0/lib/.libs/libcurl.a(libcurl_la-hmac.o)
 .mdebug.abi32  0x0000000000000000        0x0 /home/ql_xu/develop/trunk/uClinux-dist/user/curl-7.36.0/lib/.libs/libcurl.a(libcurl_la-curl_fnmatch.o)
 .mdebug.abi32  0x0000000000000000        0x0 /home/ql_xu/develop/trunk/uClinux-dist/lib/zlib/libz.a(deflate.o)
 .mdebug.abi32  0x0000000000000000        0x0 /home/ql_xu/develop/trunk/uClinux-dist/lib/zlib/libz.a(trees.o)
 .mdebug.abi32  0x0000000000000000        0x0 /home/ql_xu/develop/trunk/uClinux-dist/lib/zlib/libz.a(zutil.o)
 .mdebug.abi32  0x0000000000000000        0x0 /home/ql_xu/develop/trunk/uClinux-dist/lib/zlib/libz.a(inflate.o)
 .mdebug.abi32  0x0000000000000000        0x0 /home/ql_xu/develop/trunk/uClinux-dist/lib/zlib/libz.a(infblock.o)
 .mdebug.abi32  0x0000000000000000        0x0 /home/ql_xu/develop/trunk/uClinux-dist/lib/zlib/libz.a(inftrees.o)
 .mdebug.abi32  0x0000000000000000        0x0 /home/ql_xu/develop/trunk/uClinux-dist/lib/zlib/libz.a(infcodes.o)
 .mdebug.abi32  0x0000000000000000        0x0 /home/ql_xu/develop/trunk/uClinux-dist/lib/zlib/libz.a(infutil.o)
 .mdebug.abi32  0x0000000000000000        0x0 /home/ql_xu/develop/trunk/uClinux-dist/lib/zlib/libz.a(inffast.o)
 .mdebug.abi32  0x0000000000000000        0x0 /home/ql_xu/develop/trunk/uClinux-dist/lib/zlib/libz.a(adler32.o)
 .mdebug.abi32  0x0000000000000000        0x0 /rsdk-4.4.7-5281-EB-2.6.30-0.9.33-m32utb-140606/bin/../lib/gcc/mips-linux-uclibc/4.4.7/5281/libgcc.a(_fixunssfsi.o)
 .mdebug.abi32  0x0000000000000000        0x0 /rsdk-4.4.7-5281-EB-2.6.30-0.9.33-m32utb-140606/bin/../lib/gcc/mips-linux-uclibc/4.4.7/5281/libgcc.a(_fixunsdfsi.o)
 .mdebug.abi32  0x0000000000000000        0x0 /rsdk-4.4.7-5281-EB-2.6.30-0.9.33-m32utb-140606/bin/../lib/gcc/mips-linux-uclibc/4.4.7/5281/libgcc.a(_fixdfdi.o)
 .mdebug.abi32  0x0000000000000000        0x0 /rsdk-4.4.7-5281-EB-2.6.30-0.9.33-m32utb-140606/bin/../lib/gcc/mips-linux-uclibc/4.4.7/5281/libgcc.a(_fixunsdfdi.o)
 .mdebug.abi32  0x0000000000000000        0x0 /rsdk-4.4.7-5281-EB-2.6.30-0.9.33-m32utb-140606/bin/../lib/gcc/mips-linux-uclibc/4.4.7/5281/libgcc.a(_floatdidf.o)
 .mdebug.abi32  0x0000000000000000        0x0 /rsdk-4.4.7-5281-EB-2.6.30-0.9.33-m32utb-140606/bin/../lib/gcc/mips-linux-uclibc/4.4.7/5281/libgcc.a(_floatundisf.o)
 .mdebug.abi32  0x0000000000000000        0x0 /rsdk-4.4.7-5281-EB-2.6.30-0.9.33-m32utb-140606/bin/../lib/gcc/mips-linux-uclibc/4.4.7/5281/libgcc.a(_floatundidf.o)
 .mdebug.abi32  0x0000000000000000        0x0 /rsdk-4.4.7-5281-EB-2.6.30-0.9.33-m32utb-140606/bin/../lib/gcc/mips-linux-uclibc/4.4.7/5281/libgcc.a(_divdi3.o)
 .mdebug.abi32  0x0000000000000000        0x0 /rsdk-4.4.7-5281-EB-2.6.30-0.9.33-m32utb-140606/bin/../lib/gcc/mips-linux-uclibc/4.4.7/5281/libgcc.a(_udivdi3.o)
 .mdebug.abi32  0x0000000000000000        0x0 /rsdk-4.4.7-5281-EB-2.6.30-0.9.33-m32utb-140606/bin/../lib/gcc/mips-linux-uclibc/4.4.7/5281/libgcc.a(_umoddi3.o)
 .mdebug.abi32  0x0000000000000000        0x0 /rsdk-4.4.7-5281-EB-2.6.30-0.9.33-m32utb-140606/bin/../lib/gcc/mips-linux-uclibc/4.4.7/5281/libgcc.a(addsf3.o)
 .mdebug.abi32  0x0000000000000000        0x0 /rsdk-4.4.7-5281-EB-2.6.30-0.9.33-m32utb-140606/bin/../lib/gcc/mips-linux-uclibc/4.4.7/5281/libgcc.a(divsf3.o)
 .mdebug.abi32  0x0000000000000000        0x0 /rsdk-4.4.7-5281-EB-2.6.30-0.9.33-m32utb-140606/bin/../lib/gcc/mips-linux-uclibc/4.4.7/5281/libgcc.a(gesf2.o)
 .mdebug.abi32  0x0000000000000000        0x0 /rsdk-4.4.7-5281-EB-2.6.30-0.9.33-m32utb-140606/bin/../lib/gcc/mips-linux-uclibc/4.4.7/5281/libgcc.a(lesf2.o)
 .mdebug.abi32  0x0000000000000000        0x0 /rsdk-4.4.7-5281-EB-2.6.30-0.9.33-m32utb-140606/bin/../lib/gcc/mips-linux-uclibc/4.4.7/5281/libgcc.a(mulsf3.o)
 .mdebug.abi32  0x0000000000000000        0x0 /rsdk-4.4.7-5281-EB-2.6.30-0.9.33-m32utb-140606/bin/../lib/gcc/mips-linux-uclibc/4.4.7/5281/libgcc.a(subsf3.o)
 .mdebug.abi32  0x0000000000000000        0x0 /rsdk-4.4.7-5281-EB-2.6.30-0.9.33-m32utb-140606/bin/../lib/gcc/mips-linux-uclibc/4.4.7/5281/libgcc.a(fixsfsi.o)
 .mdebug.abi32  0x0000000000000000        0x0 /rsdk-4.4.7-5281-EB-2.6.30-0.9.33-m32utb-140606/bin/../lib/gcc/mips-linux-uclibc/4.4.7/5281/libgcc.a(floatsisf.o)
 .mdebug.abi32  0x0000000000000000        0x0 /rsdk-4.4.7-5281-EB-2.6.30-0.9.33-m32utb-140606/bin/../lib/gcc/mips-linux-uclibc/4.4.7/5281/libgcc.a(floatunsisf.o)
 .mdebug.abi32  0x0000000000000000        0x0 /rsdk-4.4.7-5281-EB-2.6.30-0.9.33-m32utb-140606/bin/../lib/gcc/mips-linux-uclibc/4.4.7/5281/libgcc.a(adddf3.o)
 .mdebug.abi32  0x0000000000000000        0x0 /rsdk-4.4.7-5281-EB-2.6.30-0.9.33-m32utb-140606/bin/../lib/gcc/mips-linux-uclibc/4.4.7/5281/libgcc.a(divdf3.o)
 .mdebug.abi32  0x0000000000000000        0x0 /rsdk-4.4.7-5281-EB-2.6.30-0.9.33-m32utb-140606/bin/../lib/gcc/mips-linux-uclibc/4.4.7/5281/libgcc.a(gedf2.o)
 .mdebug.abi32  0x0000000000000000        0x0 /rsdk-4.4.7-5281-EB-2.6.30-0.9.33-m32utb-140606/bin/../lib/gcc/mips-linux-uclibc/4.4.7/5281/libgcc.a(ledf2.o)
 .mdebug.abi32  0x0000000000000000        0x0 /rsdk-4.4.7-5281-EB-2.6.30-0.9.33-m32utb-140606/bin/../lib/gcc/mips-linux-uclibc/4.4.7/5281/libgcc.a(muldf3.o)
 .mdebug.abi32  0x0000000000000000        0x0 /rsdk-4.4.7-5281-EB-2.6.30-0.9.33-m32utb-140606/bin/../lib/gcc/mips-linux-uclibc/4.4.7/5281/libgcc.a(subdf3.o)
 .mdebug.abi32  0x0000000000000000        0x0 /rsdk-4.4.7-5281-EB-2.6.30-0.9.33-m32utb-140606/bin/../lib/gcc/mips-linux-uclibc/4.4.7/5281/libgcc.a(fixdfsi.o)
 .mdebug.abi32  0x0000000000000000        0x0 /rsdk-4.4.7-5281-EB-2.6.30-0.9.33-m32utb-140606/bin/../lib/gcc/mips-linux-uclibc/4.4.7/5281/libgcc.a(floatsidf.o)
 .mdebug.abi32  0x0000000000000000        0x0 /rsdk-4.4.7-5281-EB-2.6.30-0.9.33-m32utb-140606/bin/../lib/gcc/mips-linux-uclibc/4.4.7/5281/libgcc.a(floatunsidf.o)
 .mdebug.abi32  0x0000000000000000        0x0 /rsdk-4.4.7-5281-EB-2.6.30-0.9.33-m32utb-140606/bin/../lib/gcc/mips-linux-uclibc/4.4.7/5281/libgcc.a(extendsfdf2.o)
 .mdebug.abi32  0x0000000000000000        0x0 /rsdk-4.4.7-5281-EB-2.6.30-0.9.33-m32utb-140606/bin/../lib/gcc/mips-linux-uclibc/4.4.7/5281/libgcc.a(truncdfsf2.o)
 .mdebug.abi32  0x0000000000000000        0x0 /rsdk-4.4.7-5281-EB-2.6.30-0.9.33-m32utb-140606/bin/../lib/gcc/mips-linux-uclibc/4.4.7/5281/libgcc.a(_clz.o)
 .mdebug.abi32  0x0000000000000000        0x0 /rsdk-4.4.7-5281-EB-2.6.30-0.9.33-m32utb-140606/bin/../lib/gcc/mips-linux-uclibc/4.4.7/5281/libgcc.a(_clzsi2.o)
 .mdebug.abi32  0x0000000000000000        0x0 /rsdk-4.4.7-5281-EB-2.6.30-0.9.33-m32utb-140606/bin/../lib/gcc/mips-linux-uclibc/4.4.7/5281/crtend.o
 .mdebug.abi32  0x0000000000000000        0x0 /rsdk-4.4.7-5281-EB-2.6.30-0.9.33-m32utb-140606/bin/../lib/gcc/mips-linux-uclibc/4.4.7/../../../../mips-linux-uclibc/lib/crtn.o

.mdebug.abiN32
 *(.mdebug.abiN32)

.mdebug.abi64
 *(.mdebug.abi64)

.mdebug.abiO64
 *(.mdebug.abiO64)

.mdebug.eabi32
 *(.mdebug.eabi32)

.mdebug.eabi64
 *(.mdebug.eabi64)

.gcc_compiled_long32
 *(.gcc_compiled_long32)

.gcc_compiled_long64
 *(.gcc_compiled_long64)

/DISCARD/
 *(.note.GNU-stack)
 *(.gnu_debuglink)
 *(.gnu.lto_*)
OUTPUT(transmission-cli elf32-tradbigmips)
