
telnetd.gdb:     file format elf32-tradbigmips
telnetd.gdb
architecture: mips:3000, flags 0x00000112:
EXEC_P, HAS_SYMS, D_PAGED
start address 0x00400020

Program Header:
    LOAD off    0x00001000 vaddr 0x00000000 paddr 0x00000000 align 2**12
         filesz 0x00000000 memsz 0x00000000 flags r--
    LOAD off    0x00001000 vaddr 0x00400000 paddr 0x00400000 align 2**12
         filesz 0x0000e740 memsz 0x0000f8f8 flags rwx
private flags = 1005: [abi=O32] [mips1] [not 32bitmode]

Sections:
Idx Name          Size      VMA       LMA       File off  Algn
  0 .text         0000cb40  00400000  00400000  00001000  2**4
                  CONTENTS, ALLOC, LOAD, READONLY, CODE
  1 .data         00001c00  0040cb40  0040cb40  0000db40  2**4
                  CONTENTS, ALLOC, LOAD, DATA
  2 .bss          000011b8  0040e740  0040e740  0000f740  2**4
                  ALLOC
  3 .junk         00000000  00000000  00000000  00001000  2**4
                  CONTENTS, ALLOC, LOAD, READONLY, DATA
  4 .comment      000001d4  00000000  00000000  0000f740  2**0
                  CONTENTS, READONLY
  5 .debug_aranges 000001a0  00000000  00000000  0000f914  2**0
                  CONTENTS, READONLY, DEBUGGING
  6 .debug_pubnames 000001cb  00000000  00000000  0000fab4  2**0
                  CONTENTS, READONLY, DEBUGGING
  7 .debug_info   000058f4  00000000  00000000  0000fc7f  2**0
                  CONTENTS, READONLY, DEBUGGING
  8 .debug_abbrev 0000165c  00000000  00000000  00015573  2**0
                  CONTENTS, READONLY, DEBUGGING
  9 .debug_line   00000e89  00000000  00000000  00016bcf  2**0
                  CONTENTS, READONLY, DEBUGGING
 10 .debug_frame  000002a8  00000000  00000000  00017a58  2**2
                  CONTENTS, READONLY, DEBUGGING
 11 .debug_str    00000688  00000000  00000000  00017d00  2**0
                  CONTENTS, READONLY, DEBUGGING
 12 .pdr          000018e0  00000000  00000000  00018388  2**2
                  CONTENTS, READONLY
 13 .mdebug.abi32 00000000  00000000  00000000  00019c68  2**0
                  CONTENTS, READONLY
 14 .debug_ranges 00000090  00000000  00000000  00019c68  2**0
                  CONTENTS, READONLY, DEBUGGING
SYMBOL TABLE:
00400000 l    d  .text	00000000 
0040cb40 l    d  .data	00000000 
0040e740 l    d  .bss	00000000 
00000000 l    d  .junk	00000000 
00000000 l    d  .comment	00000000 
00000000 l    d  .debug_aranges	00000000 
00000000 l    d  .debug_pubnames	00000000 
00000000 l    d  .debug_info	00000000 
00000000 l    d  .debug_abbrev	00000000 
00000000 l    d  .debug_line	00000000 
00000000 l    d  .debug_frame	00000000 
00000000 l    d  .debug_str	00000000 
00000000 l    d  .pdr	00000000 
00000000 l    d  .mdebug.abi32	00000000 
00000000 l    d  .debug_ranges	00000000 
00000000 l    d  *ABS*	00000000 
00000000 l    d  *ABS*	00000000 
00000000 l    d  *ABS*	00000000 
00000000 l    df *ABS*	00000000 initfini.c
00000000 l    df *ABS*	00000000 crti.S
00000000 l    df *ABS*	00000000 <command line>
00000000 l    df *ABS*	00000000 <built-in>
00000000 l    df *ABS*	00000000 crti.S
00000000 l    df *ABS*	00000000 initfini.c
00000000 l    df *ABS*	00000000 crtn.S
00000000 l    df *ABS*	00000000 <command line>
00000000 l    df *ABS*	00000000 <built-in>
00000000 l    df *ABS*	00000000 crtn.S
00000000 l    df *ABS*	00000000 crt0.S
00000000 l    df *ABS*	00000000 crt0.S
00000000 l    df *ABS*	00000000 crt0.S
00000000 l    df *ABS*	00000000 <command line>
00000000 l    df *ABS*	00000000 <built-in>
00000000 l    df *ABS*	00000000 crt0.S
00000000 l    df *ABS*	00000000 telnetd.c
00400a34 l     F .text	00000000 doit
0040e240 l     O .data	00000006 ttytype_sbbuf
0040e248 l     O .data	00000006 sbbuf.0
0040e250 l     O .data	00000006 sbbuf.1
0040e258 l     O .data	00000006 sbbuf.2
00400330 l     F .text	00000000 getterminaltype
00400a24 l     F .text	00000000 terminaltypeok
00400944 l     F .text	00000000 _gettermname
00000000 l    df *ABS*	00000000 state.c
0040e29c l     O .data	00000005 doopt
0040e2a4 l     O .data	00000005 dont
0040e2c4 l     O .data	00000004 state.0
0040e780 l     O .bss	00000029 terminalname.1
0040330c l     F .text	00000000 envvarok
00000000 l    df *ABS*	00000000 termstat.c
00000000 l    df *ABS*	00000000 slc.c
00000000 l    df *ABS*	00000000 sys_term.c
0040e3a4 l     O .data	00000011 Xline
00403b34 l     F .text	00000000 getptyslave
00403dd8 l     F .text	00000000 cleanopen
00000000 l    df *ABS*	00000000 utility.c
0040e48c l     O .data	00000008 timeout.0
004045fc l     F .text	00000000 nextitem
00000000 l    df *ABS*	00000000 global.c
00000000 l    df *ABS*	00000000 authenc.c
00000000 l    df *ABS*	00000000 logwtmp.c
00000000 l    df *ABS*	00000000 logout.c
00000000 l    df *ABS*	00000000 ctype.c
00000000 l    df *ABS*	00000000 ctype.c
00000000 l    df *ABS*	00000000 __uClibc_main.c
00000000 l    df *ABS*	00000000 __errno_location.c
00000000 l    df *ABS*	00000000 stdio.c
00000000 l    df *ABS*	00000000 stdio.c
00000000 l    df *ABS*	00000000 printf.c
00000000 l    df *ABS*	00000000 printf.c
00000000 l    df *ABS*	00000000 printf.c
00000000 l    df *ABS*	00000000 printf.c
00000000 l    df *ABS*	00000000 printf.c
00000000 l    df *ABS*	00000000 wstring.c
00000000 l    df *ABS*	00000000 wstring.c
00000000 l    df *ABS*	00000000 wstring.c
00000000 l    df *ABS*	00000000 wstring.c
00000000 l    df *ABS*	00000000 wstring.c
00000000 l    df *ABS*	00000000 wstring.c
00000000 l    df *ABS*	00000000 wstring.c
00000000 l    df *ABS*	00000000 wstring.c
00000000 l    df *ABS*	00000000 wstring.c
00000000 l    df *ABS*	00000000 wstring.c
00000000 l    df *ABS*	00000000 wstring.c
00000000 l    df *ABS*	00000000 termios.c
00000000 l    df *ABS*	00000000 termios.c
00000000 l    df *ABS*	00000000 termios.c
00000000 l    df *ABS*	00000000 tcgetattr.c
00000000 l    df *ABS*	00000000 tcsetattr.c
00000000 l    df *ABS*	00000000 addr.c
00000000 l    df *ABS*	00000000 socketcalls.c
00000000 l    df *ABS*	00000000 socketcalls.c
00000000 l    df *ABS*	00000000 socketcalls.c
00000000 l    df *ABS*	00000000 socketcalls.c
00000000 l    df *ABS*	00000000 signal.c
00000000 l    df *ABS*	00000000 sigsetops.c
00000000 l    df *ABS*	00000000 stdlib.c
00000000 l    df *ABS*	00000000 stdlib.c
00000000 l    df *ABS*	00000000 stdlib.c
00000000 l    df *ABS*	00000000 atexit.c
00000000 l    df *ABS*	00000000 setenv.c
00000000 l    df *ABS*	00000000 malloc.c
00000000 l    df *ABS*	00000000 free.c
00000000 l    df *ABS*	00000000 realloc.c
00000000 l    df *ABS*	00000000 heap_alloc.c
00000000 l    df *ABS*	00000000 heap_alloc_at.c
00000000 l    df *ABS*	00000000 heap_free.c
00000000 l    df *ABS*	00000000 _exit.c
00000000 l    df *ABS*	00000000 syscalls.c
00000000 l    df *ABS*	00000000 syscalls.c
00000000 l    df *ABS*	00000000 syscalls.c
00000000 l    df *ABS*	00000000 syscalls.c
00000000 l    df *ABS*	00000000 syscalls.c
00000000 l    df *ABS*	00000000 syscalls.c
00000000 l    df *ABS*	00000000 syscalls.c
00000000 l    df *ABS*	00000000 syscalls.c
00000000 l    df *ABS*	00000000 _mmap.c
00000000 l    df *ABS*	00000000 syscalls.c
00000000 l    df *ABS*	00000000 syscalls.c
00000000 l    df *ABS*	00000000 syscalls.c
00000000 l    df *ABS*	00000000 syscalls.c
00000000 l    df *ABS*	00000000 fork.S
00000000 l    df *ABS*	00000000 fork.S
00000000 l    df *ABS*	00000000 fork.S
00000000 l    df *ABS*	00000000 fork.S
00000000 l    df *ABS*	00000000 fork.S
00000000 l    df *ABS*	00000000 fork.S
00000000 l    df *ABS*	00000000 <command line>
00000000 l    df *ABS*	00000000 <built-in>
00000000 l    df *ABS*	00000000 fork.S
00000000 l    df *ABS*	00000000 execlp.c
00000000 l    df *ABS*	00000000 execvep.c
00000000 l    df *ABS*	00000000 sleep.c
00000000 l    df *ABS*	00000000 ctype.c
00000000 l    df *ABS*	00000000 errno.c
00000000 l    df *ABS*	00000000 weaks.c
00000000 l    df *ABS*	00000000 stdio.c
00000000 l    df *ABS*	00000000 stdio.c
00000000 l    df *ABS*	00000000 stdio.c
00000000 l    df *ABS*	00000000 printf.c
00000000 l    df *ABS*	00000000 printf.c
00000000 l    df *ABS*	00000000 printf.c
00000000 l    df *ABS*	00000000 printf.c
00000000 l    df *ABS*	00000000 printf.c
00000000 l    df *ABS*	00000000 printf.c
00000000 l    df *ABS*	00000000 printf.c
00000000 l    df *ABS*	00000000 printf.c
00000000 l    df *ABS*	00000000 wstring.c
00000000 l    df *ABS*	00000000 wstring.c
00000000 l    df *ABS*	00000000 wstring.c
00000000 l    df *ABS*	00000000 wstring.c
00000000 l    df *ABS*	00000000 wstring.c
00000000 l    df *ABS*	00000000 wstring.c
00000000 l    df *ABS*	00000000 wstring.c
00000000 l    df *ABS*	00000000 wstring.c
00000000 l    df *ABS*	00000000 sigaction.c
00000000 l    df *ABS*	00000000 getenv.c
00000000 l    df *ABS*	00000000 syscalls.c
00000000 l    df *ABS*	00000000 syscalls.c
00000000 l    df *ABS*	00000000 syscalls.c
00000000 l    df *ABS*	00000000 stdio.c
00000000 l    df *ABS*	00000000 stdio.c
00000000 l    df *ABS*	00000000 stdio.c
00000000 l    df *ABS*	00000000 stdio.c
00000000 l    df *ABS*	00000000 stdio.c
00000000 l    df *ABS*	00000000 syscalls.c
00000000 l    df *ABS*	00000000 dp-bit.c
0040b3e0 l     F .text	00000000 _fpadd_parts
00000000 l    df *ABS*	00000000 dp-bit.c
0040b98c l     F .text	00000000 _fpmul_parts
00000000 l    df *ABS*	00000000 dp-bit.c
0040bdb8 l     F .text	00000000 _fpdiv_parts
00000000 l    df *ABS*	00000000 dp-bit.c
00000000 l    df *ABS*	00000000 dp-bit.c
00000000 l    df *ABS*	00000000 dp-bit.c
00000000 l    df *ABS*	00000000 dp-bit.c
00000000 l    df *ABS*	00000000 dp-bit.c
00000000 l    df *ABS*	00000000 dp-bit.c
00000000 l    df *ABS*	00000000 dp-bit.c
00000000 l    df *ABS*	00000000 dp-bit.c
00000000 l    df *ABS*	00000000 dp-bit.c
00000000 l    df *ABS*	00000000 dp-bit.c
00000000 l    df *ABS*	00000000 dp-bit.c
0040e744 g     O .bss	00000004 nbackp
0040a9c0 g     F .text	00000000 __libc_sigaction
0040e238 g     O .data	00000004 keepalive
0040a840 g     F .text	00000000 strcpy
00406ab8 g     F .text	00000000 unsetenv
004055a0  w    F .text	00000000 bcmp
0040bfa0 g     F .text	00000000 __eqdf2
00407a3c g     F .text	00000000 ioctl
004082f8  w    F .text	00000000 pthread_cond_signal
0040e2d0 g     O .data	0000003b termstat_rcsid
0040e740 g     O .bss	00000004 progname
0040e520 g     O .data	00000004 rcsid_logout
00405230 g     F .text	00000000 printf
0040e670 g     O .data	00000004 stdout
0040353c g     F .text	00000000 set_termbuf
00000000       O *UND*	00000000 _gp_disp
004082f8  w    F .text	00000000 pthread_mutexattr_gettype
004034c0 g     F .text	00000000 init_termbuf
004082f8  w    F .text	00000000 pthread_attr_destroy
00408694 g     F .text	00000000 _stdio_fwrite
0040e310 g     O .data	00000004 def_rspeed
004082f8  w    F .text	00000000 pthread_attr_getstacksize
004082f8  w    F .text	00000000 __pthread_once
0040e748 g     O .bss	00000004 neturg
00408320 g     F .text	00000000 __pthread_return_void
004082f8  w    F .text	00000000 pthread_rwlock_rdlock
004062c4 g     F .text	00000000 __sigdelset
00405760 g     F .text	00000000 strerror
0040e30c g     O .data	00000004 def_tspeed
0040a870 g     F .text	00000000 strndup
004082f8  w    F .text	00000000 pthread_attr_init
0040176c g     F .text	00000000 recv_ayt
00405620 g     F .text	00000000 memmove
004082f8  w    F .text	00000000 pthread_rwlock_init
004082c0  w    F .text	00000000 pthread_exit
00407c50 g     F .text	00000000 munmap
004089d0 g     F .text	00000000 _uintmaxtostr
00406310 g     F .text	00000000 atol
0040e6f4 g     O .data	00000004 _h_errno
0040f0b0 g     O .bss	00000100 do_dont_resp
004082f8  w    F .text	00000000 pthread_rwlockattr_setpshared
0040226c g     F .text	00000000 wontoption
004077a0  w    F .text	00000000 __write
0040e3bc g     O .data	00000088 termspeeds
00404270 g     F .text	00000000 netoprintf
004066e0 g     F .text	00000000 __add_to_environ
0040aad0 g     F .text	00000000 getenv
0040e6f0  w    O .data	00000004 errno
0040cb40 g       .text	00000000 _etext
0040e740 g       .bss	00000000 _sbss
0040e260 g     O .data	00000038 state_rcsid
00407480 g     F .text	00000000 __heap_alloc_at
0040cb40 g       .data	00000000 _gp
00404b90 g     F .text	00000000 logwtmp
00403f78 g     F .text	00000000 startslave
0040abb0 g     F .text	00000000 execve
0040eea0 g     O .bss	00000034 termbuf
004082f8  w    F .text	00000000 pthread_condattr_init
004082f8  w    F .text	00000000 pthread_attr_getstackaddr
00404674 g     F .text	00000000 netclear
00400228 g     F .text	00000000 usage
00407550 g     F .text	00000000 __heap_free
004055e0 g     F .text	00000000 memcpy
0040e394 g     O .data	0000000e wtmpf
0040e2c8 g     O .data	00000004 turn_on_sga
0040c2e0 g     F .text	00000000 __floatsidf
00404d70 g     F .text	00000000 perror
004082f8  w    F .text	00000000 pthread_mutexattr_destroy
0040e360 g     O .data	00000034 st_rcsid
0040c210 g     F .text	00000000 __ltdf2
0040b2a0 g     F .text	00000000 _stdio_lseek
0040830c  w    F .text	00000000 pthread_equal
004017dc g     F .text	00000000 doeof
00408b00 g     F .text	00000000 _ppfs_init
0040b1e0 g     F .text	00000000 _stdio_adjpos
0040ac40 g     F .text	00000000 __libc_nanosleep
00407a90 g     F .text	00000000 dup2
00404bd0 g     F .text	00000000 tolower
00406e00 g     F .text	00000000 malloc
004059a0 g     F .text	00000000 isatty
004082f8  w    F .text	00000000 pthread_attr_getscope
00408210 g     F .text	00000000 sleep
0040e190 g     O .data	00000057 copyright
0040e74c g     O .bss	00000004 terminaltype
0040a970  w    F .text	00000000 __strerror_r
004050e0 g     F .text	00000000 vsnprintf
0040e750 g     O .bss	00000004 nfrontp
004082f8  w    F .text	00000000 pthread_rwlock_destroy
0040e754 g     O .bss	00000004 net
0040e4a0 g     O .data	00000039 global_rcsid
00402578 g     F .text	00000000 dooption
0040ea20 g     O .bss	00000100 ptyibuf2
0040eee0 g     O .bss	00000034 termbuf2
00404e88 g     F .text	00000000 _cs_close
0040cb40 g       .data	00000000 _sdata
004082f8  w    F .text	00000000 pthread_rwlock_unlock
00407d50  w    F .text	00000000 select
00402898 g     F .text	00000000 dontoption
0040372c g     F .text	00000000 getpty
00408280 g     F .text	00000000 isspace
004082f8  w    F .text	00000000 pthread_attr_getinheritsched
0040c800 g     F .text	00000000 __unpack_d
0040e3b8 g     O .data	00000004 line
0040a750 g     F .text	00000000 mempcpy
00408340 g     F .text	00000000 fflush
00407710 g     F .text	00000000 __libc_read
0040e234 g     O .data	00000004 debug
0040d4a0 g     O .data	00000b76 _string_syserrmsgs
0040b744 g     F .text	00000000 __adddf3
00406d28 g     F .text	00000000 putenv
0040b350  w    F .text	00000000 lseek
0040e6e0 g     O .data	00000004 __malloc_heap
00406c50 g     F .text	00000000 clearenv
0040e530 g     O .data	00000004 __environ
004038c4 g     F .text	00000000 tty_binaryin
00407e10 g     F .text	00000000 chown
00407b80 g     F .text	00000000 mmap
0040a970 g     F .text	00000000 _glibc_strerror_r
00405570 g     F .text	00000000 bzero
00405f60  w    F .text	00000000 send
00403990 g     F .text	00000000 tty_issofttab
004082f8  w    F .text	00000000 pthread_attr_getschedpolicy
004027d0 g     F .text	00000000 send_wont
00407930 g     F .text	00000000 chmod
0040f1b0 g     O .bss	00000100 will_wont_resp
0040cae0 g     F .text	00000000 _init
0040e23c g     O .data	00000004 loginprg
004024b0 g     F .text	00000000 send_will
004082f8  w    F .text	00000000 pthread_attr_setstackaddr
00403ac8 g     F .text	00000000 tty_rspeed
00406360 g     F .text	00000000 strtol
00403a48 g     F .text	00000000 tty_iscrnl
0040a920 g     F .text	00000000 strnlen
004082f8  w    F .text	00000000 pthread_getschedparam
00405a80 g     F .text	00000000 cfsetispeed
0040f8f8 g       .bss	00000000 _ebss
00406288 g     F .text	00000000 __sigaddset
004082f8  w    F .text	00000000 pthread_setcancelstate
004016b4 g     F .text	00000000 sendbrk
004082f8  w    F .text	00000000 pthread_getcancelstate
0040e758 g     O .bss	00000004 flowmode
004043b4 g     F .text	00000000 stilloob
0040ac40  w    F .text	00000000 nanosleep
0040e6f4  w    O .data	00000004 h_errno
0040c3e0 g     F .text	00000000 __fixdfsi
0040e75c g     O .bss	00000004 SYNCHing
0040f2b0 g     O .bss	00000100 options
0040e6a0 g     O .data	00000004 __exit_cleanup
00404504 g     F .text	00000000 ptyflush
00401fb8 g     F .text	00000000 willoption
004082f8  w    F .text	00000000 pthread_condattr_destroy
004077a0  w    F .text	00000000 write
004082f8  w    F .text	00000000 pthread_attr_setscope
0040e4e0 g     O .data	0000003a authenc_rcsid
00407d50 g     F .text	00000000 _newselect
0040e530  w    O .data	00000004 environ
00401830 g     F .text	00000000 telrcv
00403e44 g     F .text	00000000 login_tty
0040eb20 g     O .bss	00000040 remote_host_name
004051e0 g     F .text	00000000 fprintf
0040ae1c g     F .text	00000000 fputs_unlocked
0040a7c0 g     F .text	00000000 strcat
004042c4 g     F .text	00000000 ttloop
0040e678 g     O .data	00000004 _stdio_openlist
0040f8a0 g     O .bss	00000028 _custom_printf_arginfo
0040eb60 g     O .bss	00000100 ptyibuf
004082f8  w    F .text	00000000 pthread_cond_broadcast
00403160 g     F .text	00000000 send_status
0040f8f8 g       .bss	00000000 end
0040e760 g     O .bss	00000004 pbackp
004082f8  w    F .text	00000000 pthread_attr_setinheritsched
00400020 g     F .text	00000000 __start
0040b040 g     F .text	00000000 fseeko
00406000 g     F .text	00000000 setsockopt
00406140 g     F .text	00000000 bsd_signal
0040b040 g     F .text	00000000 fseek
004082f8  w    F .text	00000000 pthread_setschedparam
004059f0 g     F .text	00000000 cfsetospeed
0040e764 g     O .bss	00000004 netip
0040e318 g     O .data	00000004 def_col
00404a90 g     F .text	00000000 fatal
00408320  w    F .text	00000000 __pthread_initialize_minimal
0040e66c g     O .data	00000004 stdin
004082f8  w    F .text	00000000 pthread_setconcurrency
0040e700 g     O .data	00000004 _custom_printf_spec
0040e768 g     O .bss	00000004 pty
00406140  w    F .text	00000000 signal
00407710  w    F .text	00000000 read
004082f8  w    F .text	00000000 pthread_attr_setstacksize
00404bb0 g     F .text	00000000 isupper
004056d0 g     F .text	00000000 strncmp
004082f8  w    F .text	00000000 pthread_rwlock_wrlock
004082f8  w    F .text	00000000 pthread_rwlockattr_getpshared
00405720 g     F .text	00000000 strncpy
00406a70 g     F .text	00000000 setenv
00407fb0 g     F .text	00000000 execvep
004071c0 g     F .text	00000000 realloc
004039ec g     F .text	00000000 tty_islitecho
0040c940 g     F .text	00000000 __fpcmp_parts_d
0040e6a4 g     O .data	00000018 mylock
00405f60 g     F .text	00000000 __libc_send
00400b20 g     F .text	00000000 telnet
0040e450 g     O .data	0000003a util_rcsid
004095e0 g     F .text	00000000 _charpad
004082f8  w    F .text	00000000 pthread_cond_init
00405520 g     F .text	00000000 bcopy
0040c4e0 g     F .text	00000000 __negdf2
004055a0 g     F .text	00000000 memcmp
004082f8  w    F .text	00000000 pthread_rwlockattr_init
0040e76c g     O .bss	00000004 linemode
00407ea0 g     F .text	00000028 fork
0040bd00 g     F .text	00000000 __divdf3
0040e1e8 g     O .data	00000041 telnetd_rcsid
00407ed0 g     F .text	00000000 execlp
0040a9c0  w    F .text	00000000 sigaction
0040b8d0 g     F .text	00000000 __muldf3
00409c90 g     F .text	00000000 _store_inttype
00404c00 g     F .text	00000000 __uClibc_main
0040f880 g     O .bss	00000018 __malloc_lock
004078c0 g     F .text	00000000 __libc_close
0040e298 g     O .data	00000004 not42
0040a800  w    F .text	00000000 index
0040f3b0 g     O .bss	00000028 clocks
00406250 g     F .text	00000000 __sigismember
0040e740 g       .bss	00000000 __bss_start
00407830 g     F .text	00000000 __libc_open
0040a790 g     F .text	00000000 memset
00400080 g     F .text	00000000 main
00404160 g     F .text	00000000 cleanup
0040ef18 g     O .bss	0000000c envinit
00403a0c g     F .text	00000000 tty_setlitecho
0040e2b4 g     O .data	00000005 wont
0040eca0 g     O .bss	00000200 subbuffer
00403974 g     F .text	00000000 tty_isbinaryout
00403888 g     F .text	00000000 tty_setecho
00401718 g     F .text	00000000 sendsusp
00405e7c g     F .text	00000000 inet_ntoa
004082f8  w    F .text	00000000 pthread_mutexattr_settype
004040ec g     F .text	00000000 init_env
00405b40 g     F .text	00000000 tcgetattr
0040e22c g     O .data	00000004 ptyip
0040219c g     F .text	00000000 send_dont
004035a4 g     F .text	00000000 spcset
0040e170 g     O .data	00000018 __thenan_df
004082f8  w    F .text	00000000 pthread_attr_getdetachstate
00404ecc g     F .text	00000000 __stdio_init_mutex
0040f3e0 g     O .bss	00000100 netibuf
004057c0 g     F .text	00000000 _susv3_strerror_r
004060c0 g     F .text	00000000 shutdown
004082f8  w    F .text	00000000 pthread_mutex_unlock
004039b0 g     F .text	00000000 tty_setsofttab
0040cb40 g       .data	00000000 data_start
00000000  w      *UND*	00000000 __h_errno_location
0040c070 g     F .text	00000000 __nedf2
0040cb0c g     F .text	00000000 _fini
00404ba0 g     F .text	00000000 logout
00401eb0 g     F .text	00000000 send_do
004052a0 g     F .text	00000000 sprintf
0040a750  w    F .text	00000000 __mempcpy
00000000  w      *UND*	00000000 atexit
004082f8  w    F .text	00000000 pthread_rwlockattr_destroy
004038f8 g     F .text	00000000 tty_binaryout
0040f4e0 g     O .bss	00000098 slctab
00405ed0 g     F .text	00000000 getpeername
00403430 g     F .text	00000000 get_slc_defaults
00404f1c g     F .text	00000000 _stdio_term
0040e674 g     O .data	00000004 stderr
00404e00 g     F .text	00000000 _cs_read
0040ef30 g     O .bss	00000180 wtmp
00407ea0 g     F .text	00000000 vfork
0040e770 g     O .bss	00000004 pfrontp
00408cc0 g     F .text	00000000 _ppfs_setargs
004082f8  w    F .text	00000000 pthread_rwlock_trywrlock
004082f8  w    F .text	00000000 pthread_rwlock_tryrdlock
0040484c g     F .text	00000000 netflush
00409d90 g     F .text	00000000 _dtostr
004082f8 g     F .text	00000000 __pthread_return_0
0040b350 g     F .text	00000000 __libc_lseek
00401650 g     F .text	00000000 interrupt
004082f8  w    F .text	00000000 pthread_self
004082f8  w    F .text	00000000 pthread_setcanceltype
004082f8  w    F .text	00000000 pthread_mutexattr_init
0040e230 g     O .data	00000004 hostinfo
00408424 g     F .text	00000000 fflush_unlocked
0040acc0 g     F .text	00000000 __rt_sigaction
0040af8c g     F .text	00000000 fwrite_unlocked
00407cd0 g     F .text	00000000 stat
00405dd0 g     F .text	00000000 inet_ntoa_r
0040aeb0 g     F .text	00000000 fwrite
00404b08 g     F .text	00000000 fatalperror
0040e740 g       .data	00000000 _edata
0040cb40 g     O .data	00000000 _GLOBAL_OFFSET_TABLE_
0040f8f8 g       .bss	00000000 _end
004082f8  w    F .text	00000000 pthread_mutex_destroy
0040f800 g     O .bss	00000080 _sigintr
00408c50 g     F .text	00000000 _ppfs_prepargs
00402aa4 g     F .text	00000000 suboption
0040830c g     F .text	00000000 __pthread_return_1
00404e44 g     F .text	00000000 _cs_write
004082f8  w    F .text	00000000 pthread_mutex_lock
004082f8  w    F .text	00000000 pthread_cond_wait
0040e2bc g     O .data	00000004 subpointer
0040e2ac g     O .data	00000005 will
00404d50  w    F .text	00000000 __errno_location
004063b0 g     F .text	00000000 _stdlib_strto_l
00406610 g     F .text	00000000 exit
00405038 g     F .text	00000000 _stdio_init
0040f580 g     O .bss	00000140 netobuf
004079b0 g     F .text	00000000 _ioctl
0040965c g     F .text	00000000 _do_one_spec
004073b0 g     F .text	00000000 __heap_alloc
004082f8  w    F .text	00000000 pthread_mutex_trylock
0040e67c g     O .data	00000018 _stdio_openlist_lock
0040e774 g     O .bss	00000004 pcc
0040e6f0 g     O .data	00000004 _errno
00406310 g     F .text	00000000 atoi
004082f8  w    F .text	00000000 pthread_cond_destroy
0040f8d0 g     O .bss	00000028 _custom_printf_handler
004082f8  w    F .text	00000000 pthread_attr_setschedpolicy
004076a0 g     F .text	00000000 _exit
004082f8  w    F .text	00000000 pthread_mutex_init
00400004 g       .text	00000000 _stext
004049e8 g     F .text	00000000 writenet
00405690 g     F .text	00000000 strlen
00407830  w    F .text	00000000 open
004077a0 g     F .text	00000000 __libc_write
0040c140 g     F .text	00000000 __gedf2
0040e2c0 g     O .data	00000004 subend
00408ffc g     F .text	00000000 _ppfs_parsespec
0040ec60 g     O .bss	00000040 host_name
0040e314 g     O .data	00000004 def_row
0040f6c0 g     O .bss	00000140 ptyobuf
0040a800 g     F .text	00000000 strchr
0040ad60 g     F .text	00000000 fputs
0040cb40 g       .data	00000000 __data_start
004082f8  w    F .text	00000000 pthread_attr_setschedparam
00403a5c g     F .text	00000000 tty_tspeed
00407b10 g     F .text	00000000 setsid
00403320 g     F .text	00000000 clientstat
0040b800 g     F .text	00000000 __subdf3
004082f8  w    F .text	00000000 pthread_attr_setdetachstate
004082f8  w    F .text	00000000 pthread_getconcurrency
004082f8  w    F .text	00000000 pthread_cond_timedwait
00405c10 g     F .text	00000000 tcsetattr
00403954 g     F .text	00000000 tty_isbinaryin
004040f4 g     F .text	00000000 start_login
004078c0  w    F .text	00000000 close
0040e320 g     O .data	00000036 slc_rcsid
004082f8  w    F .text	00000000 pthread_attr_getschedparam
0040e778 g     O .bss	00000004 ncc
0040c560 g     F .text	00000000 __pack_d
00405300 g     F .text	00000000 vfprintf
00409ce0 g     F .text	00000000 _load_inttype
00406fa0 g     F .text	00000000 free


Disassembly of section .text:

00400000 <_stext-0x4>:
  400000:	00000000 	nop

00400004 <_stext>:
_stext():
  400004:	b2000170 	0xb2000170
	...
  400018:	00007fff 	0x7fff
  40001c:	00000000 	nop

00400020 <__start>:
__start():
  400020:	04100001 	bltzal	zero,400028 <__start+0x8>
  400024:	00000000 	nop
  400028:	3c1c0001 	lui	gp,0x1
  40002c:	279ccb18 	addiu	gp,gp,-13544
  400030:	039fe021 	addu	gp,gp,ra
  400034:	0000f821 	move	ra,zero
  400038:	8fa40000 	lw	a0,0(sp)
  40003c:	27a50004 	addiu	a1,sp,4
  400040:	24860001 	addiu	a2,a0,1
  400044:	00063080 	sll	a2,a2,0x2
  400048:	00c53020 	add	a2,a2,a1
  40004c:	3c08ffff 	lui	t0,0xffff
  400050:	3508fff8 	ori	t0,t0,0xfff8
  400054:	03a8e824 	and	sp,sp,t0
  400058:	8f990190 	lw	t9,400(gp)
  40005c:	00000000 	nop
  400060:	0320f809 	jalr	t9
  400064:	00000000 	nop
  400068:	1000ffff 	b	400068 <__start+0x48>
  40006c:	00000000 	nop
  400070:	00400080 	0x400080
	...

00400080 <main>:
main():
  400080:	27bdffc0 	addiu	sp,sp,-64
  400084:	8f830054 	lw	v1,84(gp)
  400088:	8f840098 	lw	a0,152(gp)
  40008c:	8f820140 	lw	v0,320(gp)
  400090:	8f8100f4 	lw	at,244(gp)
  400094:	00000000 	nop
  400098:	ac230000 	sw	v1,0(at)
  40009c:	8f8101f4 	lw	at,500(gp)
  4000a0:	00000000 	nop
  4000a4:	ac220000 	sw	v0,0(at)
  4000a8:	8f8102e0 	lw	at,736(gp)
  4000ac:	00000000 	nop
  4000b0:	ac240000 	sw	a0,0(at)
  4000b4:	8f810204 	lw	at,516(gp)
  4000b8:	00000000 	nop
  4000bc:	ac230000 	sw	v1,0(at)
  4000c0:	8f8103a8 	lw	at,936(gp)
  4000c4:	00000000 	nop
  4000c8:	ac240000 	sw	a0,0(at)
  4000cc:	afbf0038 	sw	ra,56(sp)
  4000d0:	2402ffff 	li	v0,-1
  4000d4:	8ca70000 	lw	a3,0(a1)
  4000d8:	27a30018 	addiu	v1,sp,24
  4000dc:	afa20034 	sw	v0,52(sp)
  4000e0:	24020001 	li	v0,1
  4000e4:	00602821 	move	a1,v1
  4000e8:	afa20030 	sw	v0,48(sp)
  4000ec:	00002021 	move	a0,zero
  4000f0:	24020010 	li	v0,16
  4000f4:	27a6002c 	addiu	a2,sp,44
  4000f8:	8f810390 	lw	at,912(gp)
  4000fc:	00000000 	nop
  400100:	ac270000 	sw	a3,0(at)
  400104:	afa2002c 	sw	v0,44(sp)
  400108:	8f99010c 	lw	t9,268(gp)
  40010c:	00000000 	nop
  400110:	0320f809 	jalr	t9
  400114:	afa30028 	sw	v1,40(sp)
  400118:	8f850008 	lw	a1,8(gp)
  40011c:	00000000 	nop
  400120:	24a5cf1c 	addiu	a1,a1,-12516
  400124:	0440002d 	bltz	v0,4001dc <main+0x15c>
  400128:	00000000 	nop
  40012c:	8f8203a4 	lw	v0,932(gp)
  400130:	00000000 	nop
  400134:	8c420000 	lw	v0,0(v0)
  400138:	00002021 	move	a0,zero
  40013c:	3405ffff 	li	a1,0xffff
  400140:	24060008 	li	a2,8
  400144:	1440001e 	bnez	v0,4001c0 <main+0x140>
  400148:	27a70030 	addiu	a3,sp,48
  40014c:	8fa20034 	lw	v0,52(sp)
  400150:	00002021 	move	a0,zero
  400154:	00002821 	move	a1,zero
  400158:	24060001 	li	a2,1
  40015c:	04400015 	bltz	v0,4001b4 <main+0x134>
  400160:	27a70034 	addiu	a3,sp,52
  400164:	1440000d 	bnez	v0,40019c <main+0x11c>
  400168:	24020004 	li	v0,4
  40016c:	8f8102dc 	lw	at,732(gp)
  400170:	00000000 	nop
  400174:	ac200000 	sw	zero,0(at)
  400178:	8f99000c 	lw	t9,12(gp)
  40017c:	00000000 	nop
  400180:	27390a34 	addiu	t9,t9,2612
  400184:	0320f809 	jalr	t9
  400188:	27a40018 	addiu	a0,sp,24
  40018c:	8fbf0038 	lw	ra,56(sp)
  400190:	00001021 	move	v0,zero
  400194:	03e00008 	jr	ra
  400198:	27bd0040 	addiu	sp,sp,64
  40019c:	8f990200 	lw	t9,512(gp)
  4001a0:	00000000 	nop
  4001a4:	0320f809 	jalr	t9
  4001a8:	afa20010 	sw	v0,16(sp)
  4001ac:	1000ffef 	b	40016c <main+0xec>
  4001b0:	00000000 	nop
  4001b4:	24020010 	li	v0,16
  4001b8:	1000ffea 	b	400164 <main+0xe4>
  4001bc:	afa20034 	sw	v0,52(sp)
  4001c0:	24020004 	li	v0,4
  4001c4:	8f990200 	lw	t9,512(gp)
  4001c8:	00000000 	nop
  4001cc:	0320f809 	jalr	t9
  4001d0:	afa20010 	sw	v0,16(sp)
  4001d4:	1000ffdd 	b	40014c <main+0xcc>
  4001d8:	00000000 	nop
  4001dc:	8f840100 	lw	a0,256(gp)
  4001e0:	00000000 	nop
  4001e4:	8c840000 	lw	a0,0(a0)
  4001e8:	8f860390 	lw	a2,912(gp)
  4001ec:	00000000 	nop
  4001f0:	8cc60000 	lw	a2,0(a2)
  4001f4:	8f990224 	lw	t9,548(gp)
  4001f8:	00000000 	nop
  4001fc:	0320f809 	jalr	t9
  400200:	00000000 	nop
  400204:	8f840008 	lw	a0,8(gp)
  400208:	00000000 	nop
  40020c:	2484cf24 	addiu	a0,a0,-12508
  400210:	8f990314 	lw	t9,788(gp)
  400214:	00000000 	nop
  400218:	0320f809 	jalr	t9
  40021c:	00000000 	nop
  400220:	1000ffc2 	b	40012c <main+0xac>
  400224:	00000000 	nop

00400228 <usage>:
usage():
  400228:	8f840100 	lw	a0,256(gp)
  40022c:	00000000 	nop
  400230:	8c840000 	lw	a0,0(a0)
  400234:	27bdffe8 	addiu	sp,sp,-24
  400238:	8f850008 	lw	a1,8(gp)
  40023c:	00000000 	nop
  400240:	24a5cf30 	addiu	a1,a1,-12496
  400244:	afbf0010 	sw	ra,16(sp)
  400248:	8f990224 	lw	t9,548(gp)
  40024c:	00000000 	nop
  400250:	0320f809 	jalr	t9
  400254:	00000000 	nop
  400258:	8f840100 	lw	a0,256(gp)
  40025c:	00000000 	nop
  400260:	8c840000 	lw	a0,0(a0)
  400264:	8f850008 	lw	a1,8(gp)
  400268:	00000000 	nop
  40026c:	24a5cf40 	addiu	a1,a1,-12480
  400270:	8f990224 	lw	t9,548(gp)
  400274:	00000000 	nop
  400278:	0320f809 	jalr	t9
  40027c:	00000000 	nop
  400280:	8f840100 	lw	a0,256(gp)
  400284:	00000000 	nop
  400288:	8c840000 	lw	a0,0(a0)
  40028c:	8f850008 	lw	a1,8(gp)
  400290:	00000000 	nop
  400294:	24a5cf4c 	addiu	a1,a1,-12468
  400298:	8f990224 	lw	t9,548(gp)
  40029c:	00000000 	nop
  4002a0:	0320f809 	jalr	t9
  4002a4:	00000000 	nop
  4002a8:	8f840100 	lw	a0,256(gp)
  4002ac:	00000000 	nop
  4002b0:	8c840000 	lw	a0,0(a0)
  4002b4:	8f850008 	lw	a1,8(gp)
  4002b8:	00000000 	nop
  4002bc:	24a5cf54 	addiu	a1,a1,-12460
  4002c0:	8f990224 	lw	t9,548(gp)
  4002c4:	00000000 	nop
  4002c8:	0320f809 	jalr	t9
  4002cc:	00000000 	nop
  4002d0:	8f840100 	lw	a0,256(gp)
  4002d4:	00000000 	nop
  4002d8:	8c840000 	lw	a0,0(a0)
  4002dc:	8f850008 	lw	a1,8(gp)
  4002e0:	00000000 	nop
  4002e4:	24a5cf68 	addiu	a1,a1,-12440
  4002e8:	8f990224 	lw	t9,548(gp)
  4002ec:	00000000 	nop
  4002f0:	0320f809 	jalr	t9
  4002f4:	00000000 	nop
  4002f8:	8f840100 	lw	a0,256(gp)
  4002fc:	00000000 	nop
  400300:	8c840000 	lw	a0,0(a0)
  400304:	8f850008 	lw	a1,8(gp)
  400308:	00000000 	nop
  40030c:	24a5cf70 	addiu	a1,a1,-12432
  400310:	8f990224 	lw	t9,548(gp)
  400314:	00000000 	nop
  400318:	0320f809 	jalr	t9
  40031c:	00000000 	nop
  400320:	8f9900a0 	lw	t9,160(gp)
  400324:	00000000 	nop
  400328:	0320f809 	jalr	t9
  40032c:	24040001 	li	a0,1

00400330 <getterminaltype>:
getterminaltype():
  400330:	27bdfde0 	addiu	sp,sp,-544
  400334:	8f830184 	lw	v1,388(gp)
  400338:	00000000 	nop
  40033c:	24630020 	addiu	v1,v1,32
  400340:	afbf021c 	sw	ra,540(sp)
  400344:	afb20218 	sw	s2,536(sp)
  400348:	afb10214 	sw	s1,532(sp)
  40034c:	afb00210 	sw	s0,528(sp)
  400350:	8c62ffe0 	lw	v0,-32(v1)
  400354:	24040018 	li	a0,24
  400358:	24420001 	addiu	v0,v0,1
  40035c:	ac620000 	sw	v0,0(v1)
  400360:	ac62ffe0 	sw	v0,-32(v1)
  400364:	8f990120 	lw	t9,288(gp)
  400368:	00000000 	nop
  40036c:	0320f809 	jalr	t9
  400370:	24050001 	li	a1,1
  400374:	24040020 	li	a0,32
  400378:	8f990120 	lw	t9,288(gp)
  40037c:	00000000 	nop
  400380:	0320f809 	jalr	t9
  400384:	24050001 	li	a1,1
  400388:	24040023 	li	a0,35
  40038c:	8f990120 	lw	t9,288(gp)
  400390:	00000000 	nop
  400394:	0320f809 	jalr	t9
  400398:	24050001 	li	a1,1
  40039c:	24040027 	li	a0,39
  4003a0:	8f990120 	lw	t9,288(gp)
  4003a4:	00000000 	nop
  4003a8:	0320f809 	jalr	t9
  4003ac:	24050001 	li	a1,1
  4003b0:	8f820240 	lw	v0,576(gp)
  4003b4:	00000000 	nop
  4003b8:	80420018 	lb	v0,24(v0)
  4003bc:	00000000 	nop
  4003c0:	24420004 	addiu	v0,v0,4
  4003c4:	30420008 	andi	v0,v0,0x8
  4003c8:	1440001b 	bnez	v0,400438 <getterminaltype+0x108>
  4003cc:	00000000 	nop
  4003d0:	8f820240 	lw	v0,576(gp)
  4003d4:	00000000 	nop
  4003d8:	80420020 	lb	v0,32(v0)
  4003dc:	00000000 	nop
  4003e0:	24420004 	addiu	v0,v0,4
  4003e4:	30420008 	andi	v0,v0,0x8
  4003e8:	14400013 	bnez	v0,400438 <getterminaltype+0x108>
  4003ec:	00000000 	nop
  4003f0:	8f820240 	lw	v0,576(gp)
  4003f4:	00000000 	nop
  4003f8:	80420023 	lb	v0,35(v0)
  4003fc:	8f830240 	lw	v1,576(gp)
  400400:	00000000 	nop
  400404:	90630023 	lbu	v1,35(v1)
  400408:	24420004 	addiu	v0,v0,4
  40040c:	30420008 	andi	v0,v0,0x8
  400410:	14400009 	bnez	v0,400438 <getterminaltype+0x108>
  400414:	00000000 	nop
  400418:	8f820240 	lw	v0,576(gp)
  40041c:	00000000 	nop
  400420:	80420027 	lb	v0,39(v0)
  400424:	00000000 	nop
  400428:	24420004 	addiu	v0,v0,4
  40042c:	30420008 	andi	v0,v0,0x8
  400430:	10400007 	beqz	v0,400450 <getterminaltype+0x120>
  400434:	00000000 	nop
  400438:	8f990218 	lw	t9,536(gp)
  40043c:	00000000 	nop
  400440:	0320f809 	jalr	t9
  400444:	00000000 	nop
  400448:	1000ffd9 	b	4003b0 <getterminaltype+0x80>
  40044c:	00000000 	nop
  400450:	8f820240 	lw	v0,576(gp)
  400454:	00000000 	nop
  400458:	90420020 	lbu	v0,32(v0)
  40045c:	00000000 	nop
  400460:	30420004 	andi	v0,v0,0x4
  400464:	14400121 	bnez	v0,4008ec <getterminaltype+0x5bc>
  400468:	00000000 	nop
  40046c:	30620004 	andi	v0,v1,0x4
  400470:	1440010b 	bnez	v0,4008a0 <getterminaltype+0x570>
  400474:	00000000 	nop
  400478:	8f820240 	lw	v0,576(gp)
  40047c:	00000000 	nop
  400480:	90420027 	lbu	v0,39(v0)
  400484:	00000000 	nop
  400488:	30420004 	andi	v0,v0,0x4
  40048c:	144000f1 	bnez	v0,400854 <getterminaltype+0x524>
  400490:	00000000 	nop
  400494:	8f820240 	lw	v0,576(gp)
  400498:	00000000 	nop
  40049c:	90420018 	lbu	v0,24(v0)
  4004a0:	00000000 	nop
  4004a4:	30420004 	andi	v0,v0,0x4
  4004a8:	144000d7 	bnez	v0,400808 <getterminaltype+0x4d8>
  4004ac:	00000000 	nop
  4004b0:	8f820240 	lw	v0,576(gp)
  4004b4:	00000000 	nop
  4004b8:	90420020 	lbu	v0,32(v0)
  4004bc:	00000000 	nop
  4004c0:	30420004 	andi	v0,v0,0x4
  4004c4:	10400015 	beqz	v0,40051c <getterminaltype+0x1ec>
  4004c8:	00000000 	nop
  4004cc:	8f840184 	lw	a0,388(gp)
  4004d0:	00000000 	nop
  4004d4:	24840014 	addiu	a0,a0,20
  4004d8:	8c820000 	lw	v0,0(a0)
  4004dc:	8c83000c 	lw	v1,12(a0)
  4004e0:	00000000 	nop
  4004e4:	0043102a 	slt	v0,v0,v1
  4004e8:	1040000c 	beqz	v0,40051c <getterminaltype+0x1ec>
  4004ec:	00000000 	nop
  4004f0:	00808021 	move	s0,a0
  4004f4:	8f990218 	lw	t9,536(gp)
  4004f8:	00000000 	nop
  4004fc:	0320f809 	jalr	t9
  400500:	00000000 	nop
  400504:	8e020000 	lw	v0,0(s0)
  400508:	8e03000c 	lw	v1,12(s0)
  40050c:	00000000 	nop
  400510:	0043102a 	slt	v0,v0,v1
  400514:	1440fff7 	bnez	v0,4004f4 <getterminaltype+0x1c4>
  400518:	00000000 	nop
  40051c:	8f820240 	lw	v0,576(gp)
  400520:	00000000 	nop
  400524:	90420023 	lbu	v0,35(v0)
  400528:	00000000 	nop
  40052c:	30420004 	andi	v0,v0,0x4
  400530:	10400015 	beqz	v0,400588 <getterminaltype+0x258>
  400534:	00000000 	nop
  400538:	8f840184 	lw	a0,388(gp)
  40053c:	00000000 	nop
  400540:	2484001c 	addiu	a0,a0,28
  400544:	8c820000 	lw	v0,0(a0)
  400548:	8c830004 	lw	v1,4(a0)
  40054c:	00000000 	nop
  400550:	0043102a 	slt	v0,v0,v1
  400554:	1040000c 	beqz	v0,400588 <getterminaltype+0x258>
  400558:	00000000 	nop
  40055c:	00808021 	move	s0,a0
  400560:	8f990218 	lw	t9,536(gp)
  400564:	00000000 	nop
  400568:	0320f809 	jalr	t9
  40056c:	00000000 	nop
  400570:	8e020000 	lw	v0,0(s0)
  400574:	8e030004 	lw	v1,4(s0)
  400578:	00000000 	nop
  40057c:	0043102a 	slt	v0,v0,v1
  400580:	1440fff7 	bnez	v0,400560 <getterminaltype+0x230>
  400584:	00000000 	nop
  400588:	8f820240 	lw	v0,576(gp)
  40058c:	00000000 	nop
  400590:	90420027 	lbu	v0,39(v0)
  400594:	00000000 	nop
  400598:	30420004 	andi	v0,v0,0x4
  40059c:	10400015 	beqz	v0,4005f4 <getterminaltype+0x2c4>
  4005a0:	00000000 	nop
  4005a4:	8f840184 	lw	a0,388(gp)
  4005a8:	00000000 	nop
  4005ac:	24840018 	addiu	a0,a0,24
  4005b0:	8c820000 	lw	v0,0(a0)
  4005b4:	8c830008 	lw	v1,8(a0)
  4005b8:	00000000 	nop
  4005bc:	0043102a 	slt	v0,v0,v1
  4005c0:	1040000c 	beqz	v0,4005f4 <getterminaltype+0x2c4>
  4005c4:	00000000 	nop
  4005c8:	00808021 	move	s0,a0
  4005cc:	8f990218 	lw	t9,536(gp)
  4005d0:	00000000 	nop
  4005d4:	0320f809 	jalr	t9
  4005d8:	00000000 	nop
  4005dc:	8e020000 	lw	v0,0(s0)
  4005e0:	8e030008 	lw	v1,8(s0)
  4005e4:	00000000 	nop
  4005e8:	0043102a 	slt	v0,v0,v1
  4005ec:	1440fff7 	bnez	v0,4005cc <getterminaltype+0x29c>
  4005f0:	00000000 	nop
  4005f4:	8f820240 	lw	v0,576(gp)
  4005f8:	00000000 	nop
  4005fc:	90420018 	lbu	v0,24(v0)
  400600:	00000000 	nop
  400604:	30420004 	andi	v0,v0,0x4
  400608:	1040001c 	beqz	v0,40067c <getterminaltype+0x34c>
  40060c:	00000000 	nop
  400610:	8f840184 	lw	a0,388(gp)
  400614:	00000000 	nop
  400618:	24840010 	addiu	a0,a0,16
  40061c:	8c820000 	lw	v0,0(a0)
  400620:	8c830010 	lw	v1,16(a0)
  400624:	00000000 	nop
  400628:	0043102a 	slt	v0,v0,v1
  40062c:	1040000c 	beqz	v0,400660 <getterminaltype+0x330>
  400630:	00000000 	nop
  400634:	00808021 	move	s0,a0
  400638:	8f990218 	lw	t9,536(gp)
  40063c:	00000000 	nop
  400640:	0320f809 	jalr	t9
  400644:	00000000 	nop
  400648:	8e020000 	lw	v0,0(s0)
  40064c:	8e030010 	lw	v1,16(s0)
  400650:	00000000 	nop
  400654:	0043102a 	slt	v0,v0,v1
  400658:	1440fff7 	bnez	v0,400638 <getterminaltype+0x308>
  40065c:	00000000 	nop
  400660:	8f820240 	lw	v0,576(gp)
  400664:	00000000 	nop
  400668:	90420018 	lbu	v0,24(v0)
  40066c:	00000000 	nop
  400670:	30420004 	andi	v0,v0,0x4
  400674:	14400008 	bnez	v0,400698 <getterminaltype+0x368>
  400678:	00000000 	nop
  40067c:	8fbf021c 	lw	ra,540(sp)
  400680:	8fb20218 	lw	s2,536(sp)
  400684:	8fb10214 	lw	s1,532(sp)
  400688:	8fb00210 	lw	s0,528(sp)
  40068c:	2402ffff 	li	v0,-1
  400690:	03e00008 	jr	ra
  400694:	27bd0220 	addiu	sp,sp,544
  400698:	8f8402e8 	lw	a0,744(gp)
  40069c:	00000000 	nop
  4006a0:	8c840000 	lw	a0,0(a0)
  4006a4:	8f99000c 	lw	t9,12(gp)
  4006a8:	00000000 	nop
  4006ac:	27390a24 	addiu	t9,t9,2596
  4006b0:	0320f809 	jalr	t9
  4006b4:	00000000 	nop
  4006b8:	1440fff0 	bnez	v0,40067c <getterminaltype+0x34c>
  4006bc:	27a40010 	addiu	a0,sp,16
  4006c0:	8f8502e8 	lw	a1,744(gp)
  4006c4:	00000000 	nop
  4006c8:	8ca50000 	lw	a1,0(a1)
  4006cc:	8f9901d0 	lw	t9,464(gp)
  4006d0:	00000000 	nop
  4006d4:	0320f809 	jalr	t9
  4006d8:	24060100 	li	a2,256
  4006dc:	8f9102e8 	lw	s1,744(gp)
  4006e0:	00000000 	nop
  4006e4:	8e310000 	lw	s1,0(s1)
  4006e8:	27b20110 	addiu	s2,sp,272
  4006ec:	24060100 	li	a2,256
  4006f0:	02202821 	move	a1,s1
  4006f4:	8f9901d0 	lw	t9,464(gp)
  4006f8:	00000000 	nop
  4006fc:	0320f809 	jalr	t9
  400700:	02402021 	move	a0,s2
  400704:	8f99000c 	lw	t9,12(gp)
  400708:	00000000 	nop
  40070c:	27390944 	addiu	t9,t9,2372
  400710:	0320f809 	jalr	t9
  400714:	00000000 	nop
  400718:	8f8402e8 	lw	a0,744(gp)
  40071c:	00000000 	nop
  400720:	8c840000 	lw	a0,0(a0)
  400724:	8f99000c 	lw	t9,12(gp)
  400728:	00000000 	nop
  40072c:	27390a24 	addiu	t9,t9,2596
  400730:	0320f809 	jalr	t9
  400734:	00000000 	nop
  400738:	02402021 	move	a0,s2
  40073c:	1440ffcf 	bnez	v0,40067c <getterminaltype+0x34c>
  400740:	24060100 	li	a2,256
  400744:	8f9002e8 	lw	s0,744(gp)
  400748:	00000000 	nop
  40074c:	8e100000 	lw	s0,0(s0)
  400750:	00000000 	nop
  400754:	02002821 	move	a1,s0
  400758:	8f9901d4 	lw	t9,468(gp)
  40075c:	00000000 	nop
  400760:	0320f809 	jalr	t9
  400764:	02008821 	move	s1,s0
  400768:	10400009 	beqz	v0,400790 <getterminaltype+0x460>
  40076c:	02002821 	move	a1,s0
  400770:	8f820240 	lw	v0,576(gp)
  400774:	00000000 	nop
  400778:	90420018 	lbu	v0,24(v0)
  40077c:	00000000 	nop
  400780:	30420004 	andi	v0,v0,0x4
  400784:	1440ffda 	bnez	v0,4006f0 <getterminaltype+0x3c0>
  400788:	24060100 	li	a2,256
  40078c:	02002821 	move	a1,s0
  400790:	27a40010 	addiu	a0,sp,16
  400794:	8f9901d4 	lw	t9,468(gp)
  400798:	00000000 	nop
  40079c:	0320f809 	jalr	t9
  4007a0:	24060100 	li	a2,256
  4007a4:	1040ffb5 	beqz	v0,40067c <getterminaltype+0x34c>
  4007a8:	00000000 	nop
  4007ac:	8f99000c 	lw	t9,12(gp)
  4007b0:	00000000 	nop
  4007b4:	27390944 	addiu	t9,t9,2372
  4007b8:	0320f809 	jalr	t9
  4007bc:	00000000 	nop
  4007c0:	8f9002e8 	lw	s0,744(gp)
  4007c4:	00000000 	nop
  4007c8:	8e100000 	lw	s0,0(s0)
  4007cc:	27a40010 	addiu	a0,sp,16
  4007d0:	02002821 	move	a1,s0
  4007d4:	8f9901d4 	lw	t9,468(gp)
  4007d8:	00000000 	nop
  4007dc:	0320f809 	jalr	t9
  4007e0:	24060100 	li	a2,256
  4007e4:	1040ffa5 	beqz	v0,40067c <getterminaltype+0x34c>
  4007e8:	02002021 	move	a0,s0
  4007ec:	27a50010 	addiu	a1,sp,16
  4007f0:	8f9901d0 	lw	t9,464(gp)
  4007f4:	00000000 	nop
  4007f8:	0320f809 	jalr	t9
  4007fc:	24060100 	li	a2,256
  400800:	1000ff9e 	b	40067c <getterminaltype+0x34c>
  400804:	00000000 	nop
  400808:	8f8502e0 	lw	a1,736(gp)
  40080c:	00000000 	nop
  400810:	8ca50000 	lw	a1,0(a1)
  400814:	8f840008 	lw	a0,8(gp)
  400818:	00000000 	nop
  40081c:	2484e240 	addiu	a0,a0,-7616
  400820:	8f9901b0 	lw	t9,432(gp)
  400824:	00000000 	nop
  400828:	0320f809 	jalr	t9
  40082c:	24060006 	li	a2,6
  400830:	8f8202e0 	lw	v0,736(gp)
  400834:	00000000 	nop
  400838:	8c420000 	lw	v0,0(v0)
  40083c:	00000000 	nop
  400840:	24420006 	addiu	v0,v0,6
  400844:	8f8102e0 	lw	at,736(gp)
  400848:	00000000 	nop
  40084c:	1000ff18 	b	4004b0 <getterminaltype+0x180>
  400850:	ac220000 	sw	v0,0(at)
  400854:	8f8502e0 	lw	a1,736(gp)
  400858:	00000000 	nop
  40085c:	8ca50000 	lw	a1,0(a1)
  400860:	8f840008 	lw	a0,8(gp)
  400864:	00000000 	nop
  400868:	2484e258 	addiu	a0,a0,-7592
  40086c:	8f9901b0 	lw	t9,432(gp)
  400870:	00000000 	nop
  400874:	0320f809 	jalr	t9
  400878:	24060006 	li	a2,6
  40087c:	8f8202e0 	lw	v0,736(gp)
  400880:	00000000 	nop
  400884:	8c420000 	lw	v0,0(v0)
  400888:	00000000 	nop
  40088c:	24420006 	addiu	v0,v0,6
  400890:	8f8102e0 	lw	at,736(gp)
  400894:	00000000 	nop
  400898:	1000fefe 	b	400494 <getterminaltype+0x164>
  40089c:	ac220000 	sw	v0,0(at)
  4008a0:	8f8502e0 	lw	a1,736(gp)
  4008a4:	00000000 	nop
  4008a8:	8ca50000 	lw	a1,0(a1)
  4008ac:	8f840008 	lw	a0,8(gp)
  4008b0:	00000000 	nop
  4008b4:	2484e250 	addiu	a0,a0,-7600
  4008b8:	8f9901b0 	lw	t9,432(gp)
  4008bc:	00000000 	nop
  4008c0:	0320f809 	jalr	t9
  4008c4:	24060006 	li	a2,6
  4008c8:	8f8202e0 	lw	v0,736(gp)
  4008cc:	00000000 	nop
  4008d0:	8c420000 	lw	v0,0(v0)
  4008d4:	00000000 	nop
  4008d8:	24420006 	addiu	v0,v0,6
  4008dc:	8f8102e0 	lw	at,736(gp)
  4008e0:	00000000 	nop
  4008e4:	1000fee4 	b	400478 <getterminaltype+0x148>
  4008e8:	ac220000 	sw	v0,0(at)
  4008ec:	8f8502e0 	lw	a1,736(gp)
  4008f0:	00000000 	nop
  4008f4:	8ca50000 	lw	a1,0(a1)
  4008f8:	8f840008 	lw	a0,8(gp)
  4008fc:	00000000 	nop
  400900:	2484e248 	addiu	a0,a0,-7608
  400904:	8f9901b0 	lw	t9,432(gp)
  400908:	00000000 	nop
  40090c:	0320f809 	jalr	t9
  400910:	24060006 	li	a2,6
  400914:	8f8202e0 	lw	v0,736(gp)
  400918:	00000000 	nop
  40091c:	8c420000 	lw	v0,0(v0)
  400920:	8f830240 	lw	v1,576(gp)
  400924:	00000000 	nop
  400928:	90630023 	lbu	v1,35(v1)
  40092c:	24420006 	addiu	v0,v0,6
  400930:	8f8102e0 	lw	at,736(gp)
  400934:	00000000 	nop
  400938:	ac220000 	sw	v0,0(at)
  40093c:	1000fecc 	b	400470 <getterminaltype+0x140>
  400940:	30620004 	andi	v0,v1,0x4

00400944 <_gettermname>:
_gettermname():
  400944:	8f820240 	lw	v0,576(gp)
  400948:	00000000 	nop
  40094c:	90420018 	lbu	v0,24(v0)
  400950:	27bdffe0 	addiu	sp,sp,-32
  400954:	30420004 	andi	v0,v0,0x4
  400958:	afbf0018 	sw	ra,24(sp)
  40095c:	afb10014 	sw	s1,20(sp)
  400960:	14400006 	bnez	v0,40097c <_gettermname+0x38>
  400964:	afb00010 	sw	s0,16(sp)
  400968:	8fbf0018 	lw	ra,24(sp)
  40096c:	8fb10014 	lw	s1,20(sp)
  400970:	8fb00010 	lw	s0,16(sp)
  400974:	03e00008 	jr	ra
  400978:	27bd0020 	addiu	sp,sp,32
  40097c:	8f900184 	lw	s0,388(gp)
  400980:	00000000 	nop
  400984:	26100020 	addiu	s0,s0,32
  400988:	8e02ffe0 	lw	v0,-32(s0)
  40098c:	8f8502e0 	lw	a1,736(gp)
  400990:	00000000 	nop
  400994:	8ca50000 	lw	a1,0(a1)
  400998:	24420001 	addiu	v0,v0,1
  40099c:	8f840008 	lw	a0,8(gp)
  4009a0:	00000000 	nop
  4009a4:	2484e240 	addiu	a0,a0,-7616
  4009a8:	ae020000 	sw	v0,0(s0)
  4009ac:	ae02ffe0 	sw	v0,-32(s0)
  4009b0:	2611ffe0 	addiu	s1,s0,-32
  4009b4:	8f9901b0 	lw	t9,432(gp)
  4009b8:	00000000 	nop
  4009bc:	0320f809 	jalr	t9
  4009c0:	24060006 	li	a2,6
  4009c4:	8f8202e0 	lw	v0,736(gp)
  4009c8:	00000000 	nop
  4009cc:	8c420000 	lw	v0,0(v0)
  4009d0:	8e040000 	lw	a0,0(s0)
  4009d4:	8e230010 	lw	v1,16(s1)
  4009d8:	24420006 	addiu	v0,v0,6
  4009dc:	0064182a 	slt	v1,v1,a0
  4009e0:	8f8102e0 	lw	at,736(gp)
  4009e4:	00000000 	nop
  4009e8:	ac220000 	sw	v0,0(at)
  4009ec:	1060ffde 	beqz	v1,400968 <_gettermname+0x24>
  4009f0:	26300010 	addiu	s0,s1,16
  4009f4:	8f990218 	lw	t9,536(gp)
  4009f8:	00000000 	nop
  4009fc:	0320f809 	jalr	t9
  400a00:	00000000 	nop
  400a04:	8e020000 	lw	v0,0(s0)
  400a08:	8e030010 	lw	v1,16(s0)
  400a0c:	00000000 	nop
  400a10:	0043102a 	slt	v0,v0,v1
  400a14:	1440fff7 	bnez	v0,4009f4 <_gettermname+0xb0>
  400a18:	00000000 	nop
  400a1c:	1000ffd2 	b	400968 <_gettermname+0x24>
  400a20:	00000000 	nop

00400a24 <terminaltypeok>:
terminaltypeok():
  400a24:	24020001 	li	v0,1
  400a28:	27bdf800 	addiu	sp,sp,-2048
  400a2c:	03e00008 	jr	ra
  400a30:	27bd0800 	addiu	sp,sp,2048

00400a34 <doit>:
doit():
  400a34:	27bdfee8 	addiu	sp,sp,-280
  400a38:	afb00110 	sw	s0,272(sp)
  400a3c:	afbf0114 	sw	ra,276(sp)
  400a40:	8f9902c0 	lw	t9,704(gp)
  400a44:	00000000 	nop
  400a48:	0320f809 	jalr	t9
  400a4c:	00808021 	move	s0,a0
  400a50:	8f8101e4 	lw	at,484(gp)
  400a54:	00000000 	nop
  400a58:	ac220000 	sw	v0,0(at)
  400a5c:	8f850008 	lw	a1,8(gp)
  400a60:	00000000 	nop
  400a64:	24a5cf7c 	addiu	a1,a1,-12420
  400a68:	04400024 	bltz	v0,400afc <doit+0xc8>
  400a6c:	00000000 	nop
  400a70:	8e040004 	lw	a0,4(s0)
  400a74:	8f990160 	lw	t9,352(gp)
  400a78:	00000000 	nop
  400a7c:	0320f809 	jalr	t9
  400a80:	00000000 	nop
  400a84:	8f99015c 	lw	t9,348(gp)
  400a88:	00000000 	nop
  400a8c:	0320f809 	jalr	t9
  400a90:	00408021 	move	s0,v0
  400a94:	27a40010 	addiu	a0,sp,16
  400a98:	8f99000c 	lw	t9,12(gp)
  400a9c:	00000000 	nop
  400aa0:	27390330 	addiu	t9,t9,816
  400aa4:	0320f809 	jalr	t9
  400aa8:	a3a00010 	sb	zero,16(sp)
  400aac:	00402821 	move	a1,v0
  400ab0:	02002021 	move	a0,s0
  400ab4:	8f990334 	lw	t9,820(gp)
  400ab8:	00000000 	nop
  400abc:	0320f809 	jalr	t9
  400ac0:	27a60010 	addiu	a2,sp,16
  400ac4:	8f8402dc 	lw	a0,732(gp)
  400ac8:	00000000 	nop
  400acc:	8c840000 	lw	a0,0(a0)
  400ad0:	8f8501e4 	lw	a1,484(gp)
  400ad4:	00000000 	nop
  400ad8:	8ca50000 	lw	a1,0(a1)
  400adc:	8f9901b8 	lw	t9,440(gp)
  400ae0:	00000000 	nop
  400ae4:	0320f809 	jalr	t9
  400ae8:	00000000 	nop
  400aec:	8fbf0114 	lw	ra,276(sp)
  400af0:	8fb00110 	lw	s0,272(sp)
  400af4:	03e00008 	jr	ra
  400af8:	27bd0118 	addiu	sp,sp,280
  400afc:	8f8402dc 	lw	a0,732(gp)
  400b00:	00000000 	nop
  400b04:	8c840000 	lw	a0,0(a0)
  400b08:	8f9901ec 	lw	t9,492(gp)
  400b0c:	00000000 	nop
  400b10:	0320f809 	jalr	t9
  400b14:	00000000 	nop
  400b18:	1000ffd5 	b	400a70 <doit+0x3c>
  400b1c:	00000000 	nop

00400b20 <telnet>:
telnet():
  400b20:	27bdfe30 	addiu	sp,sp,-464
  400b24:	afb001a8 	sw	s0,424(sp)
  400b28:	24100001 	li	s0,1
  400b2c:	afb401b8 	sw	s4,440(sp)
  400b30:	afb101ac 	sw	s1,428(sp)
  400b34:	afbf01cc 	sw	ra,460(sp)
  400b38:	afbe01c8 	sw	s8,456(sp)
  400b3c:	afb701c4 	sw	s7,452(sp)
  400b40:	afb601c0 	sw	s6,448(sp)
  400b44:	afb501bc 	sw	s5,444(sp)
  400b48:	afb301b4 	sw	s3,436(sp)
  400b4c:	afb201b0 	sw	s2,432(sp)
  400b50:	00808821 	move	s1,a0
  400b54:	00a0a021 	move	s4,a1
  400b58:	8f990108 	lw	t9,264(gp)
  400b5c:	00000000 	nop
  400b60:	0320f809 	jalr	t9
  400b64:	afb001a0 	sw	s0,416(sp)
  400b68:	8f820240 	lw	v0,576(gp)
  400b6c:	00000000 	nop
  400b70:	90420003 	lbu	v0,3(v0)
  400b74:	00000000 	nop
  400b78:	30420001 	andi	v0,v0,0x1
  400b7c:	104002ae 	beqz	v0,401638 <telnet+0xb18>
  400b80:	24040003 	li	a0,3
  400b84:	24040001 	li	a0,1
  400b88:	8f990120 	lw	t9,288(gp)
  400b8c:	00000000 	nop
  400b90:	0320f809 	jalr	t9
  400b94:	24050001 	li	a1,1
  400b98:	2404001f 	li	a0,31
  400b9c:	8f990120 	lw	t9,288(gp)
  400ba0:	00000000 	nop
  400ba4:	0320f809 	jalr	t9
  400ba8:	24050001 	li	a1,1
  400bac:	24040005 	li	a0,5
  400bb0:	8f990270 	lw	t9,624(gp)
  400bb4:	00000000 	nop
  400bb8:	0320f809 	jalr	t9
  400bbc:	24050001 	li	a1,1
  400bc0:	24040021 	li	a0,33
  400bc4:	8f810254 	lw	at,596(gp)
  400bc8:	00000000 	nop
  400bcc:	ac300000 	sw	s0,0(at)
  400bd0:	8f990120 	lw	t9,288(gp)
  400bd4:	00000000 	nop
  400bd8:	0320f809 	jalr	t9
  400bdc:	24050001 	li	a1,1
  400be0:	8f820240 	lw	v0,576(gp)
  400be4:	00000000 	nop
  400be8:	8042001f 	lb	v0,31(v0)
  400bec:	00000000 	nop
  400bf0:	24420004 	addiu	v0,v0,4
  400bf4:	30420008 	andi	v0,v0,0x8
  400bf8:	14400281 	bnez	v0,401600 <telnet+0xae0>
  400bfc:	00000000 	nop
  400c00:	8f830240 	lw	v1,576(gp)
  400c04:	00000000 	nop
  400c08:	90630001 	lbu	v1,1(v1)
  400c0c:	00000000 	nop
  400c10:	30620008 	andi	v0,v1,0x8
  400c14:	1040000d 	beqz	v0,400c4c <telnet+0x12c>
  400c18:	00000000 	nop
  400c1c:	8f820240 	lw	v0,576(gp)
  400c20:	00000000 	nop
  400c24:	9042001f 	lbu	v0,31(v0)
  400c28:	00000000 	nop
  400c2c:	30420004 	andi	v0,v0,0x4
  400c30:	10400006 	beqz	v0,400c4c <telnet+0x12c>
  400c34:	00031600 	sll	v0,v1,0x18
  400c38:	00021603 	sra	v0,v0,0x18
  400c3c:	24420004 	addiu	v0,v0,4
  400c40:	30420008 	andi	v0,v0,0x8
  400c44:	14400260 	bnez	v0,4015c8 <telnet+0xaa8>
  400c48:	00000000 	nop
  400c4c:	8f820240 	lw	v0,576(gp)
  400c50:	00000000 	nop
  400c54:	90420001 	lbu	v0,1(v0)
  400c58:	00000000 	nop
  400c5c:	30420008 	andi	v0,v0,0x8
  400c60:	14400253 	bnez	v0,4015b0 <telnet+0xa90>
  400c64:	00000000 	nop
  400c68:	8f820240 	lw	v0,576(gp)
  400c6c:	00000000 	nop
  400c70:	90420001 	lbu	v0,1(v0)
  400c74:	00000000 	nop
  400c78:	30420001 	andi	v0,v0,0x1
  400c7c:	10400245 	beqz	v0,401594 <telnet+0xa74>
  400c80:	00000000 	nop
  400c84:	24055470 	li	a1,21616
  400c88:	27a601a0 	addiu	a2,sp,416
  400c8c:	8f990394 	lw	t9,916(gp)
  400c90:	00000000 	nop
  400c94:	0320f809 	jalr	t9
  400c98:	02802021 	move	a0,s4
  400c9c:	8f99022c 	lw	t9,556(gp)
  400ca0:	00000000 	nop
  400ca4:	0320f809 	jalr	t9
  400ca8:	00000000 	nop
  400cac:	02202021 	move	a0,s1
  400cb0:	2405667e 	li	a1,26238
  400cb4:	8f990394 	lw	t9,916(gp)
  400cb8:	00000000 	nop
  400cbc:	0320f809 	jalr	t9
  400cc0:	27a601a0 	addiu	a2,sp,416
  400cc4:	02802021 	move	a0,s4
  400cc8:	2405667e 	li	a1,26238
  400ccc:	8f990394 	lw	t9,916(gp)
  400cd0:	00000000 	nop
  400cd4:	0320f809 	jalr	t9
  400cd8:	27a601a0 	addiu	a2,sp,416
  400cdc:	8f8402dc 	lw	a0,732(gp)
  400ce0:	00000000 	nop
  400ce4:	8c840000 	lw	a0,0(a0)
  400ce8:	24060100 	li	a2,256
  400cec:	27a701a0 	addiu	a3,sp,416
  400cf0:	3405ffff 	li	a1,0xffff
  400cf4:	24020004 	li	v0,4
  400cf8:	8f990200 	lw	t9,512(gp)
  400cfc:	00000000 	nop
  400d00:	0320f809 	jalr	t9
  400d04:	afa20010 	sw	v0,16(sp)
  400d08:	24040018 	li	a0,24
  400d0c:	8f9901e0 	lw	t9,480(gp)
  400d10:	00000000 	nop
  400d14:	0320f809 	jalr	t9
  400d18:	24050001 	li	a1,1
  400d1c:	2404001b 	li	a0,27
  400d20:	8f9901e0 	lw	t9,480(gp)
  400d24:	00000000 	nop
  400d28:	0320f809 	jalr	t9
  400d2c:	24050001 	li	a1,1
  400d30:	8f850174 	lw	a1,372(gp)
  400d34:	8f9901e0 	lw	t9,480(gp)
  400d38:	00000000 	nop
  400d3c:	0320f809 	jalr	t9
  400d40:	24040012 	li	a0,18
  400d44:	8f840008 	lw	a0,8(gp)
  400d48:	00000000 	nop
  400d4c:	2484cf98 	addiu	a0,a0,-12392
  400d50:	8f99006c 	lw	t9,108(gp)
  400d54:	00000000 	nop
  400d58:	0320f809 	jalr	t9
  400d5c:	24050002 	li	a1,2
  400d60:	0440000b 	bltz	v0,400d90 <telnet+0x270>
  400d64:	00408021 	move	s0,v0
  400d68:	00402021 	move	a0,v0
  400d6c:	24055471 	li	a1,21617
  400d70:	8f990394 	lw	t9,916(gp)
  400d74:	00000000 	nop
  400d78:	0320f809 	jalr	t9
  400d7c:	00003021 	move	a2,zero
  400d80:	8f990030 	lw	t9,48(gp)
  400d84:	00000000 	nop
  400d88:	0320f809 	jalr	t9
  400d8c:	02002021 	move	a0,s0
  400d90:	8f8402d4 	lw	a0,724(gp)
  400d94:	8f810154 	lw	at,340(gp)
  400d98:	00000000 	nop
  400d9c:	ac240000 	sw	a0,0(at)
  400da0:	8f990070 	lw	t9,112(gp)
  400da4:	00000000 	nop
  400da8:	0320f809 	jalr	t9
  400dac:	3235001f 	andi	s5,s1,0x1f
  400db0:	3297001f 	andi	s7,s4,0x1f
  400db4:	8f810084 	lw	at,132(gp)
  400db8:	00000000 	nop
  400dbc:	ac220000 	sw	v0,0(at)
  400dc0:	24020001 	li	v0,1
  400dc4:	02a2b004 	sllv	s6,v0,s5
  400dc8:	02e0f021 	move	s8,s7
  400dcc:	afb501a4 	sw	s5,420(sp)
  400dd0:	8f82002c 	lw	v0,44(gp)
  400dd4:	00000000 	nop
  400dd8:	8c420000 	lw	v0,0(v0)
  400ddc:	00000000 	nop
  400de0:	044001e4 	bltz	v0,401574 <telnet+0xa54>
  400de4:	00402821 	move	a1,v0
  400de8:	27b00020 	addiu	s0,sp,32
  400dec:	00002021 	move	a0,zero
  400df0:	02001821 	move	v1,s0
  400df4:	24840001 	addiu	a0,a0,1
  400df8:	2c820020 	sltiu	v0,a0,32
  400dfc:	ac600000 	sw	zero,0(v1)
  400e00:	1440fffc 	bnez	v0,400df4 <telnet+0x2d4>
  400e04:	24630004 	addiu	v1,v1,4
  400e08:	27a600a0 	addiu	a2,sp,160
  400e0c:	00002021 	move	a0,zero
  400e10:	00c01821 	move	v1,a2
  400e14:	24840001 	addiu	a0,a0,1
  400e18:	2c820020 	sltiu	v0,a0,32
  400e1c:	ac600000 	sw	zero,0(v1)
  400e20:	1440fffc 	bnez	v0,400e14 <telnet+0x2f4>
  400e24:	24630004 	addiu	v1,v1,4
  400e28:	27a70120 	addiu	a3,sp,288
  400e2c:	00002021 	move	a0,zero
  400e30:	00e01821 	move	v1,a3
  400e34:	24840001 	addiu	a0,a0,1
  400e38:	2c820020 	sltiu	v0,a0,32
  400e3c:	ac600000 	sw	zero,0(v1)
  400e40:	1440fffc 	bnez	v0,400e34 <telnet+0x314>
  400e44:	24630004 	addiu	v1,v1,4
  400e48:	8f8302e0 	lw	v1,736(gp)
  400e4c:	00000000 	nop
  400e50:	8c630000 	lw	v1,0(v1)
  400e54:	8f8203a8 	lw	v0,936(gp)
  400e58:	00000000 	nop
  400e5c:	8c420000 	lw	v0,0(v0)
  400e60:	00000000 	nop
  400e64:	106201b2 	beq	v1,v0,401530 <telnet+0xa10>
  400e68:	00004021 	move	t0,zero
  400e6c:	00111942 	srl	v1,s1,0x5
  400e70:	00031880 	sll	v1,v1,0x2
  400e74:	00701821 	addu	v1,v1,s0
  400e78:	8c620080 	lw	v0,128(v1)
  400e7c:	00000000 	nop
  400e80:	00561025 	or	v0,v0,s6
  400e84:	06200002 	bltz	s1,400e90 <telnet+0x370>
  400e88:	ac620080 	sw	v0,128(v1)
  400e8c:	26280001 	addiu	t0,s1,1
  400e90:	8f8300f4 	lw	v1,244(gp)
  400e94:	00000000 	nop
  400e98:	8c630000 	lw	v1,0(v1)
  400e9c:	8f820204 	lw	v0,516(gp)
  400ea0:	00000000 	nop
  400ea4:	8c420000 	lw	v0,0(v0)
  400ea8:	00000000 	nop
  400eac:	10620191 	beq	v1,v0,4014f4 <telnet+0x9d4>
  400eb0:	00141942 	srl	v1,s4,0x5
  400eb4:	00031880 	sll	v1,v1,0x2
  400eb8:	00701821 	addu	v1,v1,s0
  400ebc:	8c640080 	lw	a0,128(v1)
  400ec0:	24020001 	li	v0,1
  400ec4:	02e21004 	sllv	v0,v0,s7
  400ec8:	00822025 	or	a0,a0,v0
  400ecc:	0288282a 	slt	a1,s4,t0
  400ed0:	14a00002 	bnez	a1,400edc <telnet+0x3bc>
  400ed4:	ac640080 	sw	a0,128(v1)
  400ed8:	26880001 	addiu	t0,s4,1
  400edc:	8f820244 	lw	v0,580(gp)
  400ee0:	00000000 	nop
  400ee4:	8c420000 	lw	v0,0(v0)
  400ee8:	00000000 	nop
  400eec:	1440000d 	bnez	v0,400f24 <telnet+0x404>
  400ef0:	01002021 	move	a0,t0
  400ef4:	00111942 	srl	v1,s1,0x5
  400ef8:	00031880 	sll	v1,v1,0x2
  400efc:	00701821 	addu	v1,v1,s0
  400f00:	8c640100 	lw	a0,256(v1)
  400f04:	24020001 	li	v0,1
  400f08:	02a21004 	sllv	v0,v0,s5
  400f0c:	00822025 	or	a0,a0,v0
  400f10:	0228282a 	slt	a1,s1,t0
  400f14:	14a00002 	bnez	a1,400f20 <telnet+0x400>
  400f18:	ac640100 	sw	a0,256(v1)
  400f1c:	26280001 	addiu	t0,s1,1
  400f20:	01002021 	move	a0,t0
  400f24:	27a50020 	addiu	a1,sp,32
  400f28:	8f9902c8 	lw	t9,712(gp)
  400f2c:	00000000 	nop
  400f30:	0320f809 	jalr	t9
  400f34:	afa00010 	sw	zero,16(sp)
  400f38:	1840015d 	blez	v0,4014b0 <telnet+0x990>
  400f3c:	00402021 	move	a0,v0
  400f40:	8f8402dc 	lw	a0,732(gp)
  400f44:	00000000 	nop
  400f48:	8c840000 	lw	a0,0(a0)
  400f4c:	00000000 	nop
  400f50:	00041142 	srl	v0,a0,0x5
  400f54:	00021080 	sll	v0,v0,0x2
  400f58:	00503021 	addu	a2,v0,s0
  400f5c:	8cc30100 	lw	v1,256(a2)
  400f60:	3085001f 	andi	a1,a0,0x1f
  400f64:	00a31807 	srav	v1,v1,a1
  400f68:	30630001 	andi	v1,v1,0x1
  400f6c:	10600004 	beqz	v1,400f80 <telnet+0x460>
  400f70:	24020001 	li	v0,1
  400f74:	8f810244 	lw	at,580(gp)
  400f78:	00000000 	nop
  400f7c:	ac220000 	sw	v0,0(at)
  400f80:	8cc20000 	lw	v0,0(a2)
  400f84:	00000000 	nop
  400f88:	00a21007 	srav	v0,v0,a1
  400f8c:	30420001 	andi	v0,v0,0x1
  400f90:	14400125 	bnez	v0,401428 <telnet+0x908>
  400f94:	00149142 	srl	s2,s4,0x5
  400f98:	00121080 	sll	v0,s2,0x2
  400f9c:	00501021 	addu	v0,v0,s0
  400fa0:	8c430000 	lw	v1,0(v0)
  400fa4:	3293001f 	andi	s3,s4,0x1f
  400fa8:	02631807 	srav	v1,v1,s3
  400fac:	30630001 	andi	v1,v1,0x1
  400fb0:	1460009c 	bnez	v1,401224 <telnet+0x704>
  400fb4:	00000000 	nop
  400fb8:	8f850084 	lw	a1,132(gp)
  400fbc:	00000000 	nop
  400fc0:	8ca50000 	lw	a1,0(a1)
  400fc4:	00000000 	nop
  400fc8:	18a00029 	blez	a1,401070 <telnet+0x550>
  400fcc:	00a01821 	move	v1,a1
  400fd0:	8f890098 	lw	t1,152(gp)
  400fd4:	00000000 	nop
  400fd8:	25290100 	addiu	t1,t1,256
  400fdc:	8f870154 	lw	a3,340(gp)
  400fe0:	240a00ff 	li	t2,255
  400fe4:	240cffff 	li	t4,-1
  400fe8:	2408000d 	li	t0,13
  400fec:	8f8b0240 	lw	t3,576(gp)
  400ff0:	240d000a 	li	t5,10
  400ff4:	8f8202e0 	lw	v0,736(gp)
  400ff8:	00000000 	nop
  400ffc:	8c420000 	lw	v0,0(v0)
  401000:	00000000 	nop
  401004:	01221023 	subu	v0,t1,v0
  401008:	28420002 	slti	v0,v0,2
  40100c:	14400018 	bnez	v0,401070 <telnet+0x550>
  401010:	2465ffff 	addiu	a1,v1,-1
  401014:	8ce20000 	lw	v0,0(a3)
  401018:	00000000 	nop
  40101c:	90440000 	lbu	a0,0(v0)
  401020:	24420001 	addiu	v0,v0,1
  401024:	ace20000 	sw	v0,0(a3)
  401028:	8f810084 	lw	at,132(gp)
  40102c:	00000000 	nop
  401030:	108a0074 	beq	a0,t2,401204 <telnet+0x6e4>
  401034:	ac250000 	sw	a1,0(at)
  401038:	8f8602e0 	lw	a2,736(gp)
  40103c:	00000000 	nop
  401040:	8cc30000 	lw	v1,0(a2)
  401044:	00000000 	nop
  401048:	a0640000 	sb	a0,0(v1)
  40104c:	24630001 	addiu	v1,v1,1
  401050:	10880040 	beq	a0,t0,401154 <telnet+0x634>
  401054:	acc30000 	sw	v1,0(a2)
  401058:	8f850084 	lw	a1,132(gp)
  40105c:	00000000 	nop
  401060:	8ca50000 	lw	a1,0(a1)
  401064:	00000000 	nop
  401068:	1ca0ffe2 	bgtz	a1,400ff4 <telnet+0x4d4>
  40106c:	00a01821 	move	v1,a1
  401070:	00111142 	srl	v0,s1,0x5
  401074:	00021080 	sll	v0,v0,0x2
  401078:	00501021 	addu	v0,v0,s0
  40107c:	8c430080 	lw	v1,128(v0)
  401080:	3224001f 	andi	a0,s1,0x1f
  401084:	00831807 	srav	v1,v1,a0
  401088:	30630001 	andi	v1,v1,0x1
  40108c:	1060000f 	beqz	v1,4010cc <telnet+0x5ac>
  401090:	00000000 	nop
  401094:	8f8202e0 	lw	v0,736(gp)
  401098:	00000000 	nop
  40109c:	8c420000 	lw	v0,0(v0)
  4010a0:	8f8303a8 	lw	v1,936(gp)
  4010a4:	00000000 	nop
  4010a8:	8c630000 	lw	v1,0(v1)
  4010ac:	00000000 	nop
  4010b0:	00431023 	subu	v0,v0,v1
  4010b4:	18400005 	blez	v0,4010cc <telnet+0x5ac>
  4010b8:	00000000 	nop
  4010bc:	8f9900ec 	lw	t9,236(gp)
  4010c0:	00000000 	nop
  4010c4:	0320f809 	jalr	t9
  4010c8:	00000000 	nop
  4010cc:	8f82002c 	lw	v0,44(gp)
  4010d0:	00000000 	nop
  4010d4:	8c420000 	lw	v0,0(v0)
  4010d8:	00000000 	nop
  4010dc:	18400006 	blez	v0,4010f8 <telnet+0x5d8>
  4010e0:	00121080 	sll	v0,s2,0x2
  4010e4:	8f99022c 	lw	t9,556(gp)
  4010e8:	00000000 	nop
  4010ec:	0320f809 	jalr	t9
  4010f0:	00000000 	nop
  4010f4:	00121080 	sll	v0,s2,0x2
  4010f8:	00501021 	addu	v0,v0,s0
  4010fc:	8c430080 	lw	v1,128(v0)
  401100:	00000000 	nop
  401104:	02631807 	srav	v1,v1,s3
  401108:	30630001 	andi	v1,v1,0x1
  40110c:	1060ff30 	beqz	v1,400dd0 <telnet+0x2b0>
  401110:	00000000 	nop
  401114:	8f8200f4 	lw	v0,244(gp)
  401118:	00000000 	nop
  40111c:	8c420000 	lw	v0,0(v0)
  401120:	8f830204 	lw	v1,516(gp)
  401124:	00000000 	nop
  401128:	8c630000 	lw	v1,0(v1)
  40112c:	00000000 	nop
  401130:	00431023 	subu	v0,v0,v1
  401134:	1840ff26 	blez	v0,400dd0 <telnet+0x2b0>
  401138:	00000000 	nop
  40113c:	8f990238 	lw	t9,568(gp)
  401140:	00000000 	nop
  401144:	0320f809 	jalr	t9
  401148:	00000000 	nop
  40114c:	1000ff20 	b	400dd0 <telnet+0x2b0>
  401150:	00000000 	nop
  401154:	91620000 	lbu	v0,0(t3)
  401158:	00000000 	nop
  40115c:	30420001 	andi	v0,v0,0x1
  401160:	1440ffbd 	bnez	v0,401058 <telnet+0x538>
  401164:	00000000 	nop
  401168:	8f820084 	lw	v0,132(gp)
  40116c:	00000000 	nop
  401170:	8c420000 	lw	v0,0(v0)
  401174:	00000000 	nop
  401178:	18400009 	blez	v0,4011a0 <telnet+0x680>
  40117c:	00000000 	nop
  401180:	8f840154 	lw	a0,340(gp)
  401184:	00000000 	nop
  401188:	8c840000 	lw	a0,0(a0)
  40118c:	00000000 	nop
  401190:	90820000 	lbu	v0,0(a0)
  401194:	90850000 	lbu	a1,0(a0)
  401198:	104d000a 	beq	v0,t5,4011c4 <telnet+0x6a4>
  40119c:	24620001 	addiu	v0,v1,1
  4011a0:	8cc20000 	lw	v0,0(a2)
  4011a4:	00000000 	nop
  4011a8:	a0400000 	sb	zero,0(v0)
  4011ac:	8f850084 	lw	a1,132(gp)
  4011b0:	00000000 	nop
  4011b4:	8ca50000 	lw	a1,0(a1)
  4011b8:	24420001 	addiu	v0,v0,1
  4011bc:	1000ffaa 	b	401068 <telnet+0x548>
  4011c0:	acc20000 	sw	v0,0(a2)
  4011c4:	a0650000 	sb	a1,0(v1)
  4011c8:	8f850084 	lw	a1,132(gp)
  4011cc:	00000000 	nop
  4011d0:	8ca50000 	lw	a1,0(a1)
  4011d4:	24840001 	addiu	a0,a0,1
  4011d8:	24a5ffff 	addiu	a1,a1,-1
  4011dc:	8f810154 	lw	at,340(gp)
  4011e0:	00000000 	nop
  4011e4:	ac240000 	sw	a0,0(at)
  4011e8:	8f8102e0 	lw	at,736(gp)
  4011ec:	00000000 	nop
  4011f0:	ac220000 	sw	v0,0(at)
  4011f4:	8f810084 	lw	at,132(gp)
  4011f8:	00000000 	nop
  4011fc:	1000ff9a 	b	401068 <telnet+0x548>
  401200:	ac250000 	sw	a1,0(at)
  401204:	8f8602e0 	lw	a2,736(gp)
  401208:	00000000 	nop
  40120c:	8cc20000 	lw	v0,0(a2)
  401210:	00000000 	nop
  401214:	a04c0000 	sb	t4,0(v0)
  401218:	24420001 	addiu	v0,v0,1
  40121c:	1000ff88 	b	401040 <telnet+0x520>
  401220:	acc20000 	sw	v0,0(a2)
  401224:	02802021 	move	a0,s4
  401228:	8f85020c 	lw	a1,524(gp)
  40122c:	8f9901dc 	lw	t9,476(gp)
  401230:	00000000 	nop
  401234:	0320f809 	jalr	t9
  401238:	24060100 	li	a2,256
  40123c:	8f810084 	lw	at,132(gp)
  401240:	00000000 	nop
  401244:	04400069 	bltz	v0,4013ec <telnet+0x8cc>
  401248:	ac220000 	sw	v0,0(at)
  40124c:	8f820084 	lw	v0,132(gp)
  401250:	00000000 	nop
  401254:	8c420000 	lw	v0,0(v0)
  401258:	00000000 	nop
  40125c:	18400053 	blez	v0,4013ac <telnet+0x88c>
  401260:	00000000 	nop
  401264:	8f82020c 	lw	v0,524(gp)
  401268:	00000000 	nop
  40126c:	90420000 	lbu	v0,0(v0)
  401270:	00000000 	nop
  401274:	30420002 	andi	v0,v0,0x2
  401278:	14400039 	bnez	v0,401360 <telnet+0x840>
  40127c:	00000000 	nop
  401280:	8f820240 	lw	v0,576(gp)
  401284:	00000000 	nop
  401288:	90420021 	lbu	v0,33(v0)
  40128c:	00000000 	nop
  401290:	30420004 	andi	v0,v0,0x4
  401294:	10400008 	beqz	v0,4012b8 <telnet+0x798>
  401298:	00000000 	nop
  40129c:	8f83020c 	lw	v1,524(gp)
  4012a0:	00000000 	nop
  4012a4:	90630000 	lbu	v1,0(v1)
  4012a8:	00000000 	nop
  4012ac:	30620030 	andi	v0,v1,0x30
  4012b0:	1440000f 	bnez	v0,4012f0 <telnet+0x7d0>
  4012b4:	00031942 	srl	v1,v1,0x5
  4012b8:	8f850084 	lw	a1,132(gp)
  4012bc:	00000000 	nop
  4012c0:	8ca50000 	lw	a1,0(a1)
  4012c4:	8f84020c 	lw	a0,524(gp)
  4012c8:	00000000 	nop
  4012cc:	24840001 	addiu	a0,a0,1
  4012d0:	24a5ffff 	addiu	a1,a1,-1
  4012d4:	8f810154 	lw	at,340(gp)
  4012d8:	00000000 	nop
  4012dc:	ac240000 	sw	a0,0(at)
  4012e0:	8f810084 	lw	at,132(gp)
  4012e4:	00000000 	nop
  4012e8:	1000ff37 	b	400fc8 <telnet+0x4a8>
  4012ec:	ac250000 	sw	a1,0(at)
  4012f0:	30630001 	andi	v1,v1,0x1
  4012f4:	24020021 	li	v0,33
  4012f8:	8f8402e0 	lw	a0,736(gp)
  4012fc:	00000000 	nop
  401300:	8c840000 	lw	a0,0(a0)
  401304:	afa20010 	sw	v0,16(sp)
  401308:	afa30014 	sw	v1,20(sp)
  40130c:	240200ff 	li	v0,255
  401310:	240300f0 	li	v1,240
  401314:	8f850008 	lw	a1,8(gp)
  401318:	00000000 	nop
  40131c:	24a5cfa4 	addiu	a1,a1,-12380
  401320:	240600ff 	li	a2,255
  401324:	240700fa 	li	a3,250
  401328:	afa3001c 	sw	v1,28(sp)
  40132c:	8f99011c 	lw	t9,284(gp)
  401330:	00000000 	nop
  401334:	0320f809 	jalr	t9
  401338:	afa20018 	sw	v0,24(sp)
  40133c:	8f8302e0 	lw	v1,736(gp)
  401340:	00000000 	nop
  401344:	8c630000 	lw	v1,0(v1)
  401348:	00000000 	nop
  40134c:	24630006 	addiu	v1,v1,6
  401350:	8f8102e0 	lw	at,736(gp)
  401354:	00000000 	nop
  401358:	1000ffd7 	b	4012b8 <telnet+0x798>
  40135c:	ac230000 	sw	v1,0(at)
  401360:	8f990328 	lw	t9,808(gp)
  401364:	00000000 	nop
  401368:	0320f809 	jalr	t9
  40136c:	00000000 	nop
  401370:	8f8602e0 	lw	a2,736(gp)
  401374:	00000000 	nop
  401378:	8cc20000 	lw	v0,0(a2)
  40137c:	2403ffff 	li	v1,-1
  401380:	a0430000 	sb	v1,0(v0)
  401384:	24420001 	addiu	v0,v0,1
  401388:	24440001 	addiu	a0,v0,1
  40138c:	2403fff2 	li	v1,-14
  401390:	a0430000 	sb	v1,0(v0)
  401394:	2482ffff 	addiu	v0,a0,-1
  401398:	acc40000 	sw	a0,0(a2)
  40139c:	8f810374 	lw	at,884(gp)
  4013a0:	00000000 	nop
  4013a4:	1000ffb6 	b	401280 <telnet+0x760>
  4013a8:	ac220000 	sw	v0,0(at)
  4013ac:	8f990174 	lw	t9,372(gp)
  4013b0:	00000000 	nop
  4013b4:	0320f809 	jalr	t9
  4013b8:	00002021 	move	a0,zero
  4013bc:	8fbf01cc 	lw	ra,460(sp)
  4013c0:	8fbe01c8 	lw	s8,456(sp)
  4013c4:	8fb701c4 	lw	s7,452(sp)
  4013c8:	8fb601c0 	lw	s6,448(sp)
  4013cc:	8fb501bc 	lw	s5,444(sp)
  4013d0:	8fb401b8 	lw	s4,440(sp)
  4013d4:	8fb301b4 	lw	s3,436(sp)
  4013d8:	8fb201b0 	lw	s2,432(sp)
  4013dc:	8fb101ac 	lw	s1,428(sp)
  4013e0:	8fb001a8 	lw	s0,424(sp)
  4013e4:	03e00008 	jr	ra
  4013e8:	27bd01d0 	addiu	sp,sp,464
  4013ec:	8f9900a8 	lw	t9,168(gp)
  4013f0:	00000000 	nop
  4013f4:	0320f809 	jalr	t9
  4013f8:	00000000 	nop
  4013fc:	8c430000 	lw	v1,0(v0)
  401400:	2402000b 	li	v0,11
  401404:	10620003 	beq	v1,v0,401414 <telnet+0x8f4>
  401408:	24020005 	li	v0,5
  40140c:	1462ff8f 	bne	v1,v0,40124c <telnet+0x72c>
  401410:	00000000 	nop
  401414:	8f810084 	lw	at,132(gp)
  401418:	00000000 	nop
  40141c:	ac200000 	sw	zero,0(at)
  401420:	1000fee9 	b	400fc8 <telnet+0x4a8>
  401424:	00002821 	move	a1,zero
  401428:	8f850140 	lw	a1,320(gp)
  40142c:	8f9901dc 	lw	t9,476(gp)
  401430:	00000000 	nop
  401434:	0320f809 	jalr	t9
  401438:	24060100 	li	a2,256
  40143c:	8f81002c 	lw	at,44(gp)
  401440:	00000000 	nop
  401444:	0440000d 	bltz	v0,40147c <telnet+0x95c>
  401448:	ac220000 	sw	v0,0(at)
  40144c:	8f82002c 	lw	v0,44(gp)
  401450:	00000000 	nop
  401454:	8c420000 	lw	v0,0(v0)
  401458:	00000000 	nop
  40145c:	1840ffd3 	blez	v0,4013ac <telnet+0x88c>
  401460:	00149142 	srl	s2,s4,0x5
  401464:	8f820140 	lw	v0,320(gp)
  401468:	8f8101f4 	lw	at,500(gp)
  40146c:	00000000 	nop
  401470:	ac220000 	sw	v0,0(at)
  401474:	1000fec9 	b	400f9c <telnet+0x47c>
  401478:	00121080 	sll	v0,s2,0x2
  40147c:	8f9900a8 	lw	t9,168(gp)
  401480:	00000000 	nop
  401484:	0320f809 	jalr	t9
  401488:	00000000 	nop
  40148c:	8c430000 	lw	v1,0(v0)
  401490:	2402000b 	li	v0,11
  401494:	1462ffed 	bne	v1,v0,40144c <telnet+0x92c>
  401498:	00149142 	srl	s2,s4,0x5
  40149c:	8f81002c 	lw	at,44(gp)
  4014a0:	00000000 	nop
  4014a4:	ac200000 	sw	zero,0(at)
  4014a8:	1000febc 	b	400f9c <telnet+0x47c>
  4014ac:	00121080 	sll	v0,s2,0x2
  4014b0:	2402ffff 	li	v0,-1
  4014b4:	14820009 	bne	a0,v0,4014dc <telnet+0x9bc>
  4014b8:	00000000 	nop
  4014bc:	8f9900a8 	lw	t9,168(gp)
  4014c0:	00000000 	nop
  4014c4:	0320f809 	jalr	t9
  4014c8:	00000000 	nop
  4014cc:	8c430000 	lw	v1,0(v0)
  4014d0:	24020004 	li	v0,4
  4014d4:	1062fe3e 	beq	v1,v0,400dd0 <telnet+0x2b0>
  4014d8:	00000000 	nop
  4014dc:	8f9902ec 	lw	t9,748(gp)
  4014e0:	00000000 	nop
  4014e4:	0320f809 	jalr	t9
  4014e8:	24040005 	li	a0,5
  4014ec:	1000fe38 	b	400dd0 <telnet+0x2b0>
  4014f0:	00000000 	nop
  4014f4:	1ca0fe6f 	bgtz	a1,400eb4 <telnet+0x394>
  4014f8:	00000000 	nop
  4014fc:	00111942 	srl	v1,s1,0x5
  401500:	00031880 	sll	v1,v1,0x2
  401504:	00701821 	addu	v1,v1,s0
  401508:	8fa501a4 	lw	a1,420(sp)
  40150c:	8c640000 	lw	a0,0(v1)
  401510:	24020001 	li	v0,1
  401514:	00a21004 	sllv	v0,v0,a1
  401518:	00822025 	or	a0,a0,v0
  40151c:	0228282a 	slt	a1,s1,t0
  401520:	14a0fe6e 	bnez	a1,400edc <telnet+0x3bc>
  401524:	ac640000 	sw	a0,0(v1)
  401528:	1000fe6c 	b	400edc <telnet+0x3bc>
  40152c:	26280001 	addiu	t0,s1,1
  401530:	8f820084 	lw	v0,132(gp)
  401534:	00000000 	nop
  401538:	8c420000 	lw	v0,0(v0)
  40153c:	00000000 	nop
  401540:	1c40fe4b 	bgtz	v0,400e70 <telnet+0x350>
  401544:	00111942 	srl	v1,s1,0x5
  401548:	00141142 	srl	v0,s4,0x5
  40154c:	00021080 	sll	v0,v0,0x2
  401550:	00501021 	addu	v0,v0,s0
  401554:	8c440000 	lw	a0,0(v0)
  401558:	24030001 	li	v1,1
  40155c:	03c31804 	sllv	v1,v1,s8
  401560:	00832025 	or	a0,a0,v1
  401564:	0680fe4a 	bltz	s4,400e90 <telnet+0x370>
  401568:	ac440000 	sw	a0,0(v0)
  40156c:	1000fe48 	b	400e90 <telnet+0x370>
  401570:	26880001 	addiu	t0,s4,1
  401574:	8f820084 	lw	v0,132(gp)
  401578:	00000000 	nop
  40157c:	8c420000 	lw	v0,0(v0)
  401580:	00000000 	nop
  401584:	0441fe19 	bgez	v0,400dec <telnet+0x2cc>
  401588:	27b00020 	addiu	s0,sp,32
  40158c:	1000ff87 	b	4013ac <telnet+0x88c>
  401590:	00000000 	nop
  401594:	24040001 	li	a0,1
  401598:	8f990270 	lw	t9,624(gp)
  40159c:	00000000 	nop
  4015a0:	0320f809 	jalr	t9
  4015a4:	24050001 	li	a1,1
  4015a8:	1000fdb7 	b	400c88 <telnet+0x168>
  4015ac:	24055470 	li	a1,21616
  4015b0:	8f990234 	lw	t9,564(gp)
  4015b4:	00000000 	nop
  4015b8:	0320f809 	jalr	t9
  4015bc:	24040001 	li	a0,1
  4015c0:	1000fda9 	b	400c68 <telnet+0x148>
  4015c4:	00000000 	nop
  4015c8:	8f990218 	lw	t9,536(gp)
  4015cc:	00000000 	nop
  4015d0:	0320f809 	jalr	t9
  4015d4:	00000000 	nop
  4015d8:	8f820240 	lw	v0,576(gp)
  4015dc:	00000000 	nop
  4015e0:	80420001 	lb	v0,1(v0)
  4015e4:	00000000 	nop
  4015e8:	24420004 	addiu	v0,v0,4
  4015ec:	30420008 	andi	v0,v0,0x8
  4015f0:	1440fff5 	bnez	v0,4015c8 <telnet+0xaa8>
  4015f4:	00000000 	nop
  4015f8:	1000fd94 	b	400c4c <telnet+0x12c>
  4015fc:	00000000 	nop
  401600:	8f990218 	lw	t9,536(gp)
  401604:	00000000 	nop
  401608:	0320f809 	jalr	t9
  40160c:	00000000 	nop
  401610:	8f820240 	lw	v0,576(gp)
  401614:	00000000 	nop
  401618:	8042001f 	lb	v0,31(v0)
  40161c:	00000000 	nop
  401620:	24420004 	addiu	v0,v0,4
  401624:	30420008 	andi	v0,v0,0x8
  401628:	1440fff5 	bnez	v0,401600 <telnet+0xae0>
  40162c:	00000000 	nop
  401630:	1000fd73 	b	400c00 <telnet+0xe0>
  401634:	00000000 	nop
  401638:	8f990270 	lw	t9,624(gp)
  40163c:	00000000 	nop
  401640:	0320f809 	jalr	t9
  401644:	24050001 	li	a1,1
  401648:	1000fd4f 	b	400b88 <telnet+0x68>
  40164c:	24040001 	li	a0,1

00401650 <interrupt>:
interrupt():
  401650:	27bdffe8 	addiu	sp,sp,-24
  401654:	afbf0010 	sw	ra,16(sp)
  401658:	8f990238 	lw	t9,568(gp)
  40165c:	00000000 	nop
  401660:	0320f809 	jalr	t9
  401664:	00000000 	nop
  401668:	8f990380 	lw	t9,896(gp)
  40166c:	00000000 	nop
  401670:	0320f809 	jalr	t9
  401674:	00000000 	nop
  401678:	8f8200f4 	lw	v0,244(gp)
  40167c:	00000000 	nop
  401680:	8c450000 	lw	a1,0(v0)
  401684:	8f840110 	lw	a0,272(gp)
  401688:	00000000 	nop
  40168c:	8c84001c 	lw	a0,28(a0)
  401690:	24a30001 	addiu	v1,a1,1
  401694:	ac430000 	sw	v1,0(v0)
  401698:	10800002 	beqz	a0,4016a4 <interrupt+0x54>
  40169c:	2402007f 	li	v0,127
  4016a0:	90820000 	lbu	v0,0(a0)
  4016a4:	8fbf0010 	lw	ra,16(sp)
  4016a8:	a0a20000 	sb	v0,0(a1)
  4016ac:	03e00008 	jr	ra
  4016b0:	27bd0018 	addiu	sp,sp,24

004016b4 <sendbrk>:
sendbrk():
  4016b4:	27bdffe8 	addiu	sp,sp,-24
  4016b8:	afbf0010 	sw	ra,16(sp)
  4016bc:	8f990238 	lw	t9,568(gp)
  4016c0:	00000000 	nop
  4016c4:	0320f809 	jalr	t9
  4016c8:	00000000 	nop
  4016cc:	8f990380 	lw	t9,896(gp)
  4016d0:	00000000 	nop
  4016d4:	0320f809 	jalr	t9
  4016d8:	00000000 	nop
  4016dc:	8f8200f4 	lw	v0,244(gp)
  4016e0:	00000000 	nop
  4016e4:	8c450000 	lw	a1,0(v0)
  4016e8:	8f840110 	lw	a0,272(gp)
  4016ec:	00000000 	nop
  4016f0:	8c84003c 	lw	a0,60(a0)
  4016f4:	24a30001 	addiu	v1,a1,1
  4016f8:	ac430000 	sw	v1,0(v0)
  4016fc:	10800002 	beqz	a0,401708 <sendbrk+0x54>
  401700:	2402001c 	li	v0,28
  401704:	90820000 	lbu	v0,0(a0)
  401708:	8fbf0010 	lw	ra,16(sp)
  40170c:	a0a20000 	sb	v0,0(a1)
  401710:	03e00008 	jr	ra
  401714:	27bd0018 	addiu	sp,sp,24

00401718 <sendsusp>:
sendsusp():
  401718:	27bdffe8 	addiu	sp,sp,-24
  40171c:	afbf0010 	sw	ra,16(sp)
  401720:	8f990238 	lw	t9,568(gp)
  401724:	00000000 	nop
  401728:	0320f809 	jalr	t9
  40172c:	00000000 	nop
  401730:	8f8200f4 	lw	v0,244(gp)
  401734:	00000000 	nop
  401738:	8c450000 	lw	a1,0(v0)
  40173c:	8f840110 	lw	a0,272(gp)
  401740:	00000000 	nop
  401744:	8c84004c 	lw	a0,76(a0)
  401748:	24a30001 	addiu	v1,a1,1
  40174c:	ac430000 	sw	v1,0(v0)
  401750:	10800002 	beqz	a0,40175c <sendsusp+0x44>
  401754:	2402001a 	li	v0,26
  401758:	90820000 	lbu	v0,0(a0)
  40175c:	8fbf0010 	lw	ra,16(sp)
  401760:	a0a20000 	sb	v0,0(a1)
  401764:	03e00008 	jr	ra
  401768:	27bd0018 	addiu	sp,sp,24

0040176c <recv_ayt>:
recv_ayt():
  40176c:	8f8402e0 	lw	a0,736(gp)
  401770:	00000000 	nop
  401774:	8c840000 	lw	a0,0(a0)
  401778:	27bdffe8 	addiu	sp,sp,-24
  40177c:	8f850008 	lw	a1,8(gp)
  401780:	00000000 	nop
  401784:	24a5cfb4 	addiu	a1,a1,-12364
  401788:	8f86005c 	lw	a2,92(gp)
  40178c:	afbf0014 	sw	ra,20(sp)
  401790:	8f99011c 	lw	t9,284(gp)
  401794:	00000000 	nop
  401798:	0320f809 	jalr	t9
  40179c:	afb00010 	sw	s0,16(sp)
  4017a0:	8f9002e0 	lw	s0,736(gp)
  4017a4:	00000000 	nop
  4017a8:	8e100000 	lw	s0,0(s0)
  4017ac:	8f990070 	lw	t9,112(gp)
  4017b0:	00000000 	nop
  4017b4:	0320f809 	jalr	t9
  4017b8:	02002021 	move	a0,s0
  4017bc:	02028021 	addu	s0,s0,v0
  4017c0:	8f8102e0 	lw	at,736(gp)
  4017c4:	00000000 	nop
  4017c8:	ac300000 	sw	s0,0(at)
  4017cc:	8fbf0014 	lw	ra,20(sp)
  4017d0:	8fb00010 	lw	s0,16(sp)
  4017d4:	03e00008 	jr	ra
  4017d8:	27bd0018 	addiu	sp,sp,24

004017dc <doeof>:
doeof():
  4017dc:	27bdffe8 	addiu	sp,sp,-24
  4017e0:	afbf0010 	sw	ra,16(sp)
  4017e4:	8f990380 	lw	t9,896(gp)
  4017e8:	00000000 	nop
  4017ec:	0320f809 	jalr	t9
  4017f0:	00000000 	nop
  4017f4:	8f8200f4 	lw	v0,244(gp)
  4017f8:	00000000 	nop
  4017fc:	8c450000 	lw	a1,0(v0)
  401800:	8f840110 	lw	a0,272(gp)
  401804:	00000000 	nop
  401808:	8c840044 	lw	a0,68(a0)
  40180c:	24a30001 	addiu	v1,a1,1
  401810:	ac430000 	sw	v1,0(v0)
  401814:	10800002 	beqz	a0,401820 <doeof+0x44>
  401818:	24020004 	li	v0,4
  40181c:	90820000 	lbu	v0,0(a0)
  401820:	8fbf0010 	lw	ra,16(sp)
  401824:	a0a20000 	sb	v0,0(a1)
  401828:	03e00008 	jr	ra
  40182c:	27bd0018 	addiu	sp,sp,24

00401830 <telrcv>:
telrcv():
  401830:	8f85002c 	lw	a1,44(gp)
  401834:	00000000 	nop
  401838:	8ca50000 	lw	a1,0(a1)
  40183c:	27bdffe8 	addiu	sp,sp,-24
  401840:	afbf0014 	sw	ra,20(sp)
  401844:	18a0003f 	blez	a1,401944 <telrcv+0x114>
  401848:	afb00010 	sw	s0,16(sp)
  40184c:	8f8300f4 	lw	v1,244(gp)
  401850:	00000000 	nop
  401854:	8c630000 	lw	v1,0(v1)
  401858:	8f820054 	lw	v0,84(gp)
  40185c:	00000000 	nop
  401860:	24420100 	addiu	v0,v0,256
  401864:	00431023 	subu	v0,v0,v1
  401868:	28420002 	slti	v0,v0,2
  40186c:	14400035 	bnez	v0,401944 <telrcv+0x114>
  401870:	00000000 	nop
  401874:	8f8401f4 	lw	a0,500(gp)
  401878:	00000000 	nop
  40187c:	8c820000 	lw	v0,0(a0)
  401880:	8f860008 	lw	a2,8(gp)
  401884:	00000000 	nop
  401888:	24c6e2c4 	addiu	a2,a2,-7484
  40188c:	8cc60000 	lw	a2,0(a2)
  401890:	90500000 	lbu	s0,0(v0)
  401894:	24a5ffff 	addiu	a1,a1,-1
  401898:	24420001 	addiu	v0,v0,1
  40189c:	2cc30009 	sltiu	v1,a2,9
  4018a0:	ac820000 	sw	v0,0(a0)
  4018a4:	8f81002c 	lw	at,44(gp)
  4018a8:	00000000 	nop
  4018ac:	ac250000 	sw	a1,0(at)
  4018b0:	10600174 	beqz	v1,401e84 <telrcv+0x654>
  4018b4:	00061080 	sll	v0,a2,0x2
  4018b8:	8f830008 	lw	v1,8(gp)
  4018bc:	00000000 	nop
  4018c0:	2463cfec 	addiu	v1,v1,-12308
  4018c4:	00621821 	addu	v1,v1,v0
  4018c8:	8c630000 	lw	v1,0(v1)
  4018cc:	00000000 	nop
  4018d0:	007c1821 	addu	v1,v1,gp
  4018d4:	00600008 	jr	v1
  4018d8:	00000000 	nop
  4018dc:	8f810008 	lw	at,8(gp)
  4018e0:	00000000 	nop
  4018e4:	2421e2c4 	addiu	at,at,-7484
  4018e8:	ac200000 	sw	zero,0(at)
  4018ec:	1200000f 	beqz	s0,40192c <telrcv+0xfc>
  4018f0:	2402000a 	li	v0,10
  4018f4:	1202000d 	beq	s0,v0,40192c <telrcv+0xfc>
  4018f8:	00000000 	nop
  4018fc:	240200ff 	li	v0,255
  401900:	12020020 	beq	s0,v0,401984 <telrcv+0x154>
  401904:	2402000d 	li	v0,13
  401908:	12020012 	beq	s0,v0,401954 <telrcv+0x124>
  40190c:	00000000 	nop
  401910:	8f8300f4 	lw	v1,244(gp)
  401914:	00000000 	nop
  401918:	8c620000 	lw	v0,0(v1)
  40191c:	00000000 	nop
  401920:	a0500000 	sb	s0,0(v0)
  401924:	24420001 	addiu	v0,v0,1
  401928:	ac620000 	sw	v0,0(v1)
  40192c:	8f85002c 	lw	a1,44(gp)
  401930:	00000000 	nop
  401934:	8ca50000 	lw	a1,0(a1)
  401938:	00000000 	nop
  40193c:	1ca0ffc3 	bgtz	a1,40184c <telrcv+0x1c>
  401940:	00000000 	nop
  401944:	8fbf0014 	lw	ra,20(sp)
  401948:	8fb00010 	lw	s0,16(sp)
  40194c:	03e00008 	jr	ra
  401950:	27bd0018 	addiu	sp,sp,24
  401954:	8f820240 	lw	v0,576(gp)
  401958:	00000000 	nop
  40195c:	90420000 	lbu	v0,0(v0)
  401960:	00000000 	nop
  401964:	30420004 	andi	v0,v0,0x4
  401968:	1440ffe9 	bnez	v0,401910 <telrcv+0xe0>
  40196c:	24020002 	li	v0,2
  401970:	8f810008 	lw	at,8(gp)
  401974:	00000000 	nop
  401978:	2421e2c4 	addiu	at,at,-7484
  40197c:	1000ffe4 	b	401910 <telrcv+0xe0>
  401980:	ac220000 	sw	v0,0(at)
  401984:	24020001 	li	v0,1
  401988:	8f810008 	lw	at,8(gp)
  40198c:	00000000 	nop
  401990:	2421e2c4 	addiu	at,at,-7484
  401994:	1000ffe5 	b	40192c <telrcv+0xfc>
  401998:	ac220000 	sw	v0,0(at)
  40199c:	2603ff14 	addiu	v1,s0,-236
  4019a0:	2c620014 	sltiu	v0,v1,20
  4019a4:	1040000e 	beqz	v0,4019e0 <telrcv+0x1b0>
  4019a8:	00031080 	sll	v0,v1,0x2
  4019ac:	8f830008 	lw	v1,8(gp)
  4019b0:	00000000 	nop
  4019b4:	2463d010 	addiu	v1,v1,-12272
  4019b8:	00621821 	addu	v1,v1,v0
  4019bc:	8c630000 	lw	v1,0(v1)
  4019c0:	00000000 	nop
  4019c4:	007c1821 	addu	v1,v1,gp
  4019c8:	00600008 	jr	v1
  4019cc:	00000000 	nop
  4019d0:	8f9900e4 	lw	t9,228(gp)
  4019d4:	00000000 	nop
  4019d8:	0320f809 	jalr	t9
  4019dc:	00000000 	nop
  4019e0:	8f810008 	lw	at,8(gp)
  4019e4:	00000000 	nop
  4019e8:	2421e2c4 	addiu	at,at,-7484
  4019ec:	1000ffcf 	b	40192c <telrcv+0xfc>
  4019f0:	ac200000 	sw	zero,0(at)
  4019f4:	8f990308 	lw	t9,776(gp)
  4019f8:	00000000 	nop
  4019fc:	0320f809 	jalr	t9
  401a00:	00000000 	nop
  401a04:	1000fff6 	b	4019e0 <telrcv+0x1b0>
  401a08:	00000000 	nop
  401a0c:	8f990164 	lw	t9,356(gp)
  401a10:	00000000 	nop
  401a14:	0320f809 	jalr	t9
  401a18:	00000000 	nop
  401a1c:	1000fff0 	b	4019e0 <telrcv+0x1b0>
  401a20:	00000000 	nop
  401a24:	8f990258 	lw	t9,600(gp)
  401a28:	00000000 	nop
  401a2c:	0320f809 	jalr	t9
  401a30:	00000000 	nop
  401a34:	1000ffea 	b	4019e0 <telrcv+0x1b0>
  401a38:	00000000 	nop
  401a3c:	8f820240 	lw	v0,576(gp)
  401a40:	00000000 	nop
  401a44:	90420019 	lbu	v0,25(v0)
  401a48:	00000000 	nop
  401a4c:	30420004 	andi	v0,v0,0x4
  401a50:	1040ffe3 	beqz	v0,4019e0 <telrcv+0x1b0>
  401a54:	00000000 	nop
  401a58:	1000ffe6 	b	4019f4 <telrcv+0x1c4>
  401a5c:	00000000 	nop
  401a60:	8f8402dc 	lw	a0,732(gp)
  401a64:	00000000 	nop
  401a68:	8c840000 	lw	a0,0(a0)
  401a6c:	8f990250 	lw	t9,592(gp)
  401a70:	00000000 	nop
  401a74:	0320f809 	jalr	t9
  401a78:	00000000 	nop
  401a7c:	8f840184 	lw	a0,388(gp)
  401a80:	00000000 	nop
  401a84:	24840024 	addiu	a0,a0,36
  401a88:	8c83ffdc 	lw	v1,-36(a0)
  401a8c:	8f810244 	lw	at,580(gp)
  401a90:	00000000 	nop
  401a94:	ac220000 	sw	v0,0(at)
  401a98:	24630001 	addiu	v1,v1,1
  401a9c:	ac830000 	sw	v1,0(a0)
  401aa0:	1000ffcf 	b	4019e0 <telrcv+0x1b0>
  401aa4:	ac83ffdc 	sw	v1,-36(a0)
  401aa8:	8f990238 	lw	t9,568(gp)
  401aac:	00000000 	nop
  401ab0:	0320f809 	jalr	t9
  401ab4:	00000000 	nop
  401ab8:	8f990380 	lw	t9,896(gp)
  401abc:	00000000 	nop
  401ac0:	0320f809 	jalr	t9
  401ac4:	00000000 	nop
  401ac8:	8f820110 	lw	v0,272(gp)
  401acc:	00000000 	nop
  401ad0:	8c420024 	lw	v0,36(v0)
  401ad4:	00000000 	nop
  401ad8:	1040000c 	beqz	v0,401b0c <telrcv+0x2dc>
  401adc:	00000000 	nop
  401ae0:	90440000 	lbu	a0,0(v0)
  401ae4:	00000000 	nop
  401ae8:	10800008 	beqz	a0,401b0c <telrcv+0x2dc>
  401aec:	00000000 	nop
  401af0:	8f8300f4 	lw	v1,244(gp)
  401af4:	00000000 	nop
  401af8:	8c620000 	lw	v0,0(v1)
  401afc:	00000000 	nop
  401b00:	a0440000 	sb	a0,0(v0)
  401b04:	24420001 	addiu	v0,v0,1
  401b08:	ac620000 	sw	v0,0(v1)
  401b0c:	8f990328 	lw	t9,808(gp)
  401b10:	00000000 	nop
  401b14:	0320f809 	jalr	t9
  401b18:	00000000 	nop
  401b1c:	8f8502e0 	lw	a1,736(gp)
  401b20:	00000000 	nop
  401b24:	8ca20000 	lw	v0,0(a1)
  401b28:	2403ffff 	li	v1,-1
  401b2c:	a0430000 	sb	v1,0(v0)
  401b30:	24420001 	addiu	v0,v0,1
  401b34:	24440001 	addiu	a0,v0,1
  401b38:	2403fff2 	li	v1,-14
  401b3c:	a0430000 	sb	v1,0(v0)
  401b40:	2482ffff 	addiu	v0,a0,-1
  401b44:	aca40000 	sw	a0,0(a1)
  401b48:	8f810374 	lw	at,884(gp)
  401b4c:	00000000 	nop
  401b50:	1000ffa3 	b	4019e0 <telrcv+0x1b0>
  401b54:	ac220000 	sw	v0,0(at)
  401b58:	8f990364 	lw	t9,868(gp)
  401b5c:	00000000 	nop
  401b60:	0320f809 	jalr	t9
  401b64:	00000000 	nop
  401b68:	1000ff9d 	b	4019e0 <telrcv+0x1b0>
  401b6c:	00000000 	nop
  401b70:	8f990238 	lw	t9,568(gp)
  401b74:	00000000 	nop
  401b78:	0320f809 	jalr	t9
  401b7c:	00000000 	nop
  401b80:	8f990380 	lw	t9,896(gp)
  401b84:	00000000 	nop
  401b88:	0320f809 	jalr	t9
  401b8c:	00000000 	nop
  401b90:	240200f7 	li	v0,247
  401b94:	12020011 	beq	s0,v0,401bdc <telrcv+0x3ac>
  401b98:	00000000 	nop
  401b9c:	8f820110 	lw	v0,272(gp)
  401ba0:	00000000 	nop
  401ba4:	8c42005c 	lw	v0,92(v0)
  401ba8:	00000000 	nop
  401bac:	90440000 	lbu	a0,0(v0)
  401bb0:	00000000 	nop
  401bb4:	1080ff8a 	beqz	a0,4019e0 <telrcv+0x1b0>
  401bb8:	00000000 	nop
  401bbc:	8f8300f4 	lw	v1,244(gp)
  401bc0:	00000000 	nop
  401bc4:	8c620000 	lw	v0,0(v1)
  401bc8:	00000000 	nop
  401bcc:	a0440000 	sb	a0,0(v0)
  401bd0:	24420001 	addiu	v0,v0,1
  401bd4:	1000ff82 	b	4019e0 <telrcv+0x1b0>
  401bd8:	ac620000 	sw	v0,0(v1)
  401bdc:	8f820110 	lw	v0,272(gp)
  401be0:	00000000 	nop
  401be4:	8c420054 	lw	v0,84(v0)
  401be8:	1000fff0 	b	401bac <telrcv+0x37c>
  401bec:	00000000 	nop
  401bf0:	8f83016c 	lw	v1,364(gp)
  401bf4:	24020003 	li	v0,3
  401bf8:	8f810008 	lw	at,8(gp)
  401bfc:	00000000 	nop
  401c00:	2421e2c4 	addiu	at,at,-7484
  401c04:	ac220000 	sw	v0,0(at)
  401c08:	8f8100b0 	lw	at,176(gp)
  401c0c:	00000000 	nop
  401c10:	1000ff46 	b	40192c <telrcv+0xfc>
  401c14:	ac230000 	sw	v1,0(at)
  401c18:	1000ff5b 	b	401988 <telrcv+0x158>
  401c1c:	24020005 	li	v0,5
  401c20:	1000ff59 	b	401988 <telrcv+0x158>
  401c24:	24020006 	li	v0,6
  401c28:	1000ff57 	b	401988 <telrcv+0x158>
  401c2c:	24020007 	li	v0,7
  401c30:	1000ff55 	b	401988 <telrcv+0x158>
  401c34:	24020008 	li	v0,8
  401c38:	8f8300f4 	lw	v1,244(gp)
  401c3c:	00000000 	nop
  401c40:	8c620000 	lw	v0,0(v1)
  401c44:	1000ffe2 	b	401bd0 <telrcv+0x3a0>
  401c48:	a0500000 	sb	s0,0(v0)
  401c4c:	240200ff 	li	v0,255
  401c50:	1202ff4d 	beq	s0,v0,401988 <telrcv+0x158>
  401c54:	24020004 	li	v0,4
  401c58:	8f8200b0 	lw	v0,176(gp)
  401c5c:	00000000 	nop
  401c60:	8c420000 	lw	v0,0(v0)
  401c64:	8f83016c 	lw	v1,364(gp)
  401c68:	00000000 	nop
  401c6c:	24630200 	addiu	v1,v1,512
  401c70:	0043102b 	sltu	v0,v0,v1
  401c74:	1040ff2d 	beqz	v0,40192c <telrcv+0xfc>
  401c78:	00000000 	nop
  401c7c:	8f8300b0 	lw	v1,176(gp)
  401c80:	1000ff25 	b	401918 <telrcv+0xe8>
  401c84:	00000000 	nop
  401c88:	240200f0 	li	v0,240
  401c8c:	12020040 	beq	s0,v0,401d90 <telrcv+0x560>
  401c90:	240200ff 	li	v0,255
  401c94:	1202002c 	beq	s0,v0,401d48 <telrcv+0x518>
  401c98:	00000000 	nop
  401c9c:	8f8300b0 	lw	v1,176(gp)
  401ca0:	00000000 	nop
  401ca4:	8c630000 	lw	v1,0(v1)
  401ca8:	8f85016c 	lw	a1,364(gp)
  401cac:	00000000 	nop
  401cb0:	24a50200 	addiu	a1,a1,512
  401cb4:	0065102b 	sltu	v0,v1,a1
  401cb8:	10400006 	beqz	v0,401cd4 <telrcv+0x4a4>
  401cbc:	2404ffff 	li	a0,-1
  401cc0:	a0640000 	sb	a0,0(v1)
  401cc4:	8f8200b0 	lw	v0,176(gp)
  401cc8:	24630001 	addiu	v1,v1,1
  401ccc:	ac430000 	sw	v1,0(v0)
  401cd0:	0065102b 	sltu	v0,v1,a1
  401cd4:	10400009 	beqz	v0,401cfc <telrcv+0x4cc>
  401cd8:	00000000 	nop
  401cdc:	8f8300b0 	lw	v1,176(gp)
  401ce0:	00000000 	nop
  401ce4:	8c620000 	lw	v0,0(v1)
  401ce8:	00000000 	nop
  401cec:	a0500000 	sb	s0,0(v0)
  401cf0:	24420001 	addiu	v0,v0,1
  401cf4:	ac620000 	sw	v0,0(v1)
  401cf8:	00401821 	move	v1,v0
  401cfc:	2463fffe 	addiu	v1,v1,-2
  401d00:	8f810064 	lw	at,100(gp)
  401d04:	00000000 	nop
  401d08:	ac230000 	sw	v1,0(at)
  401d0c:	24a3fe00 	addiu	v1,a1,-512
  401d10:	8f8100b0 	lw	at,176(gp)
  401d14:	00000000 	nop
  401d18:	ac230000 	sw	v1,0(at)
  401d1c:	8f9900bc 	lw	t9,188(gp)
  401d20:	00000000 	nop
  401d24:	0320f809 	jalr	t9
  401d28:	00000000 	nop
  401d2c:	24020001 	li	v0,1
  401d30:	8f810008 	lw	at,8(gp)
  401d34:	00000000 	nop
  401d38:	2421e2c4 	addiu	at,at,-7484
  401d3c:	ac220000 	sw	v0,0(at)
  401d40:	1000ff17 	b	4019a0 <telrcv+0x170>
  401d44:	2603ff14 	addiu	v1,s0,-236
  401d48:	8f8200b0 	lw	v0,176(gp)
  401d4c:	00000000 	nop
  401d50:	8c420000 	lw	v0,0(v0)
  401d54:	8f83016c 	lw	v1,364(gp)
  401d58:	00000000 	nop
  401d5c:	24630200 	addiu	v1,v1,512
  401d60:	0043102b 	sltu	v0,v0,v1
  401d64:	10400008 	beqz	v0,401d88 <telrcv+0x558>
  401d68:	2404ffff 	li	a0,-1
  401d6c:	8f8200b0 	lw	v0,176(gp)
  401d70:	00000000 	nop
  401d74:	8c430000 	lw	v1,0(v0)
  401d78:	00000000 	nop
  401d7c:	a0640000 	sb	a0,0(v1)
  401d80:	24630001 	addiu	v1,v1,1
  401d84:	ac430000 	sw	v1,0(v0)
  401d88:	1000feff 	b	401988 <telrcv+0x158>
  401d8c:	24020003 	li	v0,3
  401d90:	8f8300b0 	lw	v1,176(gp)
  401d94:	00000000 	nop
  401d98:	8c630000 	lw	v1,0(v1)
  401d9c:	8f85016c 	lw	a1,364(gp)
  401da0:	00000000 	nop
  401da4:	24a50200 	addiu	a1,a1,512
  401da8:	0065102b 	sltu	v0,v1,a1
  401dac:	10400006 	beqz	v0,401dc8 <telrcv+0x598>
  401db0:	2404ffff 	li	a0,-1
  401db4:	a0640000 	sb	a0,0(v1)
  401db8:	8f8200b0 	lw	v0,176(gp)
  401dbc:	24630001 	addiu	v1,v1,1
  401dc0:	ac430000 	sw	v1,0(v0)
  401dc4:	0065102b 	sltu	v0,v1,a1
  401dc8:	10400009 	beqz	v0,401df0 <telrcv+0x5c0>
  401dcc:	2463fffe 	addiu	v1,v1,-2
  401dd0:	8f8200b0 	lw	v0,176(gp)
  401dd4:	00000000 	nop
  401dd8:	8c430000 	lw	v1,0(v0)
  401ddc:	2404fff0 	li	a0,-16
  401de0:	a0640000 	sb	a0,0(v1)
  401de4:	24630001 	addiu	v1,v1,1
  401de8:	ac430000 	sw	v1,0(v0)
  401dec:	2463fffe 	addiu	v1,v1,-2
  401df0:	8f810064 	lw	at,100(gp)
  401df4:	00000000 	nop
  401df8:	ac230000 	sw	v1,0(at)
  401dfc:	24a3fe00 	addiu	v1,a1,-512
  401e00:	8f8100b0 	lw	at,176(gp)
  401e04:	00000000 	nop
  401e08:	ac230000 	sw	v1,0(at)
  401e0c:	8f9900bc 	lw	t9,188(gp)
  401e10:	00000000 	nop
  401e14:	0320f809 	jalr	t9
  401e18:	00000000 	nop
  401e1c:	1000fef0 	b	4019e0 <telrcv+0x1b0>
  401e20:	00000000 	nop
  401e24:	8f990234 	lw	t9,564(gp)
  401e28:	00000000 	nop
  401e2c:	0320f809 	jalr	t9
  401e30:	02002021 	move	a0,s0
  401e34:	1000feea 	b	4019e0 <telrcv+0x1b0>
  401e38:	00000000 	nop
  401e3c:	8f990350 	lw	t9,848(gp)
  401e40:	00000000 	nop
  401e44:	0320f809 	jalr	t9
  401e48:	02002021 	move	a0,s0
  401e4c:	1000fee4 	b	4019e0 <telrcv+0x1b0>
  401e50:	00000000 	nop
  401e54:	8f9902d8 	lw	t9,728(gp)
  401e58:	00000000 	nop
  401e5c:	0320f809 	jalr	t9
  401e60:	02002021 	move	a0,s0
  401e64:	1000fede 	b	4019e0 <telrcv+0x1b0>
  401e68:	00000000 	nop
  401e6c:	8f9902c4 	lw	t9,708(gp)
  401e70:	00000000 	nop
  401e74:	0320f809 	jalr	t9
  401e78:	02002021 	move	a0,s0
  401e7c:	1000fed8 	b	4019e0 <telrcv+0x1b0>
  401e80:	00000000 	nop
  401e84:	8f840008 	lw	a0,8(gp)
  401e88:	00000000 	nop
  401e8c:	2484cfd0 	addiu	a0,a0,-12336
  401e90:	8f99038c 	lw	t9,908(gp)
  401e94:	00000000 	nop
  401e98:	0320f809 	jalr	t9
  401e9c:	00c02821 	move	a1,a2
  401ea0:	8f9900a0 	lw	t9,160(gp)
  401ea4:	00000000 	nop
  401ea8:	0320f809 	jalr	t9
  401eac:	24040001 	li	a0,1

00401eb0 <send_do>:
send_do():
  401eb0:	27bdffe8 	addiu	sp,sp,-24
  401eb4:	afbf0010 	sw	ra,16(sp)
  401eb8:	10a0001f 	beqz	a1,401f38 <send_do+0x88>
  401ebc:	00803021 	move	a2,a0
  401ec0:	8f820354 	lw	v0,852(gp)
  401ec4:	00000000 	nop
  401ec8:	00441021 	addu	v0,v0,a0
  401ecc:	80420000 	lb	v0,0(v0)
  401ed0:	00000000 	nop
  401ed4:	14400035 	bnez	v0,401fac <send_do+0xfc>
  401ed8:	00000000 	nop
  401edc:	8f820240 	lw	v0,576(gp)
  401ee0:	00000000 	nop
  401ee4:	00441021 	addu	v0,v0,a0
  401ee8:	90420000 	lbu	v0,0(v0)
  401eec:	8f850240 	lw	a1,576(gp)
  401ef0:	30420004 	andi	v0,v0,0x4
  401ef4:	14400022 	bnez	v0,401f80 <send_do+0xd0>
  401ef8:	00c52021 	addu	a0,a2,a1
  401efc:	90830000 	lbu	v1,0(a0)
  401f00:	00000000 	nop
  401f04:	30620008 	andi	v0,v1,0x8
  401f08:	1440001d 	bnez	v0,401f80 <send_do+0xd0>
  401f0c:	24020006 	li	v0,6
  401f10:	10c2001f 	beq	a2,v0,401f90 <send_do+0xe0>
  401f14:	34620008 	ori	v0,v1,0x8
  401f18:	a0820000 	sb	v0,0(a0)
  401f1c:	8f830354 	lw	v1,852(gp)
  401f20:	00000000 	nop
  401f24:	00661821 	addu	v1,v1,a2
  401f28:	90620000 	lbu	v0,0(v1)
  401f2c:	00000000 	nop
  401f30:	24420001 	addiu	v0,v0,1
  401f34:	a0620000 	sb	v0,0(v1)
  401f38:	8f8402e0 	lw	a0,736(gp)
  401f3c:	00000000 	nop
  401f40:	8c840000 	lw	a0,0(a0)
  401f44:	8f850008 	lw	a1,8(gp)
  401f48:	00000000 	nop
  401f4c:	24a5e29c 	addiu	a1,a1,-7524
  401f50:	8f99011c 	lw	t9,284(gp)
  401f54:	00000000 	nop
  401f58:	0320f809 	jalr	t9
  401f5c:	00000000 	nop
  401f60:	8f8302e0 	lw	v1,736(gp)
  401f64:	00000000 	nop
  401f68:	8c630000 	lw	v1,0(v1)
  401f6c:	00000000 	nop
  401f70:	24630003 	addiu	v1,v1,3
  401f74:	8f8102e0 	lw	at,736(gp)
  401f78:	00000000 	nop
  401f7c:	ac230000 	sw	v1,0(at)
  401f80:	8fbf0010 	lw	ra,16(sp)
  401f84:	00000000 	nop
  401f88:	03e00008 	jr	ra
  401f8c:	27bd0018 	addiu	sp,sp,24
  401f90:	8f820240 	lw	v0,576(gp)
  401f94:	00000000 	nop
  401f98:	90420006 	lbu	v0,6(v0)
  401f9c:	00000000 	nop
  401fa0:	304200f7 	andi	v0,v0,0xf7
  401fa4:	1000ffdd 	b	401f1c <send_do+0x6c>
  401fa8:	a0a20006 	sb	v0,6(a1)
  401fac:	8f850240 	lw	a1,576(gp)
  401fb0:	1000ffd2 	b	401efc <send_do+0x4c>
  401fb4:	00c52021 	addu	a0,a2,a1

00401fb8 <willoption>:
willoption():
  401fb8:	27bdffe0 	addiu	sp,sp,-32
  401fbc:	afb00010 	sw	s0,16(sp)
  401fc0:	afbf0018 	sw	ra,24(sp)
  401fc4:	afb10014 	sw	s1,20(sp)
  401fc8:	00808021 	move	s0,a0
  401fcc:	8f810354 	lw	at,852(gp)
  401fd0:	00000000 	nop
  401fd4:	00242021 	addu	a0,at,a0
  401fd8:	80820000 	lb	v0,0(a0)
  401fdc:	90830000 	lbu	v1,0(a0)
  401fe0:	1040006b 	beqz	v0,402190 <willoption+0x1d8>
  401fe4:	00002821 	move	a1,zero
  401fe8:	2463ffff 	addiu	v1,v1,-1
  401fec:	00031600 	sll	v0,v1,0x18
  401ff0:	10400067 	beqz	v0,402190 <willoption+0x1d8>
  401ff4:	a0830000 	sb	v1,0(a0)
  401ff8:	8f820240 	lw	v0,576(gp)
  401ffc:	00000000 	nop
  402000:	00501021 	addu	v0,v0,s0
  402004:	90420000 	lbu	v0,0(v0)
  402008:	8f910240 	lw	s1,576(gp)
  40200c:	30420004 	andi	v0,v0,0x4
  402010:	10400002 	beqz	v0,40201c <willoption+0x64>
  402014:	2462ffff 	addiu	v0,v1,-1
  402018:	a0820000 	sb	v0,0(a0)
  40201c:	8f820354 	lw	v0,852(gp)
  402020:	00000000 	nop
  402024:	00501021 	addu	v0,v0,s0
  402028:	80420000 	lb	v0,0(v0)
  40202c:	00000000 	nop
  402030:	1440002b 	bnez	v0,4020e0 <willoption+0x128>
  402034:	02111821 	addu	v1,s0,s1
  402038:	90620000 	lbu	v0,0(v1)
  40203c:	00000000 	nop
  402040:	30420008 	andi	v0,v0,0x8
  402044:	1440004b 	bnez	v0,402174 <willoption+0x1bc>
  402048:	24020001 	li	v0,1
  40204c:	2e020028 	sltiu	v0,s0,40
  402050:	10400017 	beqz	v0,4020b0 <willoption+0xf8>
  402054:	00101080 	sll	v0,s0,0x2
  402058:	8f830008 	lw	v1,8(gp)
  40205c:	00000000 	nop
  402060:	2463d060 	addiu	v1,v1,-12192
  402064:	00621821 	addu	v1,v1,v0
  402068:	8c630000 	lw	v1,0(v1)
  40206c:	00000000 	nop
  402070:	007c1821 	addu	v1,v1,gp
  402074:	00600008 	jr	v1
  402078:	00000000 	nop
  40207c:	8f990380 	lw	t9,896(gp)
  402080:	00000000 	nop
  402084:	0320f809 	jalr	t9
  402088:	00000000 	nop
  40208c:	8f990298 	lw	t9,664(gp)
  402090:	00000000 	nop
  402094:	0320f809 	jalr	t9
  402098:	24040001 	li	a0,1
  40209c:	8f990384 	lw	t9,900(gp)
  4020a0:	00000000 	nop
  4020a4:	0320f809 	jalr	t9
  4020a8:	00000000 	nop
  4020ac:	24050001 	li	a1,1
  4020b0:	10a00014 	beqz	a1,402104 <willoption+0x14c>
  4020b4:	02002021 	move	a0,s0
  4020b8:	02111821 	addu	v1,s0,s1
  4020bc:	90620000 	lbu	v0,0(v1)
  4020c0:	00000000 	nop
  4020c4:	34420008 	ori	v0,v0,0x8
  4020c8:	a0620000 	sb	v0,0(v1)
  4020cc:	8f990120 	lw	t9,288(gp)
  4020d0:	00000000 	nop
  4020d4:	0320f809 	jalr	t9
  4020d8:	00002821 	move	a1,zero
  4020dc:	02111821 	addu	v1,s0,s1
  4020e0:	90620000 	lbu	v0,0(v1)
  4020e4:	00000000 	nop
  4020e8:	34420004 	ori	v0,v0,0x4
  4020ec:	a0620000 	sb	v0,0(v1)
  4020f0:	8fbf0018 	lw	ra,24(sp)
  4020f4:	8fb10014 	lw	s1,20(sp)
  4020f8:	8fb00010 	lw	s0,16(sp)
  4020fc:	03e00008 	jr	ra
  402100:	27bd0020 	addiu	sp,sp,32
  402104:	8f830354 	lw	v1,852(gp)
  402108:	00000000 	nop
  40210c:	00701821 	addu	v1,v1,s0
  402110:	90620000 	lbu	v0,0(v1)
  402114:	00000000 	nop
  402118:	24420001 	addiu	v0,v0,1
  40211c:	00002821 	move	a1,zero
  402120:	a0620000 	sb	v0,0(v1)
  402124:	8f990150 	lw	t9,336(gp)
  402128:	00000000 	nop
  40212c:	0320f809 	jalr	t9
  402130:	00000000 	nop
  402134:	1000ffea 	b	4020e0 <willoption+0x128>
  402138:	02111821 	addu	v1,s0,s1
  40213c:	8f810188 	lw	at,392(gp)
  402140:	00000000 	nop
  402144:	1000ffda 	b	4020b0 <willoption+0xf8>
  402148:	ac200000 	sw	zero,0(at)
  40214c:	8f820110 	lw	v0,272(gp)
  402150:	00000000 	nop
  402154:	24420078 	addiu	v0,v0,120
  402158:	90440000 	lbu	a0,0(v0)
  40215c:	90430008 	lbu	v1,8(v0)
  402160:	34840003 	ori	a0,a0,0x3
  402164:	34630003 	ori	v1,v1,0x3
  402168:	a0430008 	sb	v1,8(v0)
  40216c:	1000ffcf 	b	4020ac <willoption+0xf4>
  402170:	a0440000 	sb	a0,0(v0)
  402174:	1602ffd9 	bne	s0,v0,4020dc <willoption+0x124>
  402178:	24040001 	li	a0,1
  40217c:	8f810188 	lw	at,392(gp)
  402180:	00000000 	nop
  402184:	ac200000 	sw	zero,0(at)
  402188:	1000ffe6 	b	402124 <willoption+0x16c>
  40218c:	24050001 	li	a1,1
  402190:	8f910240 	lw	s1,576(gp)
  402194:	1000ffa1 	b	40201c <willoption+0x64>
  402198:	00000000 	nop

0040219c <send_dont>:
send_dont():
  40219c:	27bdffe8 	addiu	sp,sp,-24
  4021a0:	afbf0010 	sw	ra,16(sp)
  4021a4:	8f830354 	lw	v1,852(gp)
  4021a8:	00000000 	nop
  4021ac:	00641821 	addu	v1,v1,a0
  4021b0:	10a00016 	beqz	a1,40220c <send_dont+0x70>
  4021b4:	00803021 	move	a2,a0
  4021b8:	80620000 	lb	v0,0(v1)
  4021bc:	90650000 	lbu	a1,0(v1)
  4021c0:	8f840240 	lw	a0,576(gp)
  4021c4:	14400027 	bnez	v0,402264 <send_dont+0xc8>
  4021c8:	00000000 	nop
  4021cc:	8f820240 	lw	v0,576(gp)
  4021d0:	00000000 	nop
  4021d4:	00461021 	addu	v0,v0,a2
  4021d8:	90420000 	lbu	v0,0(v0)
  4021dc:	00000000 	nop
  4021e0:	30420004 	andi	v0,v0,0x4
  4021e4:	1040001b 	beqz	v0,402254 <send_dont+0xb8>
  4021e8:	00c42021 	addu	a0,a2,a0
  4021ec:	90820000 	lbu	v0,0(a0)
  4021f0:	24a70001 	addiu	a3,a1,1
  4021f4:	304500f7 	andi	a1,v0,0xf7
  4021f8:	30420008 	andi	v0,v0,0x8
  4021fc:	10400015 	beqz	v0,402254 <send_dont+0xb8>
  402200:	00000000 	nop
  402204:	a0850000 	sb	a1,0(a0)
  402208:	a0670000 	sb	a3,0(v1)
  40220c:	8f8402e0 	lw	a0,736(gp)
  402210:	00000000 	nop
  402214:	8c840000 	lw	a0,0(a0)
  402218:	8f850008 	lw	a1,8(gp)
  40221c:	00000000 	nop
  402220:	24a5e2a4 	addiu	a1,a1,-7516
  402224:	8f99011c 	lw	t9,284(gp)
  402228:	00000000 	nop
  40222c:	0320f809 	jalr	t9
  402230:	00000000 	nop
  402234:	8f8302e0 	lw	v1,736(gp)
  402238:	00000000 	nop
  40223c:	8c630000 	lw	v1,0(v1)
  402240:	00000000 	nop
  402244:	24630003 	addiu	v1,v1,3
  402248:	8f8102e0 	lw	at,736(gp)
  40224c:	00000000 	nop
  402250:	ac230000 	sw	v1,0(at)
  402254:	8fbf0010 	lw	ra,16(sp)
  402258:	00000000 	nop
  40225c:	03e00008 	jr	ra
  402260:	27bd0018 	addiu	sp,sp,24
  402264:	1000ffe1 	b	4021ec <send_dont+0x50>
  402268:	00c42021 	addu	a0,a2,a0

0040226c <wontoption>:
wontoption():
  40226c:	27bdffe8 	addiu	sp,sp,-24
  402270:	afb00010 	sw	s0,16(sp)
  402274:	afbf0014 	sw	ra,20(sp)
  402278:	00808021 	move	s0,a0
  40227c:	8f810354 	lw	at,852(gp)
  402280:	00000000 	nop
  402284:	00242021 	addu	a0,at,a0
  402288:	80820000 	lb	v0,0(a0)
  40228c:	90830000 	lbu	v1,0(a0)
  402290:	1040000d 	beqz	v0,4022c8 <wontoption+0x5c>
  402294:	2463ffff 	addiu	v1,v1,-1
  402298:	00031600 	sll	v0,v1,0x18
  40229c:	1040000a 	beqz	v0,4022c8 <wontoption+0x5c>
  4022a0:	a0830000 	sb	v1,0(a0)
  4022a4:	8f820240 	lw	v0,576(gp)
  4022a8:	00000000 	nop
  4022ac:	00501021 	addu	v0,v0,s0
  4022b0:	90420000 	lbu	v0,0(v0)
  4022b4:	00000000 	nop
  4022b8:	30420004 	andi	v0,v0,0x4
  4022bc:	14400002 	bnez	v0,4022c8 <wontoption+0x5c>
  4022c0:	2462ffff 	addiu	v0,v1,-1
  4022c4:	a0820000 	sb	v0,0(a0)
  4022c8:	8f820354 	lw	v0,852(gp)
  4022cc:	00000000 	nop
  4022d0:	00501021 	addu	v0,v0,s0
  4022d4:	80420000 	lb	v0,0(v0)
  4022d8:	00000000 	nop
  4022dc:	14400022 	bnez	v0,402368 <wontoption+0xfc>
  4022e0:	00000000 	nop
  4022e4:	8f820240 	lw	v0,576(gp)
  4022e8:	00000000 	nop
  4022ec:	00501021 	addu	v0,v0,s0
  4022f0:	90420000 	lbu	v0,0(v0)
  4022f4:	00000000 	nop
  4022f8:	30420008 	andi	v0,v0,0x8
  4022fc:	1040001a 	beqz	v0,402368 <wontoption+0xfc>
  402300:	00000000 	nop
  402304:	2e020028 	sltiu	v0,s0,40
  402308:	1040000e 	beqz	v0,402344 <wontoption+0xd8>
  40230c:	00101080 	sll	v0,s0,0x2
  402310:	8f830008 	lw	v1,8(gp)
  402314:	00000000 	nop
  402318:	2463d100 	addiu	v1,v1,-12032
  40231c:	00621821 	addu	v1,v1,v0
  402320:	8c630000 	lw	v1,0(v1)
  402324:	00000000 	nop
  402328:	007c1821 	addu	v1,v1,gp
  40232c:	00600008 	jr	v1
  402330:	00000000 	nop
  402334:	24020001 	li	v0,1
  402338:	8f810188 	lw	at,392(gp)
  40233c:	00000000 	nop
  402340:	ac220000 	sw	v0,0(at)
  402344:	8f820240 	lw	v0,576(gp)
  402348:	00000000 	nop
  40234c:	00501021 	addu	v0,v0,s0
  402350:	90430000 	lbu	v1,0(v0)
  402354:	00000000 	nop
  402358:	306300f7 	andi	v1,v1,0xf7
  40235c:	30640004 	andi	a0,v1,0x4
  402360:	14800005 	bnez	a0,402378 <wontoption+0x10c>
  402364:	a0430000 	sb	v1,0(v0)
  402368:	8fbf0014 	lw	ra,20(sp)
  40236c:	8fb00010 	lw	s0,16(sp)
  402370:	03e00008 	jr	ra
  402374:	27bd0018 	addiu	sp,sp,24
  402378:	02002021 	move	a0,s0
  40237c:	8f990150 	lw	t9,336(gp)
  402380:	00000000 	nop
  402384:	0320f809 	jalr	t9
  402388:	00002821 	move	a1,zero
  40238c:	1000fff6 	b	402368 <wontoption+0xfc>
  402390:	00000000 	nop
  402394:	8f990380 	lw	t9,896(gp)
  402398:	00000000 	nop
  40239c:	0320f809 	jalr	t9
  4023a0:	00000000 	nop
  4023a4:	8f990298 	lw	t9,664(gp)
  4023a8:	00000000 	nop
  4023ac:	0320f809 	jalr	t9
  4023b0:	00002021 	move	a0,zero
  4023b4:	8f990384 	lw	t9,900(gp)
  4023b8:	00000000 	nop
  4023bc:	0320f809 	jalr	t9
  4023c0:	00000000 	nop
  4023c4:	1000ffdf 	b	402344 <wontoption+0xd8>
  4023c8:	00000000 	nop
  4023cc:	8f830240 	lw	v1,576(gp)
  4023d0:	00000000 	nop
  4023d4:	24630006 	addiu	v1,v1,6
  4023d8:	90620000 	lbu	v0,0(v1)
  4023dc:	00000000 	nop
  4023e0:	304200f7 	andi	v0,v0,0xf7
  4023e4:	1000ffe0 	b	402368 <wontoption+0xfc>
  4023e8:	a0620000 	sb	v0,0(v1)
  4023ec:	8f830184 	lw	v1,388(gp)
  4023f0:	00000000 	nop
  4023f4:	24630010 	addiu	v1,v1,16
  4023f8:	8c62fff0 	lw	v0,-16(v1)
  4023fc:	00000000 	nop
  402400:	24420001 	addiu	v0,v0,1
  402404:	ac620000 	sw	v0,0(v1)
  402408:	1000ffce 	b	402344 <wontoption+0xd8>
  40240c:	ac62fff0 	sw	v0,-16(v1)
  402410:	8f830184 	lw	v1,388(gp)
  402414:	00000000 	nop
  402418:	24630014 	addiu	v1,v1,20
  40241c:	8c62ffec 	lw	v0,-20(v1)
  402420:	00000000 	nop
  402424:	24420001 	addiu	v0,v0,1
  402428:	ac620000 	sw	v0,0(v1)
  40242c:	1000ffc5 	b	402344 <wontoption+0xd8>
  402430:	ac62ffec 	sw	v0,-20(v1)
  402434:	8f850110 	lw	a1,272(gp)
  402438:	00000000 	nop
  40243c:	24a50078 	addiu	a1,a1,120
  402440:	90a30000 	lbu	v1,0(a1)
  402444:	90a20008 	lbu	v0,8(a1)
  402448:	2404fffc 	li	a0,-4
  40244c:	00441024 	and	v0,v0,a0
  402450:	00641824 	and	v1,v1,a0
  402454:	34630001 	ori	v1,v1,0x1
  402458:	34420001 	ori	v0,v0,0x1
  40245c:	a0a20008 	sb	v0,8(a1)
  402460:	1000ffb8 	b	402344 <wontoption+0xd8>
  402464:	a0a30000 	sb	v1,0(a1)
  402468:	8f830184 	lw	v1,388(gp)
  40246c:	00000000 	nop
  402470:	2463001c 	addiu	v1,v1,28
  402474:	8c62ffe4 	lw	v0,-28(v1)
  402478:	00000000 	nop
  40247c:	24420001 	addiu	v0,v0,1
  402480:	ac620000 	sw	v0,0(v1)
  402484:	1000ffaf 	b	402344 <wontoption+0xd8>
  402488:	ac62ffe4 	sw	v0,-28(v1)
  40248c:	8f830184 	lw	v1,388(gp)
  402490:	00000000 	nop
  402494:	24630018 	addiu	v1,v1,24
  402498:	8c62ffe8 	lw	v0,-24(v1)
  40249c:	00000000 	nop
  4024a0:	24420001 	addiu	v0,v0,1
  4024a4:	ac620000 	sw	v0,0(v1)
  4024a8:	1000ffa6 	b	402344 <wontoption+0xd8>
  4024ac:	ac62ffe8 	sw	v0,-24(v1)

004024b0 <send_will>:
send_will():
  4024b0:	27bdffe8 	addiu	sp,sp,-24
  4024b4:	afbf0010 	sw	ra,16(sp)
  4024b8:	8f830278 	lw	v1,632(gp)
  4024bc:	00000000 	nop
  4024c0:	00641821 	addu	v1,v1,a0
  4024c4:	10a00016 	beqz	a1,402520 <send_will+0x70>
  4024c8:	00803021 	move	a2,a0
  4024cc:	80620000 	lb	v0,0(v1)
  4024d0:	90650000 	lbu	a1,0(v1)
  4024d4:	8f840240 	lw	a0,576(gp)
  4024d8:	14400025 	bnez	v0,402570 <send_will+0xc0>
  4024dc:	00000000 	nop
  4024e0:	8f820240 	lw	v0,576(gp)
  4024e4:	00000000 	nop
  4024e8:	00461021 	addu	v0,v0,a2
  4024ec:	90420000 	lbu	v0,0(v0)
  4024f0:	00000000 	nop
  4024f4:	30420001 	andi	v0,v0,0x1
  4024f8:	14400019 	bnez	v0,402560 <send_will+0xb0>
  4024fc:	00c42021 	addu	a0,a2,a0
  402500:	90820000 	lbu	v0,0(a0)
  402504:	24a70001 	addiu	a3,a1,1
  402508:	34450002 	ori	a1,v0,0x2
  40250c:	30420002 	andi	v0,v0,0x2
  402510:	14400013 	bnez	v0,402560 <send_will+0xb0>
  402514:	00000000 	nop
  402518:	a0850000 	sb	a1,0(a0)
  40251c:	a0670000 	sb	a3,0(v1)
  402520:	8f8402e0 	lw	a0,736(gp)
  402524:	00000000 	nop
  402528:	8c840000 	lw	a0,0(a0)
  40252c:	8f8500ac 	lw	a1,172(gp)
  402530:	8f99011c 	lw	t9,284(gp)
  402534:	00000000 	nop
  402538:	0320f809 	jalr	t9
  40253c:	00000000 	nop
  402540:	8f8302e0 	lw	v1,736(gp)
  402544:	00000000 	nop
  402548:	8c630000 	lw	v1,0(v1)
  40254c:	00000000 	nop
  402550:	24630003 	addiu	v1,v1,3
  402554:	8f8102e0 	lw	at,736(gp)
  402558:	00000000 	nop
  40255c:	ac230000 	sw	v1,0(at)
  402560:	8fbf0010 	lw	ra,16(sp)
  402564:	00000000 	nop
  402568:	03e00008 	jr	ra
  40256c:	27bd0018 	addiu	sp,sp,24
  402570:	1000ffe3 	b	402500 <send_will+0x50>
  402574:	00c42021 	addu	a0,a2,a0

00402578 <dooption>:
dooption():
  402578:	27bdffd8 	addiu	sp,sp,-40
  40257c:	afb20018 	sw	s2,24(sp)
  402580:	afb10014 	sw	s1,20(sp)
  402584:	afbf0020 	sw	ra,32(sp)
  402588:	afb3001c 	sw	s3,28(sp)
  40258c:	afb00010 	sw	s0,16(sp)
  402590:	00808821 	move	s1,a0
  402594:	8f810278 	lw	at,632(gp)
  402598:	00000000 	nop
  40259c:	00242021 	addu	a0,at,a0
  4025a0:	80820000 	lb	v0,0(a0)
  4025a4:	90830000 	lbu	v1,0(a0)
  4025a8:	10400086 	beqz	v0,4027c4 <dooption+0x24c>
  4025ac:	00009021 	move	s2,zero
  4025b0:	2463ffff 	addiu	v1,v1,-1
  4025b4:	00031600 	sll	v0,v1,0x18
  4025b8:	10400082 	beqz	v0,4027c4 <dooption+0x24c>
  4025bc:	a0830000 	sb	v1,0(a0)
  4025c0:	8f820240 	lw	v0,576(gp)
  4025c4:	00000000 	nop
  4025c8:	00511021 	addu	v0,v0,s1
  4025cc:	90420000 	lbu	v0,0(v0)
  4025d0:	8f930240 	lw	s3,576(gp)
  4025d4:	30420001 	andi	v0,v0,0x1
  4025d8:	10400002 	beqz	v0,4025e4 <dooption+0x6c>
  4025dc:	2462ffff 	addiu	v0,v1,-1
  4025e0:	a0820000 	sb	v0,0(a0)
  4025e4:	8f820278 	lw	v0,632(gp)
  4025e8:	00000000 	nop
  4025ec:	00511021 	addu	v0,v0,s1
  4025f0:	80420000 	lb	v0,0(v0)
  4025f4:	00000000 	nop
  4025f8:	1440002a 	bnez	v0,4026a4 <dooption+0x12c>
  4025fc:	02331821 	addu	v1,s1,s3
  402600:	90620000 	lbu	v0,0(v1)
  402604:	00000000 	nop
  402608:	30420002 	andi	v0,v0,0x2
  40260c:	14400025 	bnez	v0,4026a4 <dooption+0x12c>
  402610:	2e220028 	sltiu	v0,s1,40
  402614:	10400017 	beqz	v0,402674 <dooption+0xfc>
  402618:	00111080 	sll	v0,s1,0x2
  40261c:	8f830008 	lw	v1,8(gp)
  402620:	00000000 	nop
  402624:	2463d1a0 	addiu	v1,v1,-11872
  402628:	00621821 	addu	v1,v1,v0
  40262c:	8c630000 	lw	v1,0(v1)
  402630:	00000000 	nop
  402634:	007c1821 	addu	v1,v1,gp
  402638:	00600008 	jr	v1
  40263c:	00000000 	nop
  402640:	8f990380 	lw	t9,896(gp)
  402644:	00000000 	nop
  402648:	0320f809 	jalr	t9
  40264c:	00000000 	nop
  402650:	8f990168 	lw	t9,360(gp)
  402654:	00000000 	nop
  402658:	0320f809 	jalr	t9
  40265c:	24040001 	li	a0,1
  402660:	8f990384 	lw	t9,900(gp)
  402664:	00000000 	nop
  402668:	0320f809 	jalr	t9
  40266c:	00000000 	nop
  402670:	24120001 	li	s2,1
  402674:	12400016 	beqz	s2,4026d0 <dooption+0x158>
  402678:	02202021 	move	a0,s1
  40267c:	02331821 	addu	v1,s1,s3
  402680:	90620000 	lbu	v0,0(v1)
  402684:	00000000 	nop
  402688:	34420002 	ori	v0,v0,0x2
  40268c:	a0620000 	sb	v0,0(v1)
  402690:	8f990270 	lw	t9,624(gp)
  402694:	00000000 	nop
  402698:	0320f809 	jalr	t9
  40269c:	00002821 	move	a1,zero
  4026a0:	02331821 	addu	v1,s1,s3
  4026a4:	90620000 	lbu	v0,0(v1)
  4026a8:	00000000 	nop
  4026ac:	34420001 	ori	v0,v0,0x1
  4026b0:	8fbf0020 	lw	ra,32(sp)
  4026b4:	8fb3001c 	lw	s3,28(sp)
  4026b8:	8fb20018 	lw	s2,24(sp)
  4026bc:	8fb10014 	lw	s1,20(sp)
  4026c0:	8fb00010 	lw	s0,16(sp)
  4026c4:	a0620000 	sb	v0,0(v1)
  4026c8:	03e00008 	jr	ra
  4026cc:	27bd0028 	addiu	sp,sp,40
  4026d0:	8f830278 	lw	v1,632(gp)
  4026d4:	00000000 	nop
  4026d8:	00711821 	addu	v1,v1,s1
  4026dc:	90620000 	lbu	v0,0(v1)
  4026e0:	00000000 	nop
  4026e4:	24420001 	addiu	v0,v0,1
  4026e8:	00002821 	move	a1,zero
  4026ec:	8f990280 	lw	t9,640(gp)
  4026f0:	00000000 	nop
  4026f4:	0320f809 	jalr	t9
  4026f8:	a0620000 	sb	v0,0(v1)
  4026fc:	1000ffe9 	b	4026a4 <dooption+0x12c>
  402700:	02331821 	addu	v1,s1,s3
  402704:	8f990380 	lw	t9,896(gp)
  402708:	00000000 	nop
  40270c:	0320f809 	jalr	t9
  402710:	00000000 	nop
  402714:	8f990114 	lw	t9,276(gp)
  402718:	00000000 	nop
  40271c:	0320f809 	jalr	t9
  402720:	24040001 	li	a0,1
  402724:	1000ffce 	b	402660 <dooption+0xe8>
  402728:	00000000 	nop
  40272c:	8f81031c 	lw	at,796(gp)
  402730:	00000000 	nop
  402734:	ac200000 	sw	zero,0(at)
  402738:	1000ffce 	b	402674 <dooption+0xfc>
  40273c:	24120001 	li	s2,1
  402740:	02202021 	move	a0,s1
  402744:	8f990270 	lw	t9,624(gp)
  402748:	00000000 	nop
  40274c:	0320f809 	jalr	t9
  402750:	00002821 	move	a1,zero
  402754:	02331821 	addu	v1,s1,s3
  402758:	90620000 	lbu	v0,0(v1)
  40275c:	1000ffd4 	b	4026b0 <dooption+0x138>
  402760:	304200fc 	andi	v0,v0,0xfc
  402764:	8f900240 	lw	s0,576(gp)
  402768:	00000000 	nop
  40276c:	26100012 	addiu	s0,s0,18
  402770:	92020000 	lbu	v0,0(s0)
  402774:	24040012 	li	a0,18
  402778:	34420002 	ori	v0,v0,0x2
  40277c:	00002821 	move	a1,zero
  402780:	8f990270 	lw	t9,624(gp)
  402784:	00000000 	nop
  402788:	0320f809 	jalr	t9
  40278c:	a2020000 	sb	v0,0(s0)
  402790:	92020000 	lbu	v0,0(s0)
  402794:	00000000 	nop
  402798:	34420001 	ori	v0,v0,0x1
  40279c:	8f9900ec 	lw	t9,236(gp)
  4027a0:	00000000 	nop
  4027a4:	0320f809 	jalr	t9
  4027a8:	a2020000 	sb	v0,0(s0)
  4027ac:	8f990174 	lw	t9,372(gp)
  4027b0:	00000000 	nop
  4027b4:	0320f809 	jalr	t9
  4027b8:	00002021 	move	a0,zero
  4027bc:	1000ffad 	b	402674 <dooption+0xfc>
  4027c0:	00000000 	nop
  4027c4:	8f930240 	lw	s3,576(gp)
  4027c8:	1000ff86 	b	4025e4 <dooption+0x6c>
  4027cc:	00000000 	nop

004027d0 <send_wont>:
send_wont():
  4027d0:	27bdffe8 	addiu	sp,sp,-24
  4027d4:	afbf0010 	sw	ra,16(sp)
  4027d8:	8f830278 	lw	v1,632(gp)
  4027dc:	00000000 	nop
  4027e0:	00641821 	addu	v1,v1,a0
  4027e4:	10a00016 	beqz	a1,402840 <send_wont+0x70>
  4027e8:	00803021 	move	a2,a0
  4027ec:	80620000 	lb	v0,0(v1)
  4027f0:	90650000 	lbu	a1,0(v1)
  4027f4:	8f840240 	lw	a0,576(gp)
  4027f8:	14400025 	bnez	v0,402890 <send_wont+0xc0>
  4027fc:	00000000 	nop
  402800:	8f820240 	lw	v0,576(gp)
  402804:	00000000 	nop
  402808:	00461021 	addu	v0,v0,a2
  40280c:	90420000 	lbu	v0,0(v0)
  402810:	00000000 	nop
  402814:	30420001 	andi	v0,v0,0x1
  402818:	10400019 	beqz	v0,402880 <send_wont+0xb0>
  40281c:	00c42021 	addu	a0,a2,a0
  402820:	90820000 	lbu	v0,0(a0)
  402824:	24a70001 	addiu	a3,a1,1
  402828:	304500fd 	andi	a1,v0,0xfd
  40282c:	30420002 	andi	v0,v0,0x2
  402830:	10400013 	beqz	v0,402880 <send_wont+0xb0>
  402834:	00000000 	nop
  402838:	a0850000 	sb	a1,0(a0)
  40283c:	a0670000 	sb	a3,0(v1)
  402840:	8f8402e0 	lw	a0,736(gp)
  402844:	00000000 	nop
  402848:	8c840000 	lw	a0,0(a0)
  40284c:	8f850170 	lw	a1,368(gp)
  402850:	8f99011c 	lw	t9,284(gp)
  402854:	00000000 	nop
  402858:	0320f809 	jalr	t9
  40285c:	00000000 	nop
  402860:	8f8302e0 	lw	v1,736(gp)
  402864:	00000000 	nop
  402868:	8c630000 	lw	v1,0(v1)
  40286c:	00000000 	nop
  402870:	24630003 	addiu	v1,v1,3
  402874:	8f8102e0 	lw	at,736(gp)
  402878:	00000000 	nop
  40287c:	ac230000 	sw	v1,0(at)
  402880:	8fbf0010 	lw	ra,16(sp)
  402884:	00000000 	nop
  402888:	03e00008 	jr	ra
  40288c:	27bd0018 	addiu	sp,sp,24
  402890:	1000ffe3 	b	402820 <send_wont+0x50>
  402894:	00c42021 	addu	a0,a2,a0

00402898 <dontoption>:
dontoption():
  402898:	27bdffe0 	addiu	sp,sp,-32
  40289c:	afb00010 	sw	s0,16(sp)
  4028a0:	afbf0018 	sw	ra,24(sp)
  4028a4:	afb10014 	sw	s1,20(sp)
  4028a8:	00808021 	move	s0,a0
  4028ac:	8f810278 	lw	at,632(gp)
  4028b0:	00000000 	nop
  4028b4:	00242021 	addu	a0,at,a0
  4028b8:	80820000 	lb	v0,0(a0)
  4028bc:	90830000 	lbu	v1,0(a0)
  4028c0:	10400075 	beqz	v0,402a98 <dontoption+0x200>
  4028c4:	2463ffff 	addiu	v1,v1,-1
  4028c8:	00031600 	sll	v0,v1,0x18
  4028cc:	10400072 	beqz	v0,402a98 <dontoption+0x200>
  4028d0:	a0830000 	sb	v1,0(a0)
  4028d4:	8f820240 	lw	v0,576(gp)
  4028d8:	00000000 	nop
  4028dc:	00501021 	addu	v0,v0,s0
  4028e0:	90420000 	lbu	v0,0(v0)
  4028e4:	8f910240 	lw	s1,576(gp)
  4028e8:	30420001 	andi	v0,v0,0x1
  4028ec:	14400002 	bnez	v0,4028f8 <dontoption+0x60>
  4028f0:	2462ffff 	addiu	v0,v1,-1
  4028f4:	a0820000 	sb	v0,0(a0)
  4028f8:	8f820278 	lw	v0,632(gp)
  4028fc:	00000000 	nop
  402900:	00501021 	addu	v0,v0,s0
  402904:	80420000 	lb	v0,0(v0)
  402908:	00000000 	nop
  40290c:	14400015 	bnez	v0,402964 <dontoption+0xcc>
  402910:	02111821 	addu	v1,s0,s1
  402914:	90620000 	lbu	v0,0(v1)
  402918:	00000000 	nop
  40291c:	30420002 	andi	v0,v0,0x2
  402920:	10400010 	beqz	v0,402964 <dontoption+0xcc>
  402924:	24020001 	li	v0,1
  402928:	12020051 	beq	s0,v0,402a70 <dontoption+0x1d8>
  40292c:	00000000 	nop
  402930:	2a020002 	slti	v0,s0,2
  402934:	1440003e 	bnez	v0,402a30 <dontoption+0x198>
  402938:	24020003 	li	v0,3
  40293c:	12020019 	beq	s0,v0,4029a4 <dontoption+0x10c>
  402940:	00000000 	nop
  402944:	02111021 	addu	v0,s0,s1
  402948:	90430000 	lbu	v1,0(v0)
  40294c:	00000000 	nop
  402950:	306300fd 	andi	v1,v1,0xfd
  402954:	30640001 	andi	a0,v1,0x1
  402958:	1480000b 	bnez	a0,402988 <dontoption+0xf0>
  40295c:	a0430000 	sb	v1,0(v0)
  402960:	02111821 	addu	v1,s0,s1
  402964:	90620000 	lbu	v0,0(v1)
  402968:	00000000 	nop
  40296c:	304200fe 	andi	v0,v0,0xfe
  402970:	a0620000 	sb	v0,0(v1)
  402974:	8fbf0018 	lw	ra,24(sp)
  402978:	8fb10014 	lw	s1,20(sp)
  40297c:	8fb00010 	lw	s0,16(sp)
  402980:	03e00008 	jr	ra
  402984:	27bd0020 	addiu	sp,sp,32
  402988:	02002021 	move	a0,s0
  40298c:	8f990280 	lw	t9,640(gp)
  402990:	00000000 	nop
  402994:	0320f809 	jalr	t9
  402998:	00002821 	move	a1,zero
  40299c:	1000fff1 	b	402964 <dontoption+0xcc>
  4029a0:	02111821 	addu	v1,s0,s1
  4029a4:	8f820240 	lw	v0,576(gp)
  4029a8:	00000000 	nop
  4029ac:	90420003 	lbu	v0,3(v0)
  4029b0:	00000000 	nop
  4029b4:	304200fd 	andi	v0,v0,0xfd
  4029b8:	30430001 	andi	v1,v0,0x1
  4029bc:	14600015 	bnez	v1,402a14 <dontoption+0x17c>
  4029c0:	a2220003 	sb	v0,3(s1)
  4029c4:	8f830240 	lw	v1,576(gp)
  4029c8:	00000000 	nop
  4029cc:	90630003 	lbu	v1,3(v1)
  4029d0:	8f82031c 	lw	v0,796(gp)
  4029d4:	00000000 	nop
  4029d8:	8c420000 	lw	v0,0(v0)
  4029dc:	306300fe 	andi	v1,v1,0xfe
  4029e0:	38420001 	xori	v0,v0,0x1
  4029e4:	a2230003 	sb	v1,3(s1)
  4029e8:	8f81031c 	lw	at,796(gp)
  4029ec:	00000000 	nop
  4029f0:	ac220000 	sw	v0,0(at)
  4029f4:	1040ffdf 	beqz	v0,402974 <dontoption+0xdc>
  4029f8:	24040003 	li	a0,3
  4029fc:	8f990270 	lw	t9,624(gp)
  402a00:	00000000 	nop
  402a04:	0320f809 	jalr	t9
  402a08:	24050001 	li	a1,1
  402a0c:	1000ffd9 	b	402974 <dontoption+0xdc>
  402a10:	00000000 	nop
  402a14:	24040003 	li	a0,3
  402a18:	8f990280 	lw	t9,640(gp)
  402a1c:	00000000 	nop
  402a20:	0320f809 	jalr	t9
  402a24:	00002821 	move	a1,zero
  402a28:	1000ffe6 	b	4029c4 <dontoption+0x12c>
  402a2c:	00000000 	nop
  402a30:	1600ffc4 	bnez	s0,402944 <dontoption+0xac>
  402a34:	00000000 	nop
  402a38:	8f990380 	lw	t9,896(gp)
  402a3c:	00000000 	nop
  402a40:	0320f809 	jalr	t9
  402a44:	00000000 	nop
  402a48:	8f990114 	lw	t9,276(gp)
  402a4c:	00000000 	nop
  402a50:	0320f809 	jalr	t9
  402a54:	00002021 	move	a0,zero
  402a58:	8f990384 	lw	t9,900(gp)
  402a5c:	00000000 	nop
  402a60:	0320f809 	jalr	t9
  402a64:	00000000 	nop
  402a68:	1000ffb7 	b	402948 <dontoption+0xb0>
  402a6c:	02111021 	addu	v0,s0,s1
  402a70:	8f990380 	lw	t9,896(gp)
  402a74:	00000000 	nop
  402a78:	0320f809 	jalr	t9
  402a7c:	00000000 	nop
  402a80:	8f990168 	lw	t9,360(gp)
  402a84:	00000000 	nop
  402a88:	0320f809 	jalr	t9
  402a8c:	00002021 	move	a0,zero
  402a90:	1000fff1 	b	402a58 <dontoption+0x1c0>
  402a94:	00000000 	nop
  402a98:	8f910240 	lw	s1,576(gp)
  402a9c:	1000ff96 	b	4028f8 <dontoption+0x60>
  402aa0:	00000000 	nop

00402aa4 <suboption>:
suboption():
  402aa4:	27bdffd8 	addiu	sp,sp,-40
  402aa8:	afbf0020 	sw	ra,32(sp)
  402aac:	afb3001c 	sw	s3,28(sp)
  402ab0:	afb20018 	sw	s2,24(sp)
  402ab4:	afb10014 	sw	s1,20(sp)
  402ab8:	afb00010 	sw	s0,16(sp)
  402abc:	8f8500b0 	lw	a1,176(gp)
  402ac0:	00000000 	nop
  402ac4:	8ca20000 	lw	v0,0(a1)
  402ac8:	00000000 	nop
  402acc:	90430000 	lbu	v1,0(v0)
  402ad0:	24420001 	addiu	v0,v0,1
  402ad4:	2463fffb 	addiu	v1,v1,-5
  402ad8:	2c640023 	sltiu	a0,v1,35
  402adc:	10800040 	beqz	a0,402be0 <suboption+0x13c>
  402ae0:	aca20000 	sw	v0,0(a1)
  402ae4:	00031080 	sll	v0,v1,0x2
  402ae8:	8f830008 	lw	v1,8(gp)
  402aec:	00000000 	nop
  402af0:	2463d248 	addiu	v1,v1,-11704
  402af4:	00621821 	addu	v1,v1,v0
  402af8:	8c630000 	lw	v1,0(v1)
  402afc:	00000000 	nop
  402b00:	007c1821 	addu	v1,v1,gp
  402b04:	00600008 	jr	v1
  402b08:	00000000 	nop
  402b0c:	8f820240 	lw	v0,576(gp)
  402b10:	00000000 	nop
  402b14:	90420020 	lbu	v0,32(v0)
  402b18:	00000000 	nop
  402b1c:	30420004 	andi	v0,v0,0x4
  402b20:	1040002f 	beqz	v0,402be0 <suboption+0x13c>
  402b24:	00000000 	nop
  402b28:	8f840184 	lw	a0,388(gp)
  402b2c:	00000000 	nop
  402b30:	24840014 	addiu	a0,a0,20
  402b34:	8f850064 	lw	a1,100(gp)
  402b38:	00000000 	nop
  402b3c:	8ca50000 	lw	a1,0(a1)
  402b40:	8c83ffec 	lw	v1,-20(a0)
  402b44:	8f8200b0 	lw	v0,176(gp)
  402b48:	00000000 	nop
  402b4c:	8c420000 	lw	v0,0(v0)
  402b50:	24630001 	addiu	v1,v1,1
  402b54:	0045102b 	sltu	v0,v0,a1
  402b58:	00a08021 	move	s0,a1
  402b5c:	ac830000 	sw	v1,0(a0)
  402b60:	1040001f 	beqz	v0,402be0 <suboption+0x13c>
  402b64:	ac83ffec 	sw	v1,-20(a0)
  402b68:	8f9100b0 	lw	s1,176(gp)
  402b6c:	00000000 	nop
  402b70:	8e220000 	lw	v0,0(s1)
  402b74:	00000000 	nop
  402b78:	90430000 	lbu	v1,0(v0)
  402b7c:	24420001 	addiu	v0,v0,1
  402b80:	14600017 	bnez	v1,402be0 <suboption+0x13c>
  402b84:	ae220000 	sw	v0,0(s1)
  402b88:	8f990080 	lw	t9,128(gp)
  402b8c:	00000000 	nop
  402b90:	0320f809 	jalr	t9
  402b94:	00402021 	move	a0,v0
  402b98:	00409021 	move	s2,v0
  402b9c:	02202021 	move	a0,s1
  402ba0:	2405002c 	li	a1,44
  402ba4:	8c820000 	lw	v0,0(a0)
  402ba8:	00000000 	nop
  402bac:	90430000 	lbu	v1,0(v0)
  402bb0:	24420001 	addiu	v0,v0,1
  402bb4:	10a3001e 	beq	a1,v1,402c30 <suboption+0x18c>
  402bb8:	ac820000 	sw	v0,0(a0)
  402bbc:	8f8700b0 	lw	a3,176(gp)
  402bc0:	00000000 	nop
  402bc4:	8ce70000 	lw	a3,0(a3)
  402bc8:	00000000 	nop
  402bcc:	00f0102b 	sltu	v0,a3,s0
  402bd0:	1440fff4 	bnez	v0,402ba4 <suboption+0x100>
  402bd4:	00000000 	nop
  402bd8:	14400008 	bnez	v0,402bfc <suboption+0x158>
  402bdc:	00000000 	nop
  402be0:	8fbf0020 	lw	ra,32(sp)
  402be4:	8fb3001c 	lw	s3,28(sp)
  402be8:	8fb20018 	lw	s2,24(sp)
  402bec:	8fb10014 	lw	s1,20(sp)
  402bf0:	8fb00010 	lw	s0,16(sp)
  402bf4:	03e00008 	jr	ra
  402bf8:	27bd0028 	addiu	sp,sp,40
  402bfc:	8f990080 	lw	t9,128(gp)
  402c00:	00000000 	nop
  402c04:	0320f809 	jalr	t9
  402c08:	00e02021 	move	a0,a3
  402c0c:	00403021 	move	a2,v0
  402c10:	02402821 	move	a1,s2
  402c14:	24040020 	li	a0,32
  402c18:	8f990040 	lw	t9,64(gp)
  402c1c:	00000000 	nop
  402c20:	0320f809 	jalr	t9
  402c24:	00000000 	nop
  402c28:	1000ffed 	b	402be0 <suboption+0x13c>
  402c2c:	00000000 	nop
  402c30:	8f8700b0 	lw	a3,176(gp)
  402c34:	00000000 	nop
  402c38:	8ce70000 	lw	a3,0(a3)
  402c3c:	1000ffe6 	b	402bd8 <suboption+0x134>
  402c40:	00f0102b 	sltu	v0,a3,s0
  402c44:	8f8200b0 	lw	v0,176(gp)
  402c48:	00000000 	nop
  402c4c:	8c420000 	lw	v0,0(v0)
  402c50:	8f830064 	lw	v1,100(gp)
  402c54:	00000000 	nop
  402c58:	8c630000 	lw	v1,0(v1)
  402c5c:	00000000 	nop
  402c60:	0043102b 	sltu	v0,v0,v1
  402c64:	1040ffde 	beqz	v0,402be0 <suboption+0x13c>
  402c68:	00000000 	nop
  402c6c:	8f8300b0 	lw	v1,176(gp)
  402c70:	00000000 	nop
  402c74:	8c620000 	lw	v0,0(v1)
  402c78:	00000000 	nop
  402c7c:	90440000 	lbu	a0,0(v0)
  402c80:	24420001 	addiu	v0,v0,1
  402c84:	1080ffd6 	beqz	a0,402be0 <suboption+0x13c>
  402c88:	ac620000 	sw	v0,0(v1)
  402c8c:	24020001 	li	v0,1
  402c90:	1482ffd3 	bne	a0,v0,402be0 <suboption+0x13c>
  402c94:	00000000 	nop
  402c98:	8f820240 	lw	v0,576(gp)
  402c9c:	00000000 	nop
  402ca0:	90420005 	lbu	v0,5(v0)
  402ca4:	00000000 	nop
  402ca8:	30420001 	andi	v0,v0,0x1
  402cac:	1040ffcc 	beqz	v0,402be0 <suboption+0x13c>
  402cb0:	00000000 	nop
  402cb4:	8f990208 	lw	t9,520(gp)
  402cb8:	00000000 	nop
  402cbc:	0320f809 	jalr	t9
  402cc0:	00000000 	nop
  402cc4:	1000ffc6 	b	402be0 <suboption+0x13c>
  402cc8:	00000000 	nop
  402ccc:	8f820240 	lw	v0,576(gp)
  402cd0:	00000000 	nop
  402cd4:	90420018 	lbu	v0,24(v0)
  402cd8:	00000000 	nop
  402cdc:	30420004 	andi	v0,v0,0x4
  402ce0:	1040ffbf 	beqz	v0,402be0 <suboption+0x13c>
  402ce4:	00000000 	nop
  402ce8:	8f840184 	lw	a0,388(gp)
  402cec:	00000000 	nop
  402cf0:	24840010 	addiu	a0,a0,16
  402cf4:	8c83fff0 	lw	v1,-16(a0)
  402cf8:	8f850064 	lw	a1,100(gp)
  402cfc:	00000000 	nop
  402d00:	8ca50000 	lw	a1,0(a1)
  402d04:	8f8200b0 	lw	v0,176(gp)
  402d08:	00000000 	nop
  402d0c:	8c420000 	lw	v0,0(v0)
  402d10:	24630001 	addiu	v1,v1,1
  402d14:	0045102b 	sltu	v0,v0,a1
  402d18:	ac830000 	sw	v1,0(a0)
  402d1c:	1040ffb0 	beqz	v0,402be0 <suboption+0x13c>
  402d20:	ac83fff0 	sw	v1,-16(a0)
  402d24:	8f8600b0 	lw	a2,176(gp)
  402d28:	00000000 	nop
  402d2c:	8cc20000 	lw	v0,0(a2)
  402d30:	00000000 	nop
  402d34:	90430000 	lbu	v1,0(v0)
  402d38:	24420001 	addiu	v0,v0,1
  402d3c:	1460ffa8 	bnez	v1,402be0 <suboption+0x13c>
  402d40:	acc20000 	sw	v0,0(a2)
  402d44:	8f840008 	lw	a0,8(gp)
  402d48:	00000000 	nop
  402d4c:	2484e780 	addiu	a0,a0,-6272
  402d50:	00000000 	nop
  402d54:	24830028 	addiu	v1,a0,40
  402d58:	0083102b 	sltu	v0,a0,v1
  402d5c:	8f8102e8 	lw	at,744(gp)
  402d60:	00000000 	nop
  402d64:	10400039 	beqz	v0,402e4c <suboption+0x3a8>
  402d68:	ac240000 	sw	a0,0(at)
  402d6c:	8f8200b0 	lw	v0,176(gp)
  402d70:	00000000 	nop
  402d74:	8c420000 	lw	v0,0(v0)
  402d78:	00000000 	nop
  402d7c:	0045102b 	sltu	v0,v0,a1
  402d80:	10400024 	beqz	v0,402e14 <suboption+0x370>
  402d84:	00c09021 	move	s2,a2
  402d88:	00609821 	move	s3,v1
  402d8c:	8f9102e8 	lw	s1,744(gp)
  402d90:	8e420000 	lw	v0,0(s2)
  402d94:	00000000 	nop
  402d98:	90500000 	lbu	s0,0(v0)
  402d9c:	24420001 	addiu	v0,v0,1
  402da0:	02002021 	move	a0,s0
  402da4:	8f9901d8 	lw	t9,472(gp)
  402da8:	00000000 	nop
  402dac:	0320f809 	jalr	t9
  402db0:	ae420000 	sw	v0,0(s2)
  402db4:	1440001f 	bnez	v0,402e34 <suboption+0x390>
  402db8:	00000000 	nop
  402dbc:	8e220000 	lw	v0,0(s1)
  402dc0:	00000000 	nop
  402dc4:	a0500000 	sb	s0,0(v0)
  402dc8:	24420001 	addiu	v0,v0,1
  402dcc:	ae220000 	sw	v0,0(s1)
  402dd0:	8f8402e8 	lw	a0,744(gp)
  402dd4:	00000000 	nop
  402dd8:	8c840000 	lw	a0,0(a0)
  402ddc:	00000000 	nop
  402de0:	0093102b 	sltu	v0,a0,s3
  402de4:	1040000b 	beqz	v0,402e14 <suboption+0x370>
  402de8:	00000000 	nop
  402dec:	8f8200b0 	lw	v0,176(gp)
  402df0:	00000000 	nop
  402df4:	8c420000 	lw	v0,0(v0)
  402df8:	8f830064 	lw	v1,100(gp)
  402dfc:	00000000 	nop
  402e00:	8c630000 	lw	v1,0(v1)
  402e04:	00000000 	nop
  402e08:	0043102b 	sltu	v0,v0,v1
  402e0c:	1440ffe0 	bnez	v0,402d90 <suboption+0x2ec>
  402e10:	00000000 	nop
  402e14:	a0800000 	sb	zero,0(a0)
  402e18:	8f840008 	lw	a0,8(gp)
  402e1c:	00000000 	nop
  402e20:	2484e780 	addiu	a0,a0,-6272
  402e24:	8f8102e8 	lw	at,744(gp)
  402e28:	00000000 	nop
  402e2c:	1000ff6c 	b	402be0 <suboption+0x13c>
  402e30:	ac240000 	sw	a0,0(at)
  402e34:	8f9902f8 	lw	t9,760(gp)
  402e38:	00000000 	nop
  402e3c:	0320f809 	jalr	t9
  402e40:	02002021 	move	a0,s0
  402e44:	1000ffdd 	b	402dbc <suboption+0x318>
  402e48:	00408021 	move	s0,v0
  402e4c:	8f8402e8 	lw	a0,744(gp)
  402e50:	00000000 	nop
  402e54:	8c840000 	lw	a0,0(a0)
  402e58:	1000ffef 	b	402e18 <suboption+0x374>
  402e5c:	a0800000 	sb	zero,0(a0)
  402e60:	8f820240 	lw	v0,576(gp)
  402e64:	00000000 	nop
  402e68:	9042001f 	lbu	v0,31(v0)
  402e6c:	00000000 	nop
  402e70:	30420004 	andi	v0,v0,0x4
  402e74:	1040ff5a 	beqz	v0,402be0 <suboption+0x13c>
  402e78:	00000000 	nop
  402e7c:	8f880064 	lw	t0,100(gp)
  402e80:	00000000 	nop
  402e84:	8d080000 	lw	t0,0(t0)
  402e88:	8f8200b0 	lw	v0,176(gp)
  402e8c:	00000000 	nop
  402e90:	8c420000 	lw	v0,0(v0)
  402e94:	00000000 	nop
  402e98:	0048102b 	sltu	v0,v0,t0
  402e9c:	1040ff50 	beqz	v0,402be0 <suboption+0x13c>
  402ea0:	00000000 	nop
  402ea4:	8f8200b0 	lw	v0,176(gp)
  402ea8:	00000000 	nop
  402eac:	8c440000 	lw	a0,0(v0)
  402eb0:	00000000 	nop
  402eb4:	90830000 	lbu	v1,0(a0)
  402eb8:	24840001 	addiu	a0,a0,1
  402ebc:	ac440000 	sw	a0,0(v0)
  402ec0:	0088102b 	sltu	v0,a0,t0
  402ec4:	1040ff46 	beqz	v0,402be0 <suboption+0x13c>
  402ec8:	00032a00 	sll	a1,v1,0x8
  402ecc:	90820000 	lbu	v0,0(a0)
  402ed0:	24870001 	addiu	a3,a0,1
  402ed4:	00e8182b 	sltu	v1,a3,t0
  402ed8:	8f8100b0 	lw	at,176(gp)
  402edc:	00000000 	nop
  402ee0:	ac270000 	sw	a3,0(at)
  402ee4:	1060ff3e 	beqz	v1,402be0 <suboption+0x13c>
  402ee8:	00a22825 	or	a1,a1,v0
  402eec:	90820001 	lbu	v0,1(a0)
  402ef0:	24870002 	addiu	a3,a0,2
  402ef4:	00e8182b 	sltu	v1,a3,t0
  402ef8:	8f8100b0 	lw	at,176(gp)
  402efc:	00000000 	nop
  402f00:	ac270000 	sw	a3,0(at)
  402f04:	1060ff36 	beqz	v1,402be0 <suboption+0x13c>
  402f08:	00023200 	sll	a2,v0,0x8
  402f0c:	90820002 	lbu	v0,2(a0)
  402f10:	24870003 	addiu	a3,a0,3
  402f14:	00c23025 	or	a2,a2,v0
  402f18:	8f8100b0 	lw	at,176(gp)
  402f1c:	00000000 	nop
  402f20:	ac270000 	sw	a3,0(at)
  402f24:	1000ff3c 	b	402c18 <suboption+0x174>
  402f28:	2404001f 	li	a0,31
  402f2c:	8f850064 	lw	a1,100(gp)
  402f30:	00000000 	nop
  402f34:	8ca50000 	lw	a1,0(a1)
  402f38:	8f8200b0 	lw	v0,176(gp)
  402f3c:	00000000 	nop
  402f40:	8c420000 	lw	v0,0(v0)
  402f44:	00000000 	nop
  402f48:	0045102b 	sltu	v0,v0,a1
  402f4c:	1040ff24 	beqz	v0,402be0 <suboption+0x13c>
  402f50:	00000000 	nop
  402f54:	8f8200b0 	lw	v0,176(gp)
  402f58:	00000000 	nop
  402f5c:	8c430000 	lw	v1,0(v0)
  402f60:	00000000 	nop
  402f64:	90640000 	lbu	a0,0(v1)
  402f68:	24630001 	addiu	v1,v1,1
  402f6c:	1480ff1c 	bnez	a0,402be0 <suboption+0x13c>
  402f70:	ac430000 	sw	v1,0(v0)
  402f74:	8f830184 	lw	v1,388(gp)
  402f78:	00000000 	nop
  402f7c:	2463001c 	addiu	v1,v1,28
  402f80:	8c62ffe4 	lw	v0,-28(v1)
  402f84:	8f840008 	lw	a0,8(gp)
  402f88:	00000000 	nop
  402f8c:	2484d240 	addiu	a0,a0,-11712
  402f90:	24420001 	addiu	v0,v0,1
  402f94:	ac620000 	sw	v0,0(v1)
  402f98:	ac62ffe4 	sw	v0,-28(v1)
  402f9c:	a0a00000 	sb	zero,0(a1)
  402fa0:	8f8500b0 	lw	a1,176(gp)
  402fa4:	00000000 	nop
  402fa8:	8ca50000 	lw	a1,0(a1)
  402fac:	8f9901cc 	lw	t9,460(gp)
  402fb0:	00000000 	nop
  402fb4:	0320f809 	jalr	t9
  402fb8:	24060001 	li	a2,1
  402fbc:	1000ff08 	b	402be0 <suboption+0x13c>
  402fc0:	00000000 	nop
  402fc4:	8f850064 	lw	a1,100(gp)
  402fc8:	00000000 	nop
  402fcc:	8ca50000 	lw	a1,0(a1)
  402fd0:	8f8200b0 	lw	v0,176(gp)
  402fd4:	00000000 	nop
  402fd8:	8c420000 	lw	v0,0(v0)
  402fdc:	00000000 	nop
  402fe0:	0045102b 	sltu	v0,v0,a1
  402fe4:	1040fefe 	beqz	v0,402be0 <suboption+0x13c>
  402fe8:	00a03021 	move	a2,a1
  402fec:	8f8300b0 	lw	v1,176(gp)
  402ff0:	00000000 	nop
  402ff4:	8c620000 	lw	v0,0(v1)
  402ff8:	00000000 	nop
  402ffc:	90440000 	lbu	a0,0(v0)
  403000:	24420001 	addiu	v0,v0,1
  403004:	14800051 	bnez	a0,40314c <suboption+0x6a8>
  403008:	ac620000 	sw	v0,0(v1)
  40300c:	8f830184 	lw	v1,388(gp)
  403010:	00000000 	nop
  403014:	24630018 	addiu	v1,v1,24
  403018:	8c62ffe8 	lw	v0,-24(v1)
  40301c:	00000000 	nop
  403020:	24420001 	addiu	v0,v0,1
  403024:	ac620000 	sw	v0,0(v1)
  403028:	ac62ffe8 	sw	v0,-24(v1)
  40302c:	8f8400b0 	lw	a0,176(gp)
  403030:	8f8700b0 	lw	a3,176(gp)
  403034:	00000000 	nop
  403038:	8ce70000 	lw	a3,0(a3)
  40303c:	00000000 	nop
  403040:	00e6102b 	sltu	v0,a3,a2
  403044:	1040000c 	beqz	v0,403078 <suboption+0x5d4>
  403048:	00000000 	nop
  40304c:	8c820000 	lw	v0,0(a0)
  403050:	00000000 	nop
  403054:	90430000 	lbu	v1,0(v0)
  403058:	24420001 	addiu	v0,v0,1
  40305c:	1460fff4 	bnez	v1,403030 <suboption+0x58c>
  403060:	ac820000 	sw	v0,0(a0)
  403064:	8f8700b0 	lw	a3,176(gp)
  403068:	00000000 	nop
  40306c:	8ce70000 	lw	a3,0(a3)
  403070:	00000000 	nop
  403074:	00e6102b 	sltu	v0,a3,a2
  403078:	1040fed9 	beqz	v0,402be0 <suboption+0x13c>
  40307c:	00e03021 	move	a2,a3
  403080:	8f8800b0 	lw	t0,176(gp)
  403084:	24090001 	li	t1,1
  403088:	240a0002 	li	t2,2
  40308c:	8d030000 	lw	v1,0(t0)
  403090:	00000000 	nop
  403094:	90640000 	lbu	a0,0(v1)
  403098:	24630001 	addiu	v1,v1,1
  40309c:	10890022 	beq	a0,t1,403128 <suboption+0x684>
  4030a0:	ad030000 	sw	v1,0(t0)
  4030a4:	28820002 	slti	v0,a0,2
  4030a8:	1440001d 	bnez	v0,403120 <suboption+0x67c>
  4030ac:	00000000 	nop
  4030b0:	108a000e 	beq	a0,t2,4030ec <suboption+0x648>
  4030b4:	00000000 	nop
  4030b8:	a0c40000 	sb	a0,0(a2)
  4030bc:	8f8700b0 	lw	a3,176(gp)
  4030c0:	00000000 	nop
  4030c4:	8ce70000 	lw	a3,0(a3)
  4030c8:	8f850064 	lw	a1,100(gp)
  4030cc:	00000000 	nop
  4030d0:	8ca50000 	lw	a1,0(a1)
  4030d4:	24c60001 	addiu	a2,a2,1
  4030d8:	00e5102b 	sltu	v0,a3,a1
  4030dc:	1440ffeb 	bnez	v0,40308c <suboption+0x5e8>
  4030e0:	00000000 	nop
  4030e4:	1000febe 	b	402be0 <suboption+0x13c>
  4030e8:	a0c00000 	sb	zero,0(a2)
  4030ec:	8f8700b0 	lw	a3,176(gp)
  4030f0:	00000000 	nop
  4030f4:	8ce70000 	lw	a3,0(a3)
  4030f8:	00000000 	nop
  4030fc:	00e5102b 	sltu	v0,a3,a1
  403100:	1040fff6 	beqz	v0,4030dc <suboption+0x638>
  403104:	24670001 	addiu	a3,v1,1
  403108:	90640000 	lbu	a0,0(v1)
  40310c:	8f8100b0 	lw	at,176(gp)
  403110:	00000000 	nop
  403114:	ac270000 	sw	a3,0(at)
  403118:	1000ffe8 	b	4030bc <suboption+0x618>
  40311c:	a0c40000 	sb	a0,0(a2)
  403120:	1480ffe5 	bnez	a0,4030b8 <suboption+0x614>
  403124:	00000000 	nop
  403128:	a0c00000 	sb	zero,0(a2)
  40312c:	8f8600b0 	lw	a2,176(gp)
  403130:	00000000 	nop
  403134:	8cc60000 	lw	a2,0(a2)
  403138:	8f850064 	lw	a1,100(gp)
  40313c:	00000000 	nop
  403140:	8ca50000 	lw	a1,0(a1)
  403144:	1000ffe4 	b	4030d8 <suboption+0x634>
  403148:	00c03821 	move	a3,a2
  40314c:	24020002 	li	v0,2
  403150:	1482fea3 	bne	a0,v0,402be0 <suboption+0x13c>
  403154:	00000000 	nop
  403158:	1000ffb4 	b	40302c <suboption+0x588>
  40315c:	00000000 	nop

00403160 <send_status>:
send_status():
  403160:	27bdfee8 	addiu	sp,sp,-280
  403164:	afbf0110 	sw	ra,272(sp)
  403168:	8f9900ec 	lw	t9,236(gp)
  40316c:	00000000 	nop
  403170:	0320f809 	jalr	t9
  403174:	00000000 	nop
  403178:	2402ffff 	li	v0,-1
  40317c:	8f880240 	lw	t0,576(gp)
  403180:	a3a20010 	sb	v0,16(sp)
  403184:	2403fffa 	li	v1,-6
  403188:	24020005 	li	v0,5
  40318c:	a3a30011 	sb	v1,17(sp)
  403190:	a3a20012 	sb	v0,18(sp)
  403194:	a3a00013 	sb	zero,19(sp)
  403198:	27a40010 	addiu	a0,sp,16
  40319c:	27a50014 	addiu	a1,sp,20
  4031a0:	00003021 	move	a2,zero
  4031a4:	240efffb 	li	t6,-5
  4031a8:	240d00f0 	li	t5,240
  4031ac:	240c00ff 	li	t4,255
  4031b0:	2418ffff 	li	t8,-1
  4031b4:	01003821 	move	a3,t0
  4031b8:	240bfffd 	li	t3,-3
  4031bc:	240a00f0 	li	t2,240
  4031c0:	240900ff 	li	t1,255
  4031c4:	240fffff 	li	t7,-1
  4031c8:	00c81821 	addu	v1,a2,t0
  4031cc:	90620000 	lbu	v0,0(v1)
  4031d0:	00000000 	nop
  4031d4:	30420002 	andi	v0,v0,0x2
  4031d8:	10400008 	beqz	v0,4031fc <send_status+0x9c>
  4031dc:	00000000 	nop
  4031e0:	a0ae0000 	sb	t6,0(a1)
  4031e4:	24a50001 	addiu	a1,a1,1
  4031e8:	a0a60000 	sb	a2,0(a1)
  4031ec:	10cd0044 	beq	a2,t5,403300 <send_status+0x1a0>
  4031f0:	24a50001 	addiu	a1,a1,1
  4031f4:	10cc003f 	beq	a2,t4,4032f4 <send_status+0x194>
  4031f8:	00000000 	nop
  4031fc:	00c71821 	addu	v1,a2,a3
  403200:	90620000 	lbu	v0,0(v1)
  403204:	00000000 	nop
  403208:	30420008 	andi	v0,v0,0x8
  40320c:	10400008 	beqz	v0,403230 <send_status+0xd0>
  403210:	00000000 	nop
  403214:	a0ab0000 	sb	t3,0(a1)
  403218:	24a50001 	addiu	a1,a1,1
  40321c:	a0a60000 	sb	a2,0(a1)
  403220:	10ca0031 	beq	a2,t2,4032e8 <send_status+0x188>
  403224:	24a50001 	addiu	a1,a1,1
  403228:	10c9002c 	beq	a2,t1,4032dc <send_status+0x17c>
  40322c:	00000000 	nop
  403230:	24c20001 	addiu	v0,a2,1
  403234:	304600ff 	andi	a2,v0,0xff
  403238:	2cc30028 	sltiu	v1,a2,40
  40323c:	1460ffe3 	bnez	v1,4031cc <send_status+0x6c>
  403240:	00c81821 	addu	v1,a2,t0
  403244:	8f820240 	lw	v0,576(gp)
  403248:	00000000 	nop
  40324c:	90420021 	lbu	v0,33(v0)
  403250:	00000000 	nop
  403254:	30420008 	andi	v0,v0,0x8
  403258:	1040000e 	beqz	v0,403294 <send_status+0x134>
  40325c:	2402fffa 	li	v0,-6
  403260:	a0a20000 	sb	v0,0(a1)
  403264:	24a50001 	addiu	a1,a1,1
  403268:	24020021 	li	v0,33
  40326c:	a0a20000 	sb	v0,0(a1)
  403270:	8f820254 	lw	v0,596(gp)
  403274:	00000000 	nop
  403278:	90420003 	lbu	v0,3(v0)
  40327c:	24a50001 	addiu	a1,a1,1
  403280:	a0a20000 	sb	v0,0(a1)
  403284:	24a50001 	addiu	a1,a1,1
  403288:	2402fff0 	li	v0,-16
  40328c:	a0a20000 	sb	v0,0(a1)
  403290:	24a50001 	addiu	a1,a1,1
  403294:	2402ffff 	li	v0,-1
  403298:	a0a20000 	sb	v0,0(a1)
  40329c:	2402fff0 	li	v0,-16
  4032a0:	24a50001 	addiu	a1,a1,1
  4032a4:	a0a20000 	sb	v0,0(a1)
  4032a8:	24a50001 	addiu	a1,a1,1
  4032ac:	8f990074 	lw	t9,116(gp)
  4032b0:	00000000 	nop
  4032b4:	0320f809 	jalr	t9
  4032b8:	00a42823 	subu	a1,a1,a0
  4032bc:	8f9900ec 	lw	t9,236(gp)
  4032c0:	00000000 	nop
  4032c4:	0320f809 	jalr	t9
  4032c8:	00000000 	nop
  4032cc:	8fbf0110 	lw	ra,272(sp)
  4032d0:	00000000 	nop
  4032d4:	03e00008 	jr	ra
  4032d8:	27bd0118 	addiu	sp,sp,280
  4032dc:	a0af0000 	sb	t7,0(a1)
  4032e0:	1000ffd3 	b	403230 <send_status+0xd0>
  4032e4:	24a50001 	addiu	a1,a1,1
  4032e8:	a0a60000 	sb	a2,0(a1)
  4032ec:	1000ffce 	b	403228 <send_status+0xc8>
  4032f0:	24a50001 	addiu	a1,a1,1
  4032f4:	a0b80000 	sb	t8,0(a1)
  4032f8:	1000ffc0 	b	4031fc <send_status+0x9c>
  4032fc:	24a50001 	addiu	a1,a1,1
  403300:	a0a60000 	sb	a2,0(a1)
  403304:	1000ffbb 	b	4031f4 <send_status+0x94>
  403308:	24a50001 	addiu	a1,a1,1

0040330c <envvarok>:
envvarok():
  40330c:	00001021 	move	v0,zero
  403310:	27bdfff0 	addiu	sp,sp,-16
  403314:	03e00008 	jr	ra
  403318:	27bd0010 	addiu	sp,sp,16
  40331c:	00000000 	nop

00403320 <clientstat>:
clientstat():
  403320:	27bdffd8 	addiu	sp,sp,-40
  403324:	afb20020 	sw	s2,32(sp)
  403328:	afb1001c 	sw	s1,28(sp)
  40332c:	afb00018 	sw	s0,24(sp)
  403330:	00c08821 	move	s1,a2
  403334:	00a09021 	move	s2,a1
  403338:	afbf0024 	sw	ra,36(sp)
  40333c:	8f990380 	lw	t9,896(gp)
  403340:	00000000 	nop
  403344:	0320f809 	jalr	t9
  403348:	00808021 	move	s0,a0
  40334c:	3c058008 	lui	a1,0x8008
  403350:	2402001f 	li	v0,31
  403354:	34a57467 	ori	a1,a1,0x7467
  403358:	12020022 	beq	s0,v0,4033e4 <clientstat+0xc4>
  40335c:	27a60010 	addiu	a2,sp,16
  403360:	24020020 	li	v0,32
  403364:	1202000b 	beq	s0,v0,403394 <clientstat+0x74>
  403368:	02202021 	move	a0,s1
  40336c:	8f9900ec 	lw	t9,236(gp)
  403370:	00000000 	nop
  403374:	0320f809 	jalr	t9
  403378:	00000000 	nop
  40337c:	8fbf0024 	lw	ra,36(sp)
  403380:	8fb20020 	lw	s2,32(sp)
  403384:	8fb1001c 	lw	s1,28(sp)
  403388:	8fb00018 	lw	s0,24(sp)
  40338c:	03e00008 	jr	ra
  403390:	27bd0028 	addiu	sp,sp,40
  403394:	8f81036c 	lw	at,876(gp)
  403398:	00000000 	nop
  40339c:	ac320000 	sw	s2,0(at)
  4033a0:	8f810378 	lw	at,888(gp)
  4033a4:	00000000 	nop
  4033a8:	ac310000 	sw	s1,0(at)
  4033ac:	8f99026c 	lw	t9,620(gp)
  4033b0:	00000000 	nop
  4033b4:	0320f809 	jalr	t9
  4033b8:	00000000 	nop
  4033bc:	8f990048 	lw	t9,72(gp)
  4033c0:	00000000 	nop
  4033c4:	0320f809 	jalr	t9
  4033c8:	02402021 	move	a0,s2
  4033cc:	8f990384 	lw	t9,900(gp)
  4033d0:	00000000 	nop
  4033d4:	0320f809 	jalr	t9
  4033d8:	00000000 	nop
  4033dc:	1000ffe3 	b	40336c <clientstat+0x4c>
  4033e0:	00000000 	nop
  4033e4:	8f8401e4 	lw	a0,484(gp)
  4033e8:	00000000 	nop
  4033ec:	8c840000 	lw	a0,0(a0)
  4033f0:	a7b20012 	sh	s2,18(sp)
  4033f4:	a7b10010 	sh	s1,16(sp)
  4033f8:	8f8101f0 	lw	at,496(gp)
  4033fc:	00000000 	nop
  403400:	ac320000 	sw	s2,0(at)
  403404:	8f810058 	lw	at,88(gp)
  403408:	00000000 	nop
  40340c:	ac310000 	sw	s1,0(at)
  403410:	8f990394 	lw	t9,916(gp)
  403414:	00000000 	nop
  403418:	0320f809 	jalr	t9
  40341c:	00000000 	nop
  403420:	1000ffd2 	b	40336c <clientstat+0x4c>
  403424:	00000000 	nop
	...

00403430 <get_slc_defaults>:
get_slc_defaults():
  403430:	27bdffd8 	addiu	sp,sp,-40
  403434:	afb20018 	sw	s2,24(sp)
  403438:	8f920110 	lw	s2,272(gp)
  40343c:	afb40020 	sw	s4,32(sp)
  403440:	afb3001c 	sw	s3,28(sp)
  403444:	afb10014 	sw	s1,20(sp)
  403448:	afbf0024 	sw	ra,36(sp)
  40344c:	afb00010 	sw	s0,16(sp)
  403450:	8f990380 	lw	t9,896(gp)
  403454:	00000000 	nop
  403458:	0320f809 	jalr	t9
  40345c:	24110001 	li	s1,1
  403460:	26540001 	addiu	s4,s2,1
  403464:	26530004 	addiu	s3,s2,4
  403468:	001180c0 	sll	s0,s1,0x3
  40346c:	02133021 	addu	a2,s0,s3
  403470:	02142821 	addu	a1,s0,s4
  403474:	02202021 	move	a0,s1
  403478:	8f99014c 	lw	t9,332(gp)
  40347c:	00000000 	nop
  403480:	0320f809 	jalr	t9
  403484:	26310001 	addiu	s1,s1,1
  403488:	02128021 	addu	s0,s0,s2
  40348c:	2a230013 	slti	v1,s1,19
  403490:	a2020000 	sb	v0,0(s0)
  403494:	a2000003 	sb	zero,3(s0)
  403498:	1460fff3 	bnez	v1,403468 <get_slc_defaults+0x38>
  40349c:	a2000002 	sb	zero,2(s0)
  4034a0:	8fbf0024 	lw	ra,36(sp)
  4034a4:	8fb40020 	lw	s4,32(sp)
  4034a8:	8fb3001c 	lw	s3,28(sp)
  4034ac:	8fb20018 	lw	s2,24(sp)
  4034b0:	8fb10014 	lw	s1,20(sp)
  4034b4:	8fb00010 	lw	s0,16(sp)
  4034b8:	03e00008 	jr	ra
  4034bc:	27bd0028 	addiu	sp,sp,40

004034c0 <init_termbuf>:
init_termbuf():
  4034c0:	27bdffe8 	addiu	sp,sp,-24
  4034c4:	afb00010 	sw	s0,16(sp)
  4034c8:	8f8401e4 	lw	a0,484(gp)
  4034cc:	00000000 	nop
  4034d0:	8c840000 	lw	a0,0(a0)
  4034d4:	8f90032c 	lw	s0,812(gp)
  4034d8:	afbf0014 	sw	ra,20(sp)
  4034dc:	8f990158 	lw	t9,344(gp)
  4034e0:	00000000 	nop
  4034e4:	0320f809 	jalr	t9
  4034e8:	02002821 	move	a1,s0
  4034ec:	8f8202d0 	lw	v0,720(gp)
  4034f0:	26030030 	addiu	v1,s0,48
  4034f4:	8e040000 	lw	a0,0(s0)
  4034f8:	8e050004 	lw	a1,4(s0)
  4034fc:	8e060008 	lw	a2,8(s0)
  403500:	8e07000c 	lw	a3,12(s0)
  403504:	ac440000 	sw	a0,0(v0)
  403508:	ac450004 	sw	a1,4(v0)
  40350c:	ac460008 	sw	a2,8(v0)
  403510:	ac47000c 	sw	a3,12(v0)
  403514:	26100010 	addiu	s0,s0,16
  403518:	1603fff6 	bne	s0,v1,4034f4 <init_termbuf+0x34>
  40351c:	24420010 	addiu	v0,v0,16
  403520:	8e030000 	lw	v1,0(s0)
  403524:	00000000 	nop
  403528:	ac430000 	sw	v1,0(v0)
  40352c:	8fbf0014 	lw	ra,20(sp)
  403530:	8fb00010 	lw	s0,16(sp)
  403534:	03e00008 	jr	ra
  403538:	27bd0018 	addiu	sp,sp,24

0040353c <set_termbuf>:
set_termbuf():
  40353c:	27bdffe8 	addiu	sp,sp,-24
  403540:	afb00010 	sw	s0,16(sp)
  403544:	8f90032c 	lw	s0,812(gp)
  403548:	8f8502d0 	lw	a1,720(gp)
  40354c:	24060034 	li	a2,52
  403550:	afbf0014 	sw	ra,20(sp)
  403554:	8f9901a8 	lw	t9,424(gp)
  403558:	00000000 	nop
  40355c:	0320f809 	jalr	t9
  403560:	02002021 	move	a0,s0
  403564:	02003021 	move	a2,s0
  403568:	14400005 	bnez	v0,403580 <set_termbuf+0x44>
  40356c:	2405540e 	li	a1,21518
  403570:	8fbf0014 	lw	ra,20(sp)
  403574:	8fb00010 	lw	s0,16(sp)
  403578:	03e00008 	jr	ra
  40357c:	27bd0018 	addiu	sp,sp,24
  403580:	8f8401e4 	lw	a0,484(gp)
  403584:	00000000 	nop
  403588:	8c840000 	lw	a0,0(a0)
  40358c:	8f990038 	lw	t9,56(gp)
  403590:	00000000 	nop
  403594:	0320f809 	jalr	t9
  403598:	00000000 	nop
  40359c:	1000fff4 	b	403570 <set_termbuf+0x34>
  4035a0:	00000000 	nop

004035a4 <spcset>:
spcset():
  4035a4:	2c820013 	sltiu	v0,a0,19
  4035a8:	10400014 	beqz	v0,4035fc <spcset+0x58>
  4035ac:	00000000 	nop
  4035b0:	00041080 	sll	v0,a0,0x2
  4035b4:	8f830008 	lw	v1,8(gp)
  4035b8:	00000000 	nop
  4035bc:	2463d2e0 	addiu	v1,v1,-11552
  4035c0:	00621821 	addu	v1,v1,v0
  4035c4:	8c630000 	lw	v1,0(v1)
  4035c8:	00000000 	nop
  4035cc:	007c1821 	addu	v1,v1,gp
  4035d0:	00600008 	jr	v1
  4035d4:	00000000 	nop
  4035d8:	8f83032c 	lw	v1,812(gp)
  4035dc:	00000000 	nop
  4035e0:	24630021 	addiu	v1,v1,33
  4035e4:	90620000 	lbu	v0,0(v1)
  4035e8:	24040002 	li	a0,2
  4035ec:	a0a20000 	sb	v0,0(a1)
  4035f0:	acc30000 	sw	v1,0(a2)
  4035f4:	03e00008 	jr	ra
  4035f8:	00801021 	move	v0,a0
  4035fc:	a0a00000 	sb	zero,0(a1)
  403600:	00002021 	move	a0,zero
  403604:	1000fffb 	b	4035f4 <spcset+0x50>
  403608:	acc00000 	sw	zero,0(a2)
  40360c:	8f83032c 	lw	v1,812(gp)
  403610:	00000000 	nop
  403614:	24630011 	addiu	v1,v1,17
  403618:	90620000 	lbu	v0,0(v1)
  40361c:	1000fff3 	b	4035ec <spcset+0x48>
  403620:	24040062 	li	a0,98
  403624:	8f83032c 	lw	v1,812(gp)
  403628:	00000000 	nop
  40362c:	2463001e 	addiu	v1,v1,30
  403630:	90620000 	lbu	v0,0(v1)
  403634:	1000ffed 	b	4035ec <spcset+0x48>
  403638:	24040022 	li	a0,34
  40363c:	24040003 	li	a0,3
  403640:	a0a00000 	sb	zero,0(a1)
  403644:	1000ffeb 	b	4035f4 <spcset+0x50>
  403648:	acc00000 	sw	zero,0(a2)
  40364c:	8f83032c 	lw	v1,812(gp)
  403650:	00000000 	nop
  403654:	24630012 	addiu	v1,v1,18
  403658:	1000ffef 	b	403618 <spcset+0x74>
  40365c:	00000000 	nop
  403660:	8f83032c 	lw	v1,812(gp)
  403664:	00000000 	nop
  403668:	2463001b 	addiu	v1,v1,27
  40366c:	90620000 	lbu	v0,0(v1)
  403670:	1000ffde 	b	4035ec <spcset+0x48>
  403674:	24040042 	li	a0,66
  403678:	8f83032c 	lw	v1,812(gp)
  40367c:	00000000 	nop
  403680:	24630013 	addiu	v1,v1,19
  403684:	1000ffd7 	b	4035e4 <spcset+0x40>
  403688:	00000000 	nop
  40368c:	8f83032c 	lw	v1,812(gp)
  403690:	00000000 	nop
  403694:	24630014 	addiu	v1,v1,20
  403698:	1000ffd2 	b	4035e4 <spcset+0x40>
  40369c:	00000000 	nop
  4036a0:	8f83032c 	lw	v1,812(gp)
  4036a4:	00000000 	nop
  4036a8:	2463001f 	addiu	v1,v1,31
  4036ac:	1000ffcd 	b	4035e4 <spcset+0x40>
  4036b0:	00000000 	nop
  4036b4:	8f83032c 	lw	v1,812(gp)
  4036b8:	00000000 	nop
  4036bc:	2463001d 	addiu	v1,v1,29
  4036c0:	1000ffc8 	b	4035e4 <spcset+0x40>
  4036c4:	00000000 	nop
  4036c8:	8f83032c 	lw	v1,812(gp)
  4036cc:	00000000 	nop
  4036d0:	24630020 	addiu	v1,v1,32
  4036d4:	1000ffc3 	b	4035e4 <spcset+0x40>
  4036d8:	00000000 	nop
  4036dc:	8f83032c 	lw	v1,812(gp)
  4036e0:	00000000 	nop
  4036e4:	24630019 	addiu	v1,v1,25
  4036e8:	1000ffbe 	b	4035e4 <spcset+0x40>
  4036ec:	00000000 	nop
  4036f0:	8f83032c 	lw	v1,812(gp)
  4036f4:	00000000 	nop
  4036f8:	2463001a 	addiu	v1,v1,26
  4036fc:	1000ffb9 	b	4035e4 <spcset+0x40>
  403700:	00000000 	nop
  403704:	8f83032c 	lw	v1,812(gp)
  403708:	00000000 	nop
  40370c:	24630022 	addiu	v1,v1,34
  403710:	1000ffb4 	b	4035e4 <spcset+0x40>
  403714:	00000000 	nop
  403718:	8f83032c 	lw	v1,812(gp)
  40371c:	00000000 	nop
  403720:	24630017 	addiu	v1,v1,23
  403724:	1000ffaf 	b	4035e4 <spcset+0x40>
  403728:	00000000 	nop

0040372c <getpty>:
getpty():
  40372c:	8f8402b4 	lw	a0,692(gp)
  403730:	00000000 	nop
  403734:	8c840000 	lw	a0,0(a0)
  403738:	27bdff48 	addiu	sp,sp,-184
  40373c:	afbf00b4 	sw	ra,180(sp)
  403740:	afb400b0 	sw	s4,176(sp)
  403744:	afb300ac 	sw	s3,172(sp)
  403748:	afb200a8 	sw	s2,168(sp)
  40374c:	afb100a4 	sw	s1,164(sp)
  403750:	14800007 	bnez	a0,403770 <getpty+0x44>
  403754:	afb000a0 	sw	s0,160(sp)
  403758:	8f840008 	lw	a0,8(gp)
  40375c:	00000000 	nop
  403760:	2484e3a4 	addiu	a0,a0,-7260
  403764:	8f8102b4 	lw	at,692(gp)
  403768:	00000000 	nop
  40376c:	ac240000 	sw	a0,0(at)
  403770:	8f850008 	lw	a1,8(gp)
  403774:	00000000 	nop
  403778:	24a5d32c 	addiu	a1,a1,-11476
  40377c:	8f99011c 	lw	t9,284(gp)
  403780:	00000000 	nop
  403784:	0320f809 	jalr	t9
  403788:	00009021 	move	s2,zero
  40378c:	8f8302b4 	lw	v1,692(gp)
  403790:	00000000 	nop
  403794:	8c630000 	lw	v1,0(v1)
  403798:	00000000 	nop
  40379c:	24710009 	addiu	s1,v1,9
  4037a0:	24730008 	addiu	s3,v1,8
  4037a4:	24140030 	li	s4,48
  4037a8:	8f820008 	lw	v0,8(gp)
  4037ac:	00000000 	nop
  4037b0:	2442d338 	addiu	v0,v0,-11464
  4037b4:	00521021 	addu	v0,v0,s2
  4037b8:	90420000 	lbu	v0,0(v0)
  4037bc:	00000000 	nop
  4037c0:	a2620000 	sb	v0,0(s3)
  4037c4:	a2340000 	sb	s4,0(s1)
  4037c8:	8f8402b4 	lw	a0,692(gp)
  4037cc:	00000000 	nop
  4037d0:	8c840000 	lw	a0,0(a0)
  4037d4:	8f9900d4 	lw	t9,212(gp)
  4037d8:	00000000 	nop
  4037dc:	0320f809 	jalr	t9
  4037e0:	27a50010 	addiu	a1,sp,16
  4037e4:	04400014 	bltz	v0,403838 <getpty+0x10c>
  4037e8:	00000000 	nop
  4037ec:	00008021 	move	s0,zero
  4037f0:	8f820008 	lw	v0,8(gp)
  4037f4:	00000000 	nop
  4037f8:	2442d34c 	addiu	v0,v0,-11444
  4037fc:	00501021 	addu	v0,v0,s0
  403800:	90420000 	lbu	v0,0(v0)
  403804:	24050002 	li	a1,2
  403808:	a2220000 	sb	v0,0(s1)
  40380c:	8f8402b4 	lw	a0,692(gp)
  403810:	00000000 	nop
  403814:	8c840000 	lw	a0,0(a0)
  403818:	8f99006c 	lw	t9,108(gp)
  40381c:	00000000 	nop
  403820:	0320f809 	jalr	t9
  403824:	26100001 	addiu	s0,s0,1
  403828:	1c400010 	bgtz	v0,40386c <getpty+0x140>
  40382c:	2a030010 	slti	v1,s0,16
  403830:	1460ffef 	bnez	v1,4037f0 <getpty+0xc4>
  403834:	00000000 	nop
  403838:	26520001 	addiu	s2,s2,1
  40383c:	2a420010 	slti	v0,s2,16
  403840:	1440ffd9 	bnez	v0,4037a8 <getpty+0x7c>
  403844:	2404ffff 	li	a0,-1
  403848:	8fbf00b4 	lw	ra,180(sp)
  40384c:	8fb400b0 	lw	s4,176(sp)
  403850:	8fb300ac 	lw	s3,172(sp)
  403854:	8fb200a8 	lw	s2,168(sp)
  403858:	8fb100a4 	lw	s1,164(sp)
  40385c:	8fb000a0 	lw	s0,160(sp)
  403860:	00801021 	move	v0,a0
  403864:	03e00008 	jr	ra
  403868:	27bd00b8 	addiu	sp,sp,184
  40386c:	00402021 	move	a0,v0
  403870:	8f8202b4 	lw	v0,692(gp)
  403874:	00000000 	nop
  403878:	8c420000 	lw	v0,0(v0)
  40387c:	24030074 	li	v1,116
  403880:	1000fff1 	b	403848 <getpty+0x11c>
  403884:	a0430005 	sb	v1,5(v0)

00403888 <tty_setecho>:
tty_setecho():
  403888:	8f83032c 	lw	v1,812(gp)
  40388c:	00000000 	nop
  403890:	2463000c 	addiu	v1,v1,12
  403894:	10800006 	beqz	a0,4038b0 <tty_setecho+0x28>
  403898:	00602821 	move	a1,v1
  40389c:	8c620000 	lw	v0,0(v1)
  4038a0:	00000000 	nop
  4038a4:	34420008 	ori	v0,v0,0x8
  4038a8:	03e00008 	jr	ra
  4038ac:	ac620000 	sw	v0,0(v1)
  4038b0:	8c620000 	lw	v0,0(v1)
  4038b4:	2403fff7 	li	v1,-9
  4038b8:	00431024 	and	v0,v0,v1
  4038bc:	03e00008 	jr	ra
  4038c0:	aca20000 	sw	v0,0(a1)

004038c4 <tty_binaryin>:
tty_binaryin():
  4038c4:	8f85032c 	lw	a1,812(gp)
  4038c8:	10800006 	beqz	a0,4038e4 <tty_binaryin+0x20>
  4038cc:	2403ffdf 	li	v1,-33
  4038d0:	8ca20000 	lw	v0,0(a1)
  4038d4:	00000000 	nop
  4038d8:	00431024 	and	v0,v0,v1
  4038dc:	03e00008 	jr	ra
  4038e0:	aca20000 	sw	v0,0(a1)
  4038e4:	8ca20000 	lw	v0,0(a1)
  4038e8:	00000000 	nop
  4038ec:	34420020 	ori	v0,v0,0x20
  4038f0:	03e00008 	jr	ra
  4038f4:	aca20000 	sw	v0,0(a1)

004038f8 <tty_binaryout>:
tty_binaryout():
  4038f8:	8f86032c 	lw	a2,812(gp)
  4038fc:	00000000 	nop
  403900:	24c60008 	addiu	a2,a2,8
  403904:	1080000b 	beqz	a0,403934 <tty_binaryout+0x3c>
  403908:	2403ffcf 	li	v1,-49
  40390c:	8cc30000 	lw	v1,0(a2)
  403910:	8cc4fffc 	lw	a0,-4(a2)
  403914:	2402fecf 	li	v0,-305
  403918:	00621824 	and	v1,v1,v0
  40391c:	2402fffe 	li	v0,-2
  403920:	34630030 	ori	v1,v1,0x30
  403924:	00822024 	and	a0,a0,v0
  403928:	acc4fffc 	sw	a0,-4(a2)
  40392c:	03e00008 	jr	ra
  403930:	acc30000 	sw	v1,0(a2)
  403934:	8cc20000 	lw	v0,0(a2)
  403938:	8cc4fffc 	lw	a0,-4(a2)
  40393c:	00431024 	and	v0,v0,v1
  403940:	34840001 	ori	a0,a0,0x1
  403944:	34420120 	ori	v0,v0,0x120
  403948:	acc4fffc 	sw	a0,-4(a2)
  40394c:	03e00008 	jr	ra
  403950:	acc20000 	sw	v0,0(a2)

00403954 <tty_isbinaryin>:
tty_isbinaryin():
  403954:	8f82032c 	lw	v0,812(gp)
  403958:	00000000 	nop
  40395c:	8c420000 	lw	v0,0(v0)
  403960:	00000000 	nop
  403964:	00021142 	srl	v0,v0,0x5
  403968:	38420001 	xori	v0,v0,0x1
  40396c:	03e00008 	jr	ra
  403970:	30420001 	andi	v0,v0,0x1

00403974 <tty_isbinaryout>:
tty_isbinaryout():
  403974:	8f82032c 	lw	v0,812(gp)
  403978:	00000000 	nop
  40397c:	8c420004 	lw	v0,4(v0)
  403980:	00000000 	nop
  403984:	38420001 	xori	v0,v0,0x1
  403988:	03e00008 	jr	ra
  40398c:	30420001 	andi	v0,v0,0x1

00403990 <tty_issofttab>:
tty_issofttab():
  403990:	8f82032c 	lw	v0,812(gp)
  403994:	00000000 	nop
  403998:	8c420004 	lw	v0,4(v0)
  40399c:	00000000 	nop
  4039a0:	30421800 	andi	v0,v0,0x1800
  4039a4:	38421800 	xori	v0,v0,0x1800
  4039a8:	03e00008 	jr	ra
  4039ac:	2c420001 	sltiu	v0,v0,1

004039b0 <tty_setsofttab>:
tty_setsofttab():
  4039b0:	8f83032c 	lw	v1,812(gp)
  4039b4:	00000000 	nop
  4039b8:	24630004 	addiu	v1,v1,4
  4039bc:	10800006 	beqz	a0,4039d8 <tty_setsofttab+0x28>
  4039c0:	00602821 	move	a1,v1
  4039c4:	8c620000 	lw	v0,0(v1)
  4039c8:	00000000 	nop
  4039cc:	34421800 	ori	v0,v0,0x1800
  4039d0:	03e00008 	jr	ra
  4039d4:	ac620000 	sw	v0,0(v1)
  4039d8:	8c620000 	lw	v0,0(v1)
  4039dc:	2403e7ff 	li	v1,-6145
  4039e0:	00431024 	and	v0,v0,v1
  4039e4:	03e00008 	jr	ra
  4039e8:	aca20000 	sw	v0,0(a1)

004039ec <tty_islitecho>:
tty_islitecho():
  4039ec:	8f82032c 	lw	v0,812(gp)
  4039f0:	00000000 	nop
  4039f4:	8c42000c 	lw	v0,12(v0)
  4039f8:	00000000 	nop
  4039fc:	00021242 	srl	v0,v0,0x9
  403a00:	38420001 	xori	v0,v0,0x1
  403a04:	03e00008 	jr	ra
  403a08:	30420001 	andi	v0,v0,0x1

00403a0c <tty_setlitecho>:
tty_setlitecho():
  403a0c:	8f85032c 	lw	a1,812(gp)
  403a10:	00000000 	nop
  403a14:	24a5000c 	addiu	a1,a1,12
  403a18:	10800006 	beqz	a0,403a34 <tty_setlitecho+0x28>
  403a1c:	2403fdff 	li	v1,-513
  403a20:	8ca20000 	lw	v0,0(a1)
  403a24:	00000000 	nop
  403a28:	00431024 	and	v0,v0,v1
  403a2c:	03e00008 	jr	ra
  403a30:	aca20000 	sw	v0,0(a1)
  403a34:	8ca20000 	lw	v0,0(a1)
  403a38:	00000000 	nop
  403a3c:	34420200 	ori	v0,v0,0x200
  403a40:	03e00008 	jr	ra
  403a44:	aca20000 	sw	v0,0(a1)

00403a48 <tty_iscrnl>:
tty_iscrnl():
  403a48:	8f82032c 	lw	v0,812(gp)
  403a4c:	00000000 	nop
  403a50:	8c420000 	lw	v0,0(v0)
  403a54:	03e00008 	jr	ra
  403a58:	30420100 	andi	v0,v0,0x100

00403a5c <tty_tspeed>:
tty_tspeed():
  403a5c:	27bdffe8 	addiu	sp,sp,-24
  403a60:	afbf0010 	sw	ra,16(sp)
  403a64:	8f85034c 	lw	a1,844(gp)
  403a68:	00000000 	nop
  403a6c:	8ca30000 	lw	v1,0(a1)
  403a70:	2402ffff 	li	v0,-1
  403a74:	1062000a 	beq	v1,v0,403aa0 <tty_tspeed+0x44>
  403a78:	0064102a 	slt	v0,v1,a0
  403a7c:	10400008 	beqz	v0,403aa0 <tty_tspeed+0x44>
  403a80:	2406ffff 	li	a2,-1
  403a84:	24a50008 	addiu	a1,a1,8
  403a88:	8ca20000 	lw	v0,0(a1)
  403a8c:	00000000 	nop
  403a90:	10460003 	beq	v0,a2,403aa0 <tty_tspeed+0x44>
  403a94:	0044182a 	slt	v1,v0,a0
  403a98:	1460fffa 	bnez	v1,403a84 <tty_tspeed+0x28>
  403a9c:	00000000 	nop
  403aa0:	8ca50004 	lw	a1,4(a1)
  403aa4:	8f84032c 	lw	a0,812(gp)
  403aa8:	8f9901f8 	lw	t9,504(gp)
  403aac:	00000000 	nop
  403ab0:	0320f809 	jalr	t9
  403ab4:	00000000 	nop
  403ab8:	8fbf0010 	lw	ra,16(sp)
  403abc:	00000000 	nop
  403ac0:	03e00008 	jr	ra
  403ac4:	27bd0018 	addiu	sp,sp,24

00403ac8 <tty_rspeed>:
tty_rspeed():
  403ac8:	27bdffe8 	addiu	sp,sp,-24
  403acc:	afbf0010 	sw	ra,16(sp)
  403ad0:	8f85034c 	lw	a1,844(gp)
  403ad4:	00000000 	nop
  403ad8:	8ca30000 	lw	v1,0(a1)
  403adc:	2402ffff 	li	v0,-1
  403ae0:	1062000a 	beq	v1,v0,403b0c <tty_rspeed+0x44>
  403ae4:	0064102a 	slt	v0,v1,a0
  403ae8:	10400008 	beqz	v0,403b0c <tty_rspeed+0x44>
  403aec:	2406ffff 	li	a2,-1
  403af0:	24a50008 	addiu	a1,a1,8
  403af4:	8ca20000 	lw	v0,0(a1)
  403af8:	00000000 	nop
  403afc:	10460003 	beq	v0,a2,403b0c <tty_rspeed+0x44>
  403b00:	0044182a 	slt	v1,v0,a0
  403b04:	1460fffa 	bnez	v1,403af0 <tty_rspeed+0x28>
  403b08:	00000000 	nop
  403b0c:	8ca50004 	lw	a1,4(a1)
  403b10:	8f84032c 	lw	a0,812(gp)
  403b14:	8f990260 	lw	t9,608(gp)
  403b18:	00000000 	nop
  403b1c:	0320f809 	jalr	t9
  403b20:	00000000 	nop
  403b24:	8fbf0010 	lw	ra,16(sp)
  403b28:	00000000 	nop
  403b2c:	03e00008 	jr	ra
  403b30:	27bd0018 	addiu	sp,sp,24

00403b34 <getptyslave>:
getptyslave():
  403b34:	27bdffe0 	addiu	sp,sp,-32
  403b38:	8f840008 	lw	a0,8(gp)
  403b3c:	00000000 	nop
  403b40:	2484d360 	addiu	a0,a0,-11424
  403b44:	afb00018 	sw	s0,24(sp)
  403b48:	afbf001c 	sw	ra,28(sp)
  403b4c:	8f99006c 	lw	t9,108(gp)
  403b50:	00000000 	nop
  403b54:	0320f809 	jalr	t9
  403b58:	24050002 	li	a1,2
  403b5c:	0440000b 	bltz	v0,403b8c <getptyslave+0x58>
  403b60:	00408021 	move	s0,v0
  403b64:	00402021 	move	a0,v0
  403b68:	24055471 	li	a1,21617
  403b6c:	8f990394 	lw	t9,916(gp)
  403b70:	00000000 	nop
  403b74:	0320f809 	jalr	t9
  403b78:	00003021 	move	a2,zero
  403b7c:	8f990030 	lw	t9,48(gp)
  403b80:	00000000 	nop
  403b84:	0320f809 	jalr	t9
  403b88:	02002021 	move	a0,s0
  403b8c:	8f8402b4 	lw	a0,692(gp)
  403b90:	00000000 	nop
  403b94:	8c840000 	lw	a0,0(a0)
  403b98:	8f99000c 	lw	t9,12(gp)
  403b9c:	00000000 	nop
  403ba0:	27393dd8 	addiu	t9,t9,15832
  403ba4:	0320f809 	jalr	t9
  403ba8:	00000000 	nop
  403bac:	0440007e 	bltz	v0,403da8 <getptyslave+0x274>
  403bb0:	00408021 	move	s0,v0
  403bb4:	8f990380 	lw	t9,896(gp)
  403bb8:	00000000 	nop
  403bbc:	0320f809 	jalr	t9
  403bc0:	00000000 	nop
  403bc4:	8f820058 	lw	v0,88(gp)
  403bc8:	00000000 	nop
  403bcc:	8c420000 	lw	v0,0(v0)
  403bd0:	00000000 	nop
  403bd4:	14400007 	bnez	v0,403bf4 <getptyslave+0xc0>
  403bd8:	27a40010 	addiu	a0,sp,16
  403bdc:	8f8201f0 	lw	v0,496(gp)
  403be0:	00000000 	nop
  403be4:	8c420000 	lw	v0,0(v0)
  403be8:	00000000 	nop
  403bec:	10400014 	beqz	v0,403c40 <getptyslave+0x10c>
  403bf0:	00000000 	nop
  403bf4:	8f990288 	lw	t9,648(gp)
  403bf8:	00000000 	nop
  403bfc:	0320f809 	jalr	t9
  403c00:	24050008 	li	a1,8
  403c04:	3c058008 	lui	a1,0x8008
  403c08:	8f8201f0 	lw	v0,496(gp)
  403c0c:	00000000 	nop
  403c10:	94420002 	lhu	v0,2(v0)
  403c14:	8f830058 	lw	v1,88(gp)
  403c18:	00000000 	nop
  403c1c:	94630002 	lhu	v1,2(v1)
  403c20:	02002021 	move	a0,s0
  403c24:	34a57467 	ori	a1,a1,0x7467
  403c28:	27a60010 	addiu	a2,sp,16
  403c2c:	a7a20012 	sh	v0,18(sp)
  403c30:	8f990394 	lw	t9,916(gp)
  403c34:	00000000 	nop
  403c38:	0320f809 	jalr	t9
  403c3c:	a7a30010 	sh	v1,16(sp)
  403c40:	8f84032c 	lw	a0,812(gp)
  403c44:	00000000 	nop
  403c48:	2484000c 	addiu	a0,a0,12
  403c4c:	8c83fff4 	lw	v1,-12(a0)
  403c50:	8c850000 	lw	a1,0(a0)
  403c54:	8c86fff8 	lw	a2,-8(a0)
  403c58:	34630100 	ori	v1,v1,0x100
  403c5c:	2402efff 	li	v0,-4097
  403c60:	8f870378 	lw	a3,888(gp)
  403c64:	00000000 	nop
  403c68:	8ce70000 	lw	a3,0(a3)
  403c6c:	00621824 	and	v1,v1,v0
  403c70:	34a50008 	ori	a1,a1,0x8
  403c74:	34c60004 	ori	a2,a2,0x4
  403c78:	ac83fff4 	sw	v1,-12(a0)
  403c7c:	ac850000 	sw	a1,0(a0)
  403c80:	18e00047 	blez	a3,403da0 <getptyslave+0x26c>
  403c84:	ac86fff8 	sw	a2,-8(a0)
  403c88:	8f99026c 	lw	t9,620(gp)
  403c8c:	00000000 	nop
  403c90:	0320f809 	jalr	t9
  403c94:	00e02021 	move	a0,a3
  403c98:	8f84036c 	lw	a0,876(gp)
  403c9c:	00000000 	nop
  403ca0:	8c840000 	lw	a0,0(a0)
  403ca4:	00000000 	nop
  403ca8:	1880003b 	blez	a0,403d98 <getptyslave+0x264>
  403cac:	00000000 	nop
  403cb0:	8f990048 	lw	t9,72(gp)
  403cb4:	00000000 	nop
  403cb8:	0320f809 	jalr	t9
  403cbc:	00000000 	nop
  403cc0:	8f990384 	lw	t9,900(gp)
  403cc4:	00000000 	nop
  403cc8:	0320f809 	jalr	t9
  403ccc:	00000000 	nop
  403cd0:	8f990228 	lw	t9,552(gp)
  403cd4:	00000000 	nop
  403cd8:	0320f809 	jalr	t9
  403cdc:	02002021 	move	a0,s0
  403ce0:	2403ffff 	li	v1,-1
  403ce4:	10430020 	beq	v0,v1,403d68 <getptyslave+0x234>
  403ce8:	00000000 	nop
  403cec:	8f8402dc 	lw	a0,732(gp)
  403cf0:	00000000 	nop
  403cf4:	8c840000 	lw	a0,0(a0)
  403cf8:	00000000 	nop
  403cfc:	28820003 	slti	v0,a0,3
  403d00:	10400013 	beqz	v0,403d50 <getptyslave+0x21c>
  403d04:	00000000 	nop
  403d08:	8f8401e4 	lw	a0,484(gp)
  403d0c:	00000000 	nop
  403d10:	8c840000 	lw	a0,0(a0)
  403d14:	00000000 	nop
  403d18:	28820003 	slti	v0,a0,3
  403d1c:	10400006 	beqz	v0,403d38 <getptyslave+0x204>
  403d20:	00000000 	nop
  403d24:	02001021 	move	v0,s0
  403d28:	8fbf001c 	lw	ra,28(sp)
  403d2c:	8fb00018 	lw	s0,24(sp)
  403d30:	03e00008 	jr	ra
  403d34:	27bd0020 	addiu	sp,sp,32
  403d38:	8f990030 	lw	t9,48(gp)
  403d3c:	00000000 	nop
  403d40:	0320f809 	jalr	t9
  403d44:	00000000 	nop
  403d48:	1000fff7 	b	403d28 <getptyslave+0x1f4>
  403d4c:	02001021 	move	v0,s0
  403d50:	8f990030 	lw	t9,48(gp)
  403d54:	00000000 	nop
  403d58:	0320f809 	jalr	t9
  403d5c:	00000000 	nop
  403d60:	1000ffe9 	b	403d08 <getptyslave+0x1d4>
  403d64:	00000000 	nop
  403d68:	8f8402dc 	lw	a0,732(gp)
  403d6c:	00000000 	nop
  403d70:	8c840000 	lw	a0,0(a0)
  403d74:	8f850008 	lw	a1,8(gp)
  403d78:	00000000 	nop
  403d7c:	24a5d36c 	addiu	a1,a1,-11412
  403d80:	8f9900c8 	lw	t9,200(gp)
  403d84:	00000000 	nop
  403d88:	0320f809 	jalr	t9
  403d8c:	00000000 	nop
  403d90:	1000ffd6 	b	403cec <getptyslave+0x1b8>
  403d94:	00000000 	nop
  403d98:	1000ffc5 	b	403cb0 <getptyslave+0x17c>
  403d9c:	24042580 	li	a0,9600
  403da0:	1000ffb9 	b	403c88 <getptyslave+0x154>
  403da4:	24072580 	li	a3,9600
  403da8:	8f8402dc 	lw	a0,732(gp)
  403dac:	00000000 	nop
  403db0:	8c840000 	lw	a0,0(a0)
  403db4:	8f8502b4 	lw	a1,692(gp)
  403db8:	00000000 	nop
  403dbc:	8ca50000 	lw	a1,0(a1)
  403dc0:	8f9900c8 	lw	t9,200(gp)
  403dc4:	00000000 	nop
  403dc8:	0320f809 	jalr	t9
  403dcc:	00000000 	nop
  403dd0:	1000ff78 	b	403bb4 <getptyslave+0x80>
  403dd4:	00000000 	nop

00403dd8 <cleanopen>:
cleanopen():
  403dd8:	27bdffe8 	addiu	sp,sp,-24
  403ddc:	00003021 	move	a2,zero
  403de0:	afb00010 	sw	s0,16(sp)
  403de4:	00002821 	move	a1,zero
  403de8:	afbf0014 	sw	ra,20(sp)
  403dec:	8f990294 	lw	t9,660(gp)
  403df0:	00000000 	nop
  403df4:	0320f809 	jalr	t9
  403df8:	00808021 	move	s0,a0
  403dfc:	02002021 	move	a0,s0
  403e00:	8f99027c 	lw	t9,636(gp)
  403e04:	00000000 	nop
  403e08:	0320f809 	jalr	t9
  403e0c:	24050180 	li	a1,384
  403e10:	02002021 	move	a0,s0
  403e14:	8f99006c 	lw	t9,108(gp)
  403e18:	00000000 	nop
  403e1c:	0320f809 	jalr	t9
  403e20:	24050802 	li	a1,2050
  403e24:	04400002 	bltz	v0,403e30 <cleanopen+0x58>
  403e28:	2403ffff 	li	v1,-1
  403e2c:	00401821 	move	v1,v0
  403e30:	8fbf0014 	lw	ra,20(sp)
  403e34:	8fb00010 	lw	s0,16(sp)
  403e38:	00601021 	move	v0,v1
  403e3c:	03e00008 	jr	ra
  403e40:	27bd0018 	addiu	sp,sp,24

00403e44 <login_tty>:
login_tty():
  403e44:	27bdffe8 	addiu	sp,sp,-24
  403e48:	afb00010 	sw	s0,16(sp)
  403e4c:	afbf0014 	sw	ra,20(sp)
  403e50:	8f990044 	lw	t9,68(gp)
  403e54:	00000000 	nop
  403e58:	0320f809 	jalr	t9
  403e5c:	00808021 	move	s0,a0
  403e60:	04400039 	bltz	v0,403f48 <login_tty+0x104>
  403e64:	00000000 	nop
  403e68:	02002021 	move	a0,s0
  403e6c:	24055480 	li	a1,21632
  403e70:	8f990394 	lw	t9,916(gp)
  403e74:	00000000 	nop
  403e78:	0320f809 	jalr	t9
  403e7c:	00003021 	move	a2,zero
  403e80:	04400025 	bltz	v0,403f18 <login_tty+0xd4>
  403e84:	00000000 	nop
  403e88:	1600001d 	bnez	s0,403f00 <login_tty+0xbc>
  403e8c:	02002021 	move	a0,s0
  403e90:	24020001 	li	v0,1
  403e94:	12020005 	beq	s0,v0,403eac <login_tty+0x68>
  403e98:	02002021 	move	a0,s0
  403e9c:	8f9902fc 	lw	t9,764(gp)
  403ea0:	00000000 	nop
  403ea4:	0320f809 	jalr	t9
  403ea8:	24050001 	li	a1,1
  403eac:	24020002 	li	v0,2
  403eb0:	12020005 	beq	s0,v0,403ec8 <login_tty+0x84>
  403eb4:	02002021 	move	a0,s0
  403eb8:	8f9902fc 	lw	t9,764(gp)
  403ebc:	00000000 	nop
  403ec0:	0320f809 	jalr	t9
  403ec4:	24050002 	li	a1,2
  403ec8:	2a020003 	slti	v0,s0,3
  403ecc:	10400006 	beqz	v0,403ee8 <login_tty+0xa4>
  403ed0:	00000000 	nop
  403ed4:	8fbf0014 	lw	ra,20(sp)
  403ed8:	8fb00010 	lw	s0,16(sp)
  403edc:	00001021 	move	v0,zero
  403ee0:	03e00008 	jr	ra
  403ee4:	27bd0018 	addiu	sp,sp,24
  403ee8:	8f990030 	lw	t9,48(gp)
  403eec:	00000000 	nop
  403ef0:	0320f809 	jalr	t9
  403ef4:	02002021 	move	a0,s0
  403ef8:	1000fff6 	b	403ed4 <login_tty+0x90>
  403efc:	00000000 	nop
  403f00:	8f9902fc 	lw	t9,764(gp)
  403f04:	00000000 	nop
  403f08:	0320f809 	jalr	t9
  403f0c:	00002821 	move	a1,zero
  403f10:	1000ffe0 	b	403e94 <login_tty+0x50>
  403f14:	24020001 	li	v0,1
  403f18:	8f8402dc 	lw	a0,732(gp)
  403f1c:	00000000 	nop
  403f20:	8c840000 	lw	a0,0(a0)
  403f24:	8f850008 	lw	a1,8(gp)
  403f28:	00000000 	nop
  403f2c:	24a5d378 	addiu	a1,a1,-11400
  403f30:	8f9900c8 	lw	t9,200(gp)
  403f34:	00000000 	nop
  403f38:	0320f809 	jalr	t9
  403f3c:	00000000 	nop
  403f40:	1000ffd1 	b	403e88 <login_tty+0x44>
  403f44:	00000000 	nop
  403f48:	8f8402dc 	lw	a0,732(gp)
  403f4c:	00000000 	nop
  403f50:	8c840000 	lw	a0,0(a0)
  403f54:	8f850008 	lw	a1,8(gp)
  403f58:	00000000 	nop
  403f5c:	24a5d388 	addiu	a1,a1,-11384
  403f60:	8f9900c8 	lw	t9,200(gp)
  403f64:	00000000 	nop
  403f68:	0320f809 	jalr	t9
  403f6c:	00000000 	nop
  403f70:	1000ffbe 	b	403e6c <login_tty+0x28>
  403f74:	02002021 	move	a0,s0

00403f78 <startslave>:
startslave():
  403f78:	27bdff98 	addiu	sp,sp,-104
  403f7c:	afbf0034 	sw	ra,52(sp)
  403f80:	afbe0030 	sw	s8,48(sp)
  403f84:	afb7002c 	sw	s7,44(sp)
  403f88:	afb60028 	sw	s6,40(sp)
  403f8c:	afb50024 	sw	s5,36(sp)
  403f90:	afb40020 	sw	s4,32(sp)
  403f94:	afb3001c 	sw	s3,28(sp)
  403f98:	afb20018 	sw	s2,24(sp)
  403f9c:	afb10014 	sw	s1,20(sp)
  403fa0:	afb00010 	sw	s0,16(sp)
  403fa4:	e7bf0060 	swc1	$f31,96(sp)
  403fa8:	e7be0064 	swc1	$f30,100(sp)
  403fac:	e7bd0058 	swc1	$f29,88(sp)
  403fb0:	e7bc005c 	swc1	$f28,92(sp)
  403fb4:	e7bb0050 	swc1	$f27,80(sp)
  403fb8:	e7ba0054 	swc1	$f26,84(sp)
  403fbc:	e7b90048 	swc1	$f25,72(sp)
  403fc0:	e7b8004c 	swc1	$f24,76(sp)
  403fc4:	e7b70040 	swc1	$f23,64(sp)
  403fc8:	e7b60044 	swc1	$f22,68(sp)
  403fcc:	e7b50038 	swc1	$f21,56(sp)
  403fd0:	e7b4003c 	swc1	$f20,60(sp)
  403fd4:	afa40068 	sw	a0,104(sp)
  403fd8:	afa5006c 	sw	a1,108(sp)
  403fdc:	8f9900f8 	lw	t9,248(gp)
  403fe0:	00000000 	nop
  403fe4:	0320f809 	jalr	t9
  403fe8:	afa60070 	sw	a2,112(sp)
  403fec:	8f850008 	lw	a1,8(gp)
  403ff0:	00000000 	nop
  403ff4:	24a5d394 	addiu	a1,a1,-11372
  403ff8:	10400028 	beqz	v0,40409c <startslave+0x124>
  403ffc:	24040001 	li	a0,1
  404000:	0440001d 	bltz	v0,404078 <startslave+0x100>
  404004:	00000000 	nop
  404008:	8f9901e0 	lw	t9,480(gp)
  40400c:	00000000 	nop
  404010:	0320f809 	jalr	t9
  404014:	24050001 	li	a1,1
  404018:	8fbf0034 	lw	ra,52(sp)
  40401c:	8fbe0030 	lw	s8,48(sp)
  404020:	8fb7002c 	lw	s7,44(sp)
  404024:	8fb60028 	lw	s6,40(sp)
  404028:	8fb50024 	lw	s5,36(sp)
  40402c:	8fb40020 	lw	s4,32(sp)
  404030:	8fb3001c 	lw	s3,28(sp)
  404034:	8fb20018 	lw	s2,24(sp)
  404038:	8fb10014 	lw	s1,20(sp)
  40403c:	8fb00010 	lw	s0,16(sp)
  404040:	c7bf0060 	lwc1	$f31,96(sp)
  404044:	c7be0064 	lwc1	$f30,100(sp)
  404048:	c7bd0058 	lwc1	$f29,88(sp)
  40404c:	c7bc005c 	lwc1	$f28,92(sp)
  404050:	c7bb0050 	lwc1	$f27,80(sp)
  404054:	c7ba0054 	lwc1	$f26,84(sp)
  404058:	c7b90048 	lwc1	$f25,72(sp)
  40405c:	c7b8004c 	lwc1	$f24,76(sp)
  404060:	c7b70040 	lwc1	$f23,64(sp)
  404064:	c7b60044 	lwc1	$f22,68(sp)
  404068:	c7b50038 	lwc1	$f21,56(sp)
  40406c:	c7b4003c 	lwc1	$f20,60(sp)
  404070:	03e00008 	jr	ra
  404074:	27bd0068 	addiu	sp,sp,104
  404078:	8f8402dc 	lw	a0,732(gp)
  40407c:	00000000 	nop
  404080:	8c840000 	lw	a0,0(a0)
  404084:	8f9900c8 	lw	t9,200(gp)
  404088:	00000000 	nop
  40408c:	0320f809 	jalr	t9
  404090:	00000000 	nop
  404094:	1000ffdc 	b	404008 <startslave+0x90>
  404098:	24040001 	li	a0,1
  40409c:	8f9901e0 	lw	t9,480(gp)
  4040a0:	00000000 	nop
  4040a4:	0320f809 	jalr	t9
  4040a8:	24050001 	li	a1,1
  4040ac:	8f99000c 	lw	t9,12(gp)
  4040b0:	00000000 	nop
  4040b4:	27393b34 	addiu	t9,t9,15156
  4040b8:	0320f809 	jalr	t9
  4040bc:	00000000 	nop
  4040c0:	8fa40068 	lw	a0,104(sp)
  4040c4:	8fa5006c 	lw	a1,108(sp)
  4040c8:	8fa60070 	lw	a2,112(sp)
  4040cc:	8f990034 	lw	t9,52(gp)
  4040d0:	00000000 	nop
  4040d4:	0320f809 	jalr	t9
  4040d8:	00000000 	nop
  4040dc:	8f990078 	lw	t9,120(gp)
  4040e0:	00000000 	nop
  4040e4:	0320f809 	jalr	t9
  4040e8:	00002021 	move	a0,zero

004040ec <init_env>:
init_env():
  4040ec:	03e00008 	jr	ra
  4040f0:	00000000 	nop

004040f4 <start_login>:
start_login():
  4040f4:	00803821 	move	a3,a0
  4040f8:	8f840008 	lw	a0,8(gp)
  4040fc:	00000000 	nop
  404100:	2484d39c 	addiu	a0,a0,-11364
  404104:	27bdffe0 	addiu	sp,sp,-32
  404108:	00802821 	move	a1,a0
  40410c:	8f860008 	lw	a2,8(gp)
  404110:	00000000 	nop
  404114:	24c6d3a4 	addiu	a2,a2,-11356
  404118:	afbf0018 	sw	ra,24(sp)
  40411c:	8f9901a0 	lw	t9,416(gp)
  404120:	00000000 	nop
  404124:	0320f809 	jalr	t9
  404128:	afa00010 	sw	zero,16(sp)
  40412c:	8f840008 	lw	a0,8(gp)
  404130:	00000000 	nop
  404134:	2484d3a8 	addiu	a0,a0,-11352
  404138:	00000000 	nop
  40413c:	00802821 	move	a1,a0
  404140:	8f9901a0 	lw	t9,416(gp)
  404144:	00000000 	nop
  404148:	0320f809 	jalr	t9
  40414c:	00003021 	move	a2,zero
  404150:	8fbf0018 	lw	ra,24(sp)
  404154:	00000000 	nop
  404158:	03e00008 	jr	ra
  40415c:	27bd0020 	addiu	sp,sp,32

00404160 <cleanup>:
cleanup():
  404160:	27bdffe0 	addiu	sp,sp,-32
  404164:	afb10014 	sw	s1,20(sp)
  404168:	8f9102b4 	lw	s1,692(gp)
  40416c:	00000000 	nop
  404170:	8e310000 	lw	s1,0(s1)
  404174:	afb00010 	sw	s0,16(sp)
  404178:	26300005 	addiu	s0,s1,5
  40417c:	afbf0018 	sw	ra,24(sp)
  404180:	8f990124 	lw	t9,292(gp)
  404184:	00000000 	nop
  404188:	0320f809 	jalr	t9
  40418c:	02002021 	move	a0,s0
  404190:	10400009 	beqz	v0,4041b8 <cleanup+0x58>
  404194:	00000000 	nop
  404198:	8f850008 	lw	a1,8(gp)
  40419c:	00000000 	nop
  4041a0:	24a5d3ac 	addiu	a1,a1,-11348
  4041a4:	02002021 	move	a0,s0
  4041a8:	8f990338 	lw	t9,824(gp)
  4041ac:	00000000 	nop
  4041b0:	0320f809 	jalr	t9
  4041b4:	00a03021 	move	a2,a1
  4041b8:	8f8402b4 	lw	a0,692(gp)
  4041bc:	00000000 	nop
  4041c0:	8c840000 	lw	a0,0(a0)
  4041c4:	8f99027c 	lw	t9,636(gp)
  4041c8:	00000000 	nop
  4041cc:	0320f809 	jalr	t9
  4041d0:	24050180 	li	a1,384
  4041d4:	8f8402b4 	lw	a0,692(gp)
  4041d8:	00000000 	nop
  4041dc:	8c840000 	lw	a0,0(a0)
  4041e0:	00003021 	move	a2,zero
  4041e4:	8f990294 	lw	t9,660(gp)
  4041e8:	00000000 	nop
  4041ec:	0320f809 	jalr	t9
  4041f0:	00002821 	move	a1,zero
  4041f4:	24030070 	li	v1,112
  4041f8:	a2230005 	sb	v1,5(s1)
  4041fc:	8f8402b4 	lw	a0,692(gp)
  404200:	00000000 	nop
  404204:	8c840000 	lw	a0,0(a0)
  404208:	8f99027c 	lw	t9,636(gp)
  40420c:	00000000 	nop
  404210:	0320f809 	jalr	t9
  404214:	240501b6 	li	a1,438
  404218:	8f8402b4 	lw	a0,692(gp)
  40421c:	00000000 	nop
  404220:	8c840000 	lw	a0,0(a0)
  404224:	00002821 	move	a1,zero
  404228:	8f990294 	lw	t9,660(gp)
  40422c:	00000000 	nop
  404230:	0320f809 	jalr	t9
  404234:	00003021 	move	a2,zero
  404238:	8f8402dc 	lw	a0,732(gp)
  40423c:	00000000 	nop
  404240:	8c840000 	lw	a0,0(a0)
  404244:	8f990138 	lw	t9,312(gp)
  404248:	00000000 	nop
  40424c:	0320f809 	jalr	t9
  404250:	24050002 	li	a1,2
  404254:	8f9900a0 	lw	t9,160(gp)
  404258:	00000000 	nop
  40425c:	0320f809 	jalr	t9
  404260:	24040001 	li	a0,1
	...

00404270 <netoprintf>:
netoprintf():
  404270:	afa40000 	sw	a0,0(sp)
  404274:	afa50004 	sw	a1,4(sp)
  404278:	afa60008 	sw	a2,8(sp)
  40427c:	afa7000c 	sw	a3,12(sp)
  404280:	27bdffe0 	addiu	sp,sp,-32
  404284:	afb10014 	sw	s1,20(sp)
  404288:	afb00010 	sw	s0,16(sp)
  40428c:	afbf0018 	sw	ra,24(sp)
  404290:	00808821 	move	s1,a0
  404294:	27b00024 	addiu	s0,sp,36
  404298:	8f8402e0 	lw	a0,736(gp)
  40429c:	00000000 	nop
  4042a0:	8c840000 	lw	a0,0(a0)
  4042a4:	00002821 	move	a1,zero
  4042a8:	02203021 	move	a2,s1
  4042ac:	8f9902e4 	lw	t9,740(gp)
  4042b0:	00000000 	nop
  4042b4:	0320f809 	jalr	t9
  4042b8:	02003821 	move	a3,s0
  4042bc:	1000fff6 	b	404298 <netoprintf+0x28>
  4042c0:	00000000 	nop

004042c4 <ttloop>:
ttloop():
  4042c4:	8f8302e0 	lw	v1,736(gp)
  4042c8:	00000000 	nop
  4042cc:	8c630000 	lw	v1,0(v1)
  4042d0:	8f8203a8 	lw	v0,936(gp)
  4042d4:	00000000 	nop
  4042d8:	8c420000 	lw	v0,0(v0)
  4042dc:	27bdffe8 	addiu	sp,sp,-24
  4042e0:	afb00010 	sw	s0,16(sp)
  4042e4:	8f900140 	lw	s0,320(gp)
  4042e8:	10620005 	beq	v1,v0,404300 <ttloop+0x3c>
  4042ec:	afbf0014 	sw	ra,20(sp)
  4042f0:	8f9900ec 	lw	t9,236(gp)
  4042f4:	00000000 	nop
  4042f8:	0320f809 	jalr	t9
  4042fc:	00000000 	nop
  404300:	8f8402dc 	lw	a0,732(gp)
  404304:	00000000 	nop
  404308:	8c840000 	lw	a0,0(a0)
  40430c:	02002821 	move	a1,s0
  404310:	8f9901dc 	lw	t9,476(gp)
  404314:	00000000 	nop
  404318:	0320f809 	jalr	t9
  40431c:	24060100 	li	a2,256
  404320:	8f81002c 	lw	at,44(gp)
  404324:	00000000 	nop
  404328:	0440001e 	bltz	v0,4043a4 <ttloop+0xe0>
  40432c:	ac220000 	sw	v0,0(at)
  404330:	1040001c 	beqz	v0,4043a4 <ttloop+0xe0>
  404334:	00000000 	nop
  404338:	8f8101f4 	lw	at,500(gp)
  40433c:	00000000 	nop
  404340:	ac300000 	sw	s0,0(at)
  404344:	8f99022c 	lw	t9,556(gp)
  404348:	00000000 	nop
  40434c:	0320f809 	jalr	t9
  404350:	00000000 	nop
  404354:	8f82002c 	lw	v0,44(gp)
  404358:	00000000 	nop
  40435c:	8c420000 	lw	v0,0(v0)
  404360:	8f830054 	lw	v1,84(gp)
  404364:	1840000b 	blez	v0,404394 <ttloop+0xd0>
  404368:	00000000 	nop
  40436c:	8f8100f4 	lw	at,244(gp)
  404370:	00000000 	nop
  404374:	ac230000 	sw	v1,0(at)
  404378:	8f810204 	lw	at,516(gp)
  40437c:	00000000 	nop
  404380:	ac230000 	sw	v1,0(at)
  404384:	8f99022c 	lw	t9,556(gp)
  404388:	00000000 	nop
  40438c:	0320f809 	jalr	t9
  404390:	00000000 	nop
  404394:	8fbf0014 	lw	ra,20(sp)
  404398:	8fb00010 	lw	s0,16(sp)
  40439c:	03e00008 	jr	ra
  4043a0:	27bd0018 	addiu	sp,sp,24
  4043a4:	8f9900a0 	lw	t9,160(gp)
  4043a8:	00000000 	nop
  4043ac:	0320f809 	jalr	t9
  4043b0:	24040001 	li	a0,1

004043b4 <stilloob>:
stilloob():
  4043b4:	27bdff38 	addiu	sp,sp,-200
  4043b8:	3082001f 	andi	v0,a0,0x1f
  4043bc:	00041942 	srl	v1,a0,0x5
  4043c0:	afa20098 	sw	v0,152(sp)
  4043c4:	afb400b0 	sw	s4,176(sp)
  4043c8:	0003a080 	sll	s4,v1,0x2
  4043cc:	8fa30098 	lw	v1,152(sp)
  4043d0:	24020001 	li	v0,1
  4043d4:	afbe00c0 	sw	s8,192(sp)
  4043d8:	afb700bc 	sw	s7,188(sp)
  4043dc:	afb600b8 	sw	s6,184(sp)
  4043e0:	afb500b4 	sw	s5,180(sp)
  4043e4:	afb300ac 	sw	s3,172(sp)
  4043e8:	afb200a8 	sw	s2,168(sp)
  4043ec:	afbf00c4 	sw	ra,196(sp)
  4043f0:	afb100a4 	sw	s1,164(sp)
  4043f4:	afb000a0 	sw	s0,160(sp)
  4043f8:	24950001 	addiu	s5,a0,1
  4043fc:	00629804 	sllv	s3,v0,v1
  404400:	27b20018 	addiu	s2,sp,24
  404404:	8f970008 	lw	s7,8(gp)
  404408:	00000000 	nop
  40440c:	26f7e48c 	addiu	s7,s7,-7028
  404410:	2416ffff 	li	s6,-1
  404414:	241e0004 	li	s8,4
  404418:	00002021 	move	a0,zero
  40441c:	02401821 	move	v1,s2
  404420:	24840001 	addiu	a0,a0,1
  404424:	2c820020 	sltiu	v0,a0,32
  404428:	ac600000 	sw	zero,0(v1)
  40442c:	1440fffc 	bnez	v0,404420 <stilloob+0x6c>
  404430:	24630004 	addiu	v1,v1,4
  404434:	02928821 	addu	s1,s4,s2
  404438:	8e220000 	lw	v0,0(s1)
  40443c:	02a02021 	move	a0,s5
  404440:	00531025 	or	v0,v0,s3
  404444:	00002821 	move	a1,zero
  404448:	00003021 	move	a2,zero
  40444c:	02403821 	move	a3,s2
  404450:	ae220000 	sw	v0,0(s1)
  404454:	8f9902c8 	lw	t9,712(gp)
  404458:	00000000 	nop
  40445c:	0320f809 	jalr	t9
  404460:	afb70010 	sw	s7,16(sp)
  404464:	14560009 	bne	v0,s6,40448c <stilloob+0xd8>
  404468:	00408021 	move	s0,v0
  40446c:	8f9900a8 	lw	t9,168(gp)
  404470:	00000000 	nop
  404474:	0320f809 	jalr	t9
  404478:	00000000 	nop
  40447c:	8c430000 	lw	v1,0(v0)
  404480:	00000000 	nop
  404484:	107effe5 	beq	v1,s8,40441c <stilloob+0x68>
  404488:	00002021 	move	a0,zero
  40448c:	06000011 	bltz	s0,4044d4 <stilloob+0x120>
  404490:	00000000 	nop
  404494:	8e220000 	lw	v0,0(s1)
  404498:	8fa30098 	lw	v1,152(sp)
  40449c:	8fbf00c4 	lw	ra,196(sp)
  4044a0:	00621007 	srav	v0,v0,v1
  4044a4:	8fbe00c0 	lw	s8,192(sp)
  4044a8:	8fb700bc 	lw	s7,188(sp)
  4044ac:	8fb600b8 	lw	s6,184(sp)
  4044b0:	8fb500b4 	lw	s5,180(sp)
  4044b4:	8fb400b0 	lw	s4,176(sp)
  4044b8:	8fb300ac 	lw	s3,172(sp)
  4044bc:	8fb200a8 	lw	s2,168(sp)
  4044c0:	8fb100a4 	lw	s1,164(sp)
  4044c4:	8fb000a0 	lw	s0,160(sp)
  4044c8:	30420001 	andi	v0,v0,0x1
  4044cc:	03e00008 	jr	ra
  4044d0:	27bd00c8 	addiu	sp,sp,200
  4044d4:	8f8401e4 	lw	a0,484(gp)
  4044d8:	00000000 	nop
  4044dc:	8c840000 	lw	a0,0(a0)
  4044e0:	8f850008 	lw	a1,8(gp)
  4044e4:	00000000 	nop
  4044e8:	24a5d3b0 	addiu	a1,a1,-11344
  4044ec:	8f9900c8 	lw	t9,200(gp)
  4044f0:	00000000 	nop
  4044f4:	0320f809 	jalr	t9
  4044f8:	00000000 	nop
  4044fc:	1000ffe5 	b	404494 <stilloob+0xe0>
  404500:	00000000 	nop

00404504 <ptyflush>:
ptyflush():
  404504:	8f830204 	lw	v1,516(gp)
  404508:	00000000 	nop
  40450c:	8c630000 	lw	v1,0(v1)
  404510:	8f8200f4 	lw	v0,244(gp)
  404514:	00000000 	nop
  404518:	8c420000 	lw	v0,0(v0)
  40451c:	27bdffe8 	addiu	sp,sp,-24
  404520:	afb00010 	sw	s0,16(sp)
  404524:	00438023 	subu	s0,v0,v1
  404528:	afbf0014 	sw	ra,20(sp)
  40452c:	00602821 	move	a1,v1
  404530:	1a000009 	blez	s0,404558 <ptyflush+0x54>
  404534:	02003021 	move	a2,s0
  404538:	8f8401e4 	lw	a0,484(gp)
  40453c:	00000000 	nop
  404540:	8c840000 	lw	a0,0(a0)
  404544:	8f990230 	lw	t9,560(gp)
  404548:	00000000 	nop
  40454c:	0320f809 	jalr	t9
  404550:	00000000 	nop
  404554:	00408021 	move	s0,v0
  404558:	06000018 	bltz	s0,4045bc <ptyflush+0xb8>
  40455c:	00000000 	nop
  404560:	8f820204 	lw	v0,516(gp)
  404564:	00000000 	nop
  404568:	8c420000 	lw	v0,0(v0)
  40456c:	8f8300f4 	lw	v1,244(gp)
  404570:	00000000 	nop
  404574:	8c630000 	lw	v1,0(v1)
  404578:	00501021 	addu	v0,v0,s0
  40457c:	8f840054 	lw	a0,84(gp)
  404580:	8f810204 	lw	at,516(gp)
  404584:	00000000 	nop
  404588:	10430005 	beq	v0,v1,4045a0 <ptyflush+0x9c>
  40458c:	ac220000 	sw	v0,0(at)
  404590:	8fbf0014 	lw	ra,20(sp)
  404594:	8fb00010 	lw	s0,16(sp)
  404598:	03e00008 	jr	ra
  40459c:	27bd0018 	addiu	sp,sp,24
  4045a0:	8f810204 	lw	at,516(gp)
  4045a4:	00000000 	nop
  4045a8:	ac240000 	sw	a0,0(at)
  4045ac:	8f8100f4 	lw	at,244(gp)
  4045b0:	00000000 	nop
  4045b4:	1000fff6 	b	404590 <ptyflush+0x8c>
  4045b8:	ac240000 	sw	a0,0(at)
  4045bc:	8f9900a8 	lw	t9,168(gp)
  4045c0:	00000000 	nop
  4045c4:	0320f809 	jalr	t9
  4045c8:	00000000 	nop
  4045cc:	8c430000 	lw	v1,0(v0)
  4045d0:	2402000b 	li	v0,11
  4045d4:	1062ffee 	beq	v1,v0,404590 <ptyflush+0x8c>
  4045d8:	24020004 	li	v0,4
  4045dc:	1062ffec 	beq	v1,v0,404590 <ptyflush+0x8c>
  4045e0:	00002021 	move	a0,zero
  4045e4:	8f990174 	lw	t9,372(gp)
  4045e8:	00000000 	nop
  4045ec:	0320f809 	jalr	t9
  4045f0:	00000000 	nop
  4045f4:	1000ffda 	b	404560 <ptyflush+0x5c>
  4045f8:	00000000 	nop

004045fc <nextitem>:
nextitem():
  4045fc:	90830000 	lbu	v1,0(a0)
  404600:	240200ff 	li	v0,255
  404604:	10620003 	beq	v1,v0,404614 <nextitem+0x18>
  404608:	24850001 	addiu	a1,a0,1
  40460c:	03e00008 	jr	ra
  404610:	00a01021 	move	v0,a1
  404614:	90830001 	lbu	v1,1(a0)
  404618:	240200fa 	li	v0,250
  40461c:	10620008 	beq	v1,v0,404640 <nextitem+0x44>
  404620:	286200fa 	slti	v0,v1,250
  404624:	1440fff9 	bnez	v0,40460c <nextitem+0x10>
  404628:	24850002 	addiu	a1,a0,2
  40462c:	286200ff 	slti	v0,v1,255
  404630:	1440fff6 	bnez	v0,40460c <nextitem+0x10>
  404634:	24850003 	addiu	a1,a0,3
  404638:	1000fff4 	b	40460c <nextitem+0x10>
  40463c:	24850002 	addiu	a1,a0,2
  404640:	24840002 	addiu	a0,a0,2
  404644:	240300ff 	li	v1,255
  404648:	240600f0 	li	a2,240
  40464c:	90820000 	lbu	v0,0(a0)
  404650:	00000000 	nop
  404654:	1443fffd 	bne	v0,v1,40464c <nextitem+0x50>
  404658:	24840001 	addiu	a0,a0,1
  40465c:	90820000 	lbu	v0,0(a0)
  404660:	24840001 	addiu	a0,a0,1
  404664:	1046ffe9 	beq	v0,a2,40460c <nextitem+0x10>
  404668:	00802821 	move	a1,a0
  40466c:	1000fff7 	b	40464c <nextitem+0x50>
  404670:	00000000 	nop

00404674 <netclear>:
netclear():
  404674:	27bdffc8 	addiu	sp,sp,-56
  404678:	afb3001c 	sw	s3,28(sp)
  40467c:	8f930098 	lw	s3,152(gp)
  404680:	afb20018 	sw	s2,24(sp)
  404684:	02609021 	move	s2,s3
  404688:	afbf0034 	sw	ra,52(sp)
  40468c:	afbe0030 	sw	s8,48(sp)
  404690:	afb7002c 	sw	s7,44(sp)
  404694:	afb60028 	sw	s6,40(sp)
  404698:	afb50024 	sw	s5,36(sp)
  40469c:	afb40020 	sw	s4,32(sp)
  4046a0:	afb10014 	sw	s1,20(sp)
  4046a4:	afb00010 	sw	s0,16(sp)
  4046a8:	8f99000c 	lw	t9,12(gp)
  4046ac:	00000000 	nop
  4046b0:	273945fc 	addiu	t9,t9,17916
  4046b4:	0320f809 	jalr	t9
  4046b8:	02402021 	move	a0,s2
  4046bc:	00408821 	move	s1,v0
  4046c0:	8f8203a8 	lw	v0,936(gp)
  4046c4:	00000000 	nop
  4046c8:	8c420000 	lw	v0,0(v0)
  4046cc:	00000000 	nop
  4046d0:	0051102b 	sltu	v0,v0,s1
  4046d4:	14400003 	bnez	v0,4046e4 <netclear+0x70>
  4046d8:	00000000 	nop
  4046dc:	1000fff2 	b	4046a8 <netclear+0x34>
  4046e0:	02209021 	move	s2,s1
  4046e4:	8f8202e0 	lw	v0,736(gp)
  4046e8:	00000000 	nop
  4046ec:	8c420000 	lw	v0,0(v0)
  4046f0:	00000000 	nop
  4046f4:	0242102b 	sltu	v0,s2,v0
  4046f8:	10400015 	beqz	v0,404750 <netclear+0xdc>
  4046fc:	0260a021 	move	s4,s3
  404700:	241700ff 	li	s7,255
  404704:	10400005 	beqz	v0,40471c <netclear+0xa8>
  404708:	241e00f7 	li	s8,247
  40470c:	92420000 	lbu	v0,0(s2)
  404710:	00000000 	nop
  404714:	10570023 	beq	v0,s7,4047a4 <netclear+0x130>
  404718:	00000000 	nop
  40471c:	8f99000c 	lw	t9,12(gp)
  404720:	00000000 	nop
  404724:	273945fc 	addiu	t9,t9,17916
  404728:	0320f809 	jalr	t9
  40472c:	02402021 	move	a0,s2
  404730:	00409021 	move	s2,v0
  404734:	8f8202e0 	lw	v0,736(gp)
  404738:	00000000 	nop
  40473c:	8c420000 	lw	v0,0(v0)
  404740:	00000000 	nop
  404744:	0242102b 	sltu	v0,s2,v0
  404748:	1440fff0 	bnez	v0,40470c <netclear+0x98>
  40474c:	00000000 	nop
  404750:	8f8103a8 	lw	at,936(gp)
  404754:	00000000 	nop
  404758:	ac330000 	sw	s3,0(at)
  40475c:	8f8102e0 	lw	at,736(gp)
  404760:	00000000 	nop
  404764:	ac340000 	sw	s4,0(at)
  404768:	8fbf0034 	lw	ra,52(sp)
  40476c:	8fbe0030 	lw	s8,48(sp)
  404770:	8fb7002c 	lw	s7,44(sp)
  404774:	8fb60028 	lw	s6,40(sp)
  404778:	8fb50024 	lw	s5,36(sp)
  40477c:	8fb40020 	lw	s4,32(sp)
  404780:	8fb3001c 	lw	s3,28(sp)
  404784:	8fb20018 	lw	s2,24(sp)
  404788:	8fb10014 	lw	s1,20(sp)
  40478c:	8fb00010 	lw	s0,16(sp)
  404790:	8f810374 	lw	at,884(gp)
  404794:	00000000 	nop
  404798:	ac200000 	sw	zero,0(at)
  40479c:	03e00008 	jr	ra
  4047a0:	27bd0038 	addiu	sp,sp,56
  4047a4:	92420001 	lbu	v0,1(s2)
  4047a8:	00000000 	nop
  4047ac:	105effdb 	beq	v0,s8,40471c <netclear+0xa8>
  4047b0:	240300f8 	li	v1,248
  4047b4:	1043ffd9 	beq	v0,v1,40471c <netclear+0xa8>
  4047b8:	02408821 	move	s1,s2
  4047bc:	241600ff 	li	s6,255
  4047c0:	241500f7 	li	s5,247
  4047c4:	241000f8 	li	s0,248
  4047c8:	8f99000c 	lw	t9,12(gp)
  4047cc:	00000000 	nop
  4047d0:	273945fc 	addiu	t9,t9,17916
  4047d4:	0320f809 	jalr	t9
  4047d8:	02202021 	move	a0,s1
  4047dc:	00408821 	move	s1,v0
  4047e0:	8f8202e0 	lw	v0,736(gp)
  4047e4:	00000000 	nop
  4047e8:	8c420000 	lw	v0,0(v0)
  4047ec:	00000000 	nop
  4047f0:	0222102b 	sltu	v0,s1,v0
  4047f4:	1040000b 	beqz	v0,404824 <netclear+0x1b0>
  4047f8:	00000000 	nop
  4047fc:	92220000 	lbu	v0,0(s1)
  404800:	00000000 	nop
  404804:	14560007 	bne	v0,s6,404824 <netclear+0x1b0>
  404808:	00000000 	nop
  40480c:	92220001 	lbu	v0,1(s1)
  404810:	00000000 	nop
  404814:	10550003 	beq	v0,s5,404824 <netclear+0x1b0>
  404818:	00000000 	nop
  40481c:	1450ffea 	bne	v0,s0,4047c8 <netclear+0x154>
  404820:	00000000 	nop
  404824:	02328023 	subu	s0,s1,s2
  404828:	02402021 	move	a0,s2
  40482c:	02802821 	move	a1,s4
  404830:	8f9901b0 	lw	t9,432(gp)
  404834:	00000000 	nop
  404838:	0320f809 	jalr	t9
  40483c:	02003021 	move	a2,s0
  404840:	0290a021 	addu	s4,s4,s0
  404844:	1000ffbb 	b	404734 <netclear+0xc0>
  404848:	02209021 	move	s2,s1

0040484c <netflush>:
netflush():
  40484c:	8f8503a8 	lw	a1,936(gp)
  404850:	00000000 	nop
  404854:	8ca50000 	lw	a1,0(a1)
  404858:	8f8202e0 	lw	v0,736(gp)
  40485c:	00000000 	nop
  404860:	8c420000 	lw	v0,0(v0)
  404864:	27bdffe8 	addiu	sp,sp,-24
  404868:	afb00010 	sw	s0,16(sp)
  40486c:	00458023 	subu	s0,v0,a1
  404870:	1a000015 	blez	s0,4048c8 <netflush+0x7c>
  404874:	afbf0014 	sw	ra,20(sp)
  404878:	8f830374 	lw	v1,884(gp)
  40487c:	00000000 	nop
  404880:	8c630000 	lw	v1,0(v1)
  404884:	00000000 	nop
  404888:	10600007 	beqz	v1,4048a8 <netflush+0x5c>
  40488c:	00000000 	nop
  404890:	8f820188 	lw	v0,392(gp)
  404894:	00000000 	nop
  404898:	8c420000 	lw	v0,0(v0)
  40489c:	00000000 	nop
  4048a0:	1440003c 	bnez	v0,404994 <netflush+0x148>
  4048a4:	00000000 	nop
  4048a8:	8f8402dc 	lw	a0,732(gp)
  4048ac:	00000000 	nop
  4048b0:	8c840000 	lw	a0,0(a0)
  4048b4:	8f990230 	lw	t9,560(gp)
  4048b8:	00000000 	nop
  4048bc:	0320f809 	jalr	t9
  4048c0:	02003021 	move	a2,s0
  4048c4:	00408021 	move	s0,v0
  4048c8:	06000022 	bltz	s0,404954 <netflush+0x108>
  4048cc:	00000000 	nop
  4048d0:	8f8303a8 	lw	v1,936(gp)
  4048d4:	00000000 	nop
  4048d8:	8c630000 	lw	v1,0(v1)
  4048dc:	8f820374 	lw	v0,884(gp)
  4048e0:	00000000 	nop
  4048e4:	8c420000 	lw	v0,0(v0)
  4048e8:	00701821 	addu	v1,v1,s0
  4048ec:	0062102b 	sltu	v0,v1,v0
  4048f0:	8f8103a8 	lw	at,936(gp)
  4048f4:	00000000 	nop
  4048f8:	14400004 	bnez	v0,40490c <netflush+0xc0>
  4048fc:	ac230000 	sw	v1,0(at)
  404900:	8f810374 	lw	at,884(gp)
  404904:	00000000 	nop
  404908:	ac200000 	sw	zero,0(at)
  40490c:	8f8202e0 	lw	v0,736(gp)
  404910:	00000000 	nop
  404914:	8c420000 	lw	v0,0(v0)
  404918:	00000000 	nop
  40491c:	10620005 	beq	v1,v0,404934 <netflush+0xe8>
  404920:	00000000 	nop
  404924:	8fbf0014 	lw	ra,20(sp)
  404928:	8fb00010 	lw	s0,16(sp)
  40492c:	03e00008 	jr	ra
  404930:	27bd0018 	addiu	sp,sp,24
  404934:	8f820098 	lw	v0,152(gp)
  404938:	8f8103a8 	lw	at,936(gp)
  40493c:	00000000 	nop
  404940:	ac220000 	sw	v0,0(at)
  404944:	8f8102e0 	lw	at,736(gp)
  404948:	00000000 	nop
  40494c:	1000fff5 	b	404924 <netflush+0xd8>
  404950:	ac220000 	sw	v0,0(at)
  404954:	8f9900a8 	lw	t9,168(gp)
  404958:	00000000 	nop
  40495c:	0320f809 	jalr	t9
  404960:	00000000 	nop
  404964:	8c430000 	lw	v1,0(v0)
  404968:	2402000b 	li	v0,11
  40496c:	1062ffed 	beq	v1,v0,404924 <netflush+0xd8>
  404970:	24020004 	li	v0,4
  404974:	1062ffeb 	beq	v1,v0,404924 <netflush+0xd8>
  404978:	00000000 	nop
  40497c:	8f990174 	lw	t9,372(gp)
  404980:	00000000 	nop
  404984:	0320f809 	jalr	t9
  404988:	00002021 	move	a0,zero
  40498c:	1000ffd0 	b	4048d0 <netflush+0x84>
  404990:	00000000 	nop
  404994:	00658023 	subu	s0,v1,a1
  404998:	2a020002 	slti	v0,s0,2
  40499c:	1440000c 	bnez	v0,4049d0 <netflush+0x184>
  4049a0:	00000000 	nop
  4049a4:	8f8402dc 	lw	a0,732(gp)
  4049a8:	00000000 	nop
  4049ac:	8c840000 	lw	a0,0(a0)
  4049b0:	2606ffff 	addiu	a2,s0,-1
  4049b4:	00003821 	move	a3,zero
  4049b8:	8f990284 	lw	t9,644(gp)
  4049bc:	00000000 	nop
  4049c0:	0320f809 	jalr	t9
  4049c4:	00000000 	nop
  4049c8:	1000ffbf 	b	4048c8 <netflush+0x7c>
  4049cc:	00408021 	move	s0,v0
  4049d0:	8f8402dc 	lw	a0,732(gp)
  4049d4:	00000000 	nop
  4049d8:	8c840000 	lw	a0,0(a0)
  4049dc:	02003021 	move	a2,s0
  4049e0:	1000fff5 	b	4049b8 <netflush+0x16c>
  4049e4:	24070001 	li	a3,1

004049e8 <writenet>:
writenet():
  4049e8:	8f8302e0 	lw	v1,736(gp)
  4049ec:	00000000 	nop
  4049f0:	8c630000 	lw	v1,0(v1)
  4049f4:	8f820098 	lw	v0,152(gp)
  4049f8:	00000000 	nop
  4049fc:	24420100 	addiu	v0,v0,256
  404a00:	00431023 	subu	v0,v0,v1
  404a04:	27bdffe0 	addiu	sp,sp,-32
  404a08:	0045102a 	slt	v0,v0,a1
  404a0c:	afb10014 	sw	s1,20(sp)
  404a10:	afb00010 	sw	s0,16(sp)
  404a14:	afbf0018 	sw	ra,24(sp)
  404a18:	00a08021 	move	s0,a1
  404a1c:	14400013 	bnez	v0,404a6c <writenet+0x84>
  404a20:	00808821 	move	s1,a0
  404a24:	00602821 	move	a1,v1
  404a28:	02202021 	move	a0,s1
  404a2c:	8f9901b0 	lw	t9,432(gp)
  404a30:	00000000 	nop
  404a34:	0320f809 	jalr	t9
  404a38:	02003021 	move	a2,s0
  404a3c:	8f8202e0 	lw	v0,736(gp)
  404a40:	00000000 	nop
  404a44:	8c420000 	lw	v0,0(v0)
  404a48:	8fbf0018 	lw	ra,24(sp)
  404a4c:	00501821 	addu	v1,v0,s0
  404a50:	8fb10014 	lw	s1,20(sp)
  404a54:	8fb00010 	lw	s0,16(sp)
  404a58:	8f8102e0 	lw	at,736(gp)
  404a5c:	00000000 	nop
  404a60:	ac230000 	sw	v1,0(at)
  404a64:	03e00008 	jr	ra
  404a68:	27bd0020 	addiu	sp,sp,32
  404a6c:	8f9900ec 	lw	t9,236(gp)
  404a70:	00000000 	nop
  404a74:	0320f809 	jalr	t9
  404a78:	00000000 	nop
  404a7c:	8f8302e0 	lw	v1,736(gp)
  404a80:	00000000 	nop
  404a84:	8c630000 	lw	v1,0(v1)
  404a88:	1000ffe7 	b	404a28 <writenet+0x40>
  404a8c:	00602821 	move	a1,v1

00404a90 <fatal>:
fatal():
  404a90:	27bdfee8 	addiu	sp,sp,-280
  404a94:	00a03021 	move	a2,a1
  404a98:	afb00110 	sw	s0,272(sp)
  404a9c:	8f850008 	lw	a1,8(gp)
  404aa0:	00000000 	nop
  404aa4:	24a5d3b8 	addiu	a1,a1,-11336
  404aa8:	00808021 	move	s0,a0
  404aac:	afbf0114 	sw	ra,276(sp)
  404ab0:	8f99011c 	lw	t9,284(gp)
  404ab4:	00000000 	nop
  404ab8:	0320f809 	jalr	t9
  404abc:	27a40010 	addiu	a0,sp,16
  404ac0:	8f990070 	lw	t9,112(gp)
  404ac4:	00000000 	nop
  404ac8:	0320f809 	jalr	t9
  404acc:	27a40010 	addiu	a0,sp,16
  404ad0:	00403021 	move	a2,v0
  404ad4:	02002021 	move	a0,s0
  404ad8:	8f990230 	lw	t9,560(gp)
  404adc:	00000000 	nop
  404ae0:	0320f809 	jalr	t9
  404ae4:	27a50010 	addiu	a1,sp,16
  404ae8:	8f9902ec 	lw	t9,748(gp)
  404aec:	00000000 	nop
  404af0:	0320f809 	jalr	t9
  404af4:	24040001 	li	a0,1
  404af8:	8f9900a0 	lw	t9,160(gp)
  404afc:	00000000 	nop
  404b00:	0320f809 	jalr	t9
  404b04:	24040001 	li	a0,1

00404b08 <fatalperror>:
fatalperror():
  404b08:	27bdfee0 	addiu	sp,sp,-288
  404b0c:	afbf0118 	sw	ra,280(sp)
  404b10:	afb10114 	sw	s1,276(sp)
  404b14:	afb00110 	sw	s0,272(sp)
  404b18:	00808821 	move	s1,a0
  404b1c:	8f9900a8 	lw	t9,168(gp)
  404b20:	00000000 	nop
  404b24:	0320f809 	jalr	t9
  404b28:	00a08021 	move	s0,a1
  404b2c:	8c440000 	lw	a0,0(v0)
  404b30:	8f990370 	lw	t9,880(gp)
  404b34:	00000000 	nop
  404b38:	0320f809 	jalr	t9
  404b3c:	00000000 	nop
  404b40:	00403821 	move	a3,v0
  404b44:	02003021 	move	a2,s0
  404b48:	8f850008 	lw	a1,8(gp)
  404b4c:	00000000 	nop
  404b50:	24a5d3c8 	addiu	a1,a1,-11320
  404b54:	8f99011c 	lw	t9,284(gp)
  404b58:	00000000 	nop
  404b5c:	0320f809 	jalr	t9
  404b60:	27a40010 	addiu	a0,sp,16
  404b64:	02202021 	move	a0,s1
  404b68:	8f9901ec 	lw	t9,492(gp)
  404b6c:	00000000 	nop
  404b70:	0320f809 	jalr	t9
  404b74:	27a50010 	addiu	a1,sp,16
  404b78:	8fbf0118 	lw	ra,280(sp)
  404b7c:	8fb10114 	lw	s1,276(sp)
  404b80:	8fb00110 	lw	s0,272(sp)
  404b84:	03e00008 	jr	ra
  404b88:	27bd0120 	addiu	sp,sp,288
  404b8c:	00000000 	nop

00404b90 <logwtmp>:
logwtmp():
  404b90:	03e00008 	jr	ra
  404b94:	00000000 	nop
	...

00404ba0 <logout>:
logout():
  404ba0:	03e00008 	jr	ra
  404ba4:	00000000 	nop
	...

00404bb0 <isupper>:
isupper():
  404bb0:	3c1c0000 	lui	gp,0x0
  404bb4:	279c7f90 	addiu	gp,gp,32656
  404bb8:	0399e021 	addu	gp,gp,t9
  404bbc:	2482ffbf 	addiu	v0,a0,-65
  404bc0:	03e00008 	jr	ra
  404bc4:	2c42001a 	sltiu	v0,v0,26
	...

00404bd0 <tolower>:
tolower():
  404bd0:	3c1c0000 	lui	gp,0x0
  404bd4:	279c7f70 	addiu	gp,gp,32624
  404bd8:	0399e021 	addu	gp,gp,t9
  404bdc:	2482ffbf 	addiu	v0,a0,-65
  404be0:	2c42001a 	sltiu	v0,v0,26
  404be4:	10400002 	beqz	v0,404bf0 <tolower+0x20>
  404be8:	00000000 	nop
  404bec:	34840020 	ori	a0,a0,0x20
  404bf0:	03e00008 	jr	ra
  404bf4:	00801021 	move	v0,a0
	...

00404c00 <__uClibc_main>:
__uClibc_main():
  404c00:	3c1c0000 	lui	gp,0x0
  404c04:	279c7f40 	addiu	gp,gp,32576
  404c08:	0399e021 	addu	gp,gp,t9
  404c0c:	27bdffd0 	addiu	sp,sp,-48
  404c10:	afbc0010 	sw	gp,16(sp)
  404c14:	8f82029c 	lw	v0,668(gp)
  404c18:	00000000 	nop
  404c1c:	8c420000 	lw	v0,0(v0)
  404c20:	afb20020 	sw	s2,32(sp)
  404c24:	afb1001c 	sw	s1,28(sp)
  404c28:	afb00018 	sw	s0,24(sp)
  404c2c:	afbf0028 	sw	ra,40(sp)
  404c30:	afbc0024 	sw	gp,36(sp)
  404c34:	00808821 	move	s1,a0
  404c38:	00a09021 	move	s2,a1
  404c3c:	14400004 	bnez	v0,404c50 <__uClibc_main+0x50>
  404c40:	00c08021 	move	s0,a2
  404c44:	8f81029c 	lw	at,668(gp)
  404c48:	00000000 	nop
  404c4c:	ac260000 	sw	a2,0(at)
  404c50:	8f82009c 	lw	v0,156(gp)
  404c54:	00000000 	nop
  404c58:	10400006 	beqz	v0,404c74 <__uClibc_main+0x74>
  404c5c:	00000000 	nop
  404c60:	0040c821 	move	t9,v0
  404c64:	0320f809 	jalr	t9
  404c68:	00000000 	nop
  404c6c:	8fbc0010 	lw	gp,16(sp)
  404c70:	00000000 	nop
  404c74:	8f840128 	lw	a0,296(gp)
  404c78:	00000000 	nop
  404c7c:	1080000a 	beqz	a0,404ca8 <__uClibc_main+0xa8>
  404c80:	00000000 	nop
  404c84:	8f820118 	lw	v0,280(gp)
  404c88:	00000000 	nop
  404c8c:	10400006 	beqz	v0,404ca8 <__uClibc_main+0xa8>
  404c90:	00000000 	nop
  404c94:	0040c821 	move	t9,v0
  404c98:	0320f809 	jalr	t9
  404c9c:	00000000 	nop
  404ca0:	8fbc0010 	lw	gp,16(sp)
  404ca4:	00000000 	nop
  404ca8:	8f820274 	lw	v0,628(gp)
  404cac:	00000000 	nop
  404cb0:	10400006 	beqz	v0,404ccc <__uClibc_main+0xcc>
  404cb4:	00000000 	nop
  404cb8:	0040c821 	move	t9,v0
  404cbc:	0320f809 	jalr	t9
  404cc0:	00000000 	nop
  404cc4:	8fbc0010 	lw	gp,16(sp)
  404cc8:	00000000 	nop
  404ccc:	8f8200a8 	lw	v0,168(gp)
  404cd0:	00000000 	nop
  404cd4:	10400006 	beqz	v0,404cf0 <__uClibc_main+0xf0>
  404cd8:	00000000 	nop
  404cdc:	0040c821 	move	t9,v0
  404ce0:	0320f809 	jalr	t9
  404ce4:	00000000 	nop
  404ce8:	8fbc0010 	lw	gp,16(sp)
  404cec:	ac400000 	sw	zero,0(v0)
  404cf0:	8f820130 	lw	v0,304(gp)
  404cf4:	00000000 	nop
  404cf8:	10400007 	beqz	v0,404d18 <__uClibc_main+0x118>
  404cfc:	02202021 	move	a0,s1
  404d00:	0040c821 	move	t9,v0
  404d04:	0320f809 	jalr	t9
  404d08:	00000000 	nop
  404d0c:	8fbc0010 	lw	gp,16(sp)
  404d10:	ac400000 	sw	zero,0(v0)
  404d14:	02202021 	move	a0,s1
  404d18:	02402821 	move	a1,s2
  404d1c:	02003021 	move	a2,s0
  404d20:	8f990178 	lw	t9,376(gp)
  404d24:	00000000 	nop
  404d28:	0320f809 	jalr	t9
  404d2c:	00000000 	nop
  404d30:	8fbc0010 	lw	gp,16(sp)
  404d34:	00402021 	move	a0,v0
  404d38:	8f9900a0 	lw	t9,160(gp)
  404d3c:	00000000 	nop
  404d40:	0320f809 	jalr	t9
  404d44:	00000000 	nop
  404d48:	8fbc0010 	lw	gp,16(sp)
  404d4c:	00000000 	nop

00404d50 <__errno_location>:
__errno_location():
  404d50:	3c1c0000 	lui	gp,0x0
  404d54:	279c7df0 	addiu	gp,gp,32240
  404d58:	0399e021 	addu	gp,gp,t9
  404d5c:	8f820340 	lw	v0,832(gp)
  404d60:	03e00008 	jr	ra
  404d64:	00000000 	nop
	...

00404d70 <perror>:
perror():
  404d70:	3c1c0000 	lui	gp,0x0
  404d74:	279c7dd0 	addiu	gp,gp,32208
  404d78:	0399e021 	addu	gp,gp,t9
  404d7c:	27bdffe0 	addiu	sp,sp,-32
  404d80:	afbc0010 	sw	gp,16(sp)
  404d84:	00803021 	move	a2,a0
  404d88:	afbf001c 	sw	ra,28(sp)
  404d8c:	afbc0018 	sw	gp,24(sp)
  404d90:	8f850008 	lw	a1,8(gp)
  404d94:	00000000 	nop
  404d98:	24a5d3e0 	addiu	a1,a1,-11296
  404d9c:	8f840100 	lw	a0,256(gp)
  404da0:	00000000 	nop
  404da4:	8c840000 	lw	a0,0(a0)
  404da8:	8f870008 	lw	a3,8(gp)
  404dac:	00000000 	nop
  404db0:	24e7d3e8 	addiu	a3,a3,-11288
  404db4:	10c00005 	beqz	a2,404dcc <perror+0x5c>
  404db8:	00000000 	nop
  404dbc:	80c20000 	lb	v0,0(a2)
  404dc0:	00000000 	nop
  404dc4:	14400003 	bnez	v0,404dd4 <perror+0x64>
  404dc8:	00000000 	nop
  404dcc:	24e70002 	addiu	a3,a3,2
  404dd0:	00e03021 	move	a2,a3
  404dd4:	8f990224 	lw	t9,548(gp)
  404dd8:	00000000 	nop
  404ddc:	0320f809 	jalr	t9
  404de0:	00000000 	nop
  404de4:	8fbc0010 	lw	gp,16(sp)
  404de8:	8fbf001c 	lw	ra,28(sp)
  404dec:	00000000 	nop
  404df0:	03e00008 	jr	ra
  404df4:	27bd0020 	addiu	sp,sp,32
	...

00404e00 <_cs_read>:
_cs_read():
  404e00:	3c1c0000 	lui	gp,0x0
  404e04:	279c7d40 	addiu	gp,gp,32064
  404e08:	0399e021 	addu	gp,gp,t9
  404e0c:	27bdffe0 	addiu	sp,sp,-32
  404e10:	afbc0010 	sw	gp,16(sp)
  404e14:	afbf001c 	sw	ra,28(sp)
  404e18:	afbc0018 	sw	gp,24(sp)
  404e1c:	8c840000 	lw	a0,0(a0)
  404e20:	8f9901dc 	lw	t9,476(gp)
  404e24:	00000000 	nop
  404e28:	0320f809 	jalr	t9
  404e2c:	00000000 	nop
  404e30:	8fbc0010 	lw	gp,16(sp)
  404e34:	8fbf001c 	lw	ra,28(sp)
  404e38:	00000000 	nop
  404e3c:	03e00008 	jr	ra
  404e40:	27bd0020 	addiu	sp,sp,32

00404e44 <_cs_write>:
_cs_write():
  404e44:	3c1c0000 	lui	gp,0x0
  404e48:	279c7cfc 	addiu	gp,gp,31996
  404e4c:	0399e021 	addu	gp,gp,t9
  404e50:	27bdffe0 	addiu	sp,sp,-32
  404e54:	afbc0010 	sw	gp,16(sp)
  404e58:	afbf001c 	sw	ra,28(sp)
  404e5c:	afbc0018 	sw	gp,24(sp)
  404e60:	8c840000 	lw	a0,0(a0)
  404e64:	8f990230 	lw	t9,560(gp)
  404e68:	00000000 	nop
  404e6c:	0320f809 	jalr	t9
  404e70:	00000000 	nop
  404e74:	8fbc0010 	lw	gp,16(sp)
  404e78:	8fbf001c 	lw	ra,28(sp)
  404e7c:	00000000 	nop
  404e80:	03e00008 	jr	ra
  404e84:	27bd0020 	addiu	sp,sp,32

00404e88 <_cs_close>:
_cs_close():
  404e88:	3c1c0000 	lui	gp,0x0
  404e8c:	279c7cb8 	addiu	gp,gp,31928
  404e90:	0399e021 	addu	gp,gp,t9
  404e94:	27bdffe0 	addiu	sp,sp,-32
  404e98:	afbc0010 	sw	gp,16(sp)
  404e9c:	afbf001c 	sw	ra,28(sp)
  404ea0:	afbc0018 	sw	gp,24(sp)
  404ea4:	8c840000 	lw	a0,0(a0)
  404ea8:	8f990030 	lw	t9,48(gp)
  404eac:	00000000 	nop
  404eb0:	0320f809 	jalr	t9
  404eb4:	00000000 	nop
  404eb8:	8fbc0010 	lw	gp,16(sp)
  404ebc:	8fbf001c 	lw	ra,28(sp)
  404ec0:	00000000 	nop
  404ec4:	03e00008 	jr	ra
  404ec8:	27bd0020 	addiu	sp,sp,32

00404ecc <__stdio_init_mutex>:
__stdio_init_mutex():
  404ecc:	3c1c0000 	lui	gp,0x0
  404ed0:	279c7c74 	addiu	gp,gp,31860
  404ed4:	0399e021 	addu	gp,gp,t9
  404ed8:	27bdffe0 	addiu	sp,sp,-32
  404edc:	afbc0010 	sw	gp,16(sp)
  404ee0:	8f850008 	lw	a1,8(gp)
  404ee4:	00000000 	nop
  404ee8:	24a5d3f0 	addiu	a1,a1,-11280
  404eec:	24060018 	li	a2,24
  404ef0:	afbf001c 	sw	ra,28(sp)
  404ef4:	afbc0018 	sw	gp,24(sp)
  404ef8:	8f990320 	lw	t9,800(gp)
  404efc:	00000000 	nop
  404f00:	0320f809 	jalr	t9
  404f04:	00000000 	nop
  404f08:	8fbc0010 	lw	gp,16(sp)
  404f0c:	8fbf001c 	lw	ra,28(sp)
  404f10:	00000000 	nop
  404f14:	03e00008 	jr	ra
  404f18:	27bd0020 	addiu	sp,sp,32

00404f1c <_stdio_term>:
_stdio_term():
  404f1c:	3c1c0000 	lui	gp,0x0
  404f20:	279c7c24 	addiu	gp,gp,31780
  404f24:	0399e021 	addu	gp,gp,t9
  404f28:	27bdffd8 	addiu	sp,sp,-40
  404f2c:	afbc0010 	sw	gp,16(sp)
  404f30:	8f840088 	lw	a0,136(gp)
  404f34:	afb00018 	sw	s0,24(sp)
  404f38:	afbf0024 	sw	ra,36(sp)
  404f3c:	afbc0020 	sw	gp,32(sp)
  404f40:	afb1001c 	sw	s1,28(sp)
  404f44:	8f990144 	lw	t9,324(gp)
  404f48:	00000000 	nop
  404f4c:	0320f809 	jalr	t9
  404f50:	00000000 	nop
  404f54:	8fbc0010 	lw	gp,16(sp)
  404f58:	00000000 	nop
  404f5c:	8f900214 	lw	s0,532(gp)
  404f60:	00000000 	nop
  404f64:	8e100000 	lw	s0,0(s0)
  404f68:	00000000 	nop
  404f6c:	1200000e 	beqz	s0,404fa8 <_stdio_term+0x8c>
  404f70:	00002021 	move	a0,zero
  404f74:	24110001 	li	s1,1
  404f78:	2604004c 	addiu	a0,s0,76
  404f7c:	ae110048 	sw	s1,72(s0)
  404f80:	8f990144 	lw	t9,324(gp)
  404f84:	00000000 	nop
  404f88:	0320f809 	jalr	t9
  404f8c:	00000000 	nop
  404f90:	8fbc0010 	lw	gp,16(sp)
  404f94:	8e100010 	lw	s0,16(s0)
  404f98:	00000000 	nop
  404f9c:	1600fff7 	bnez	s0,404f7c <_stdio_term+0x60>
  404fa0:	2604004c 	addiu	a0,s0,76
  404fa4:	00002021 	move	a0,zero
  404fa8:	8f9900e0 	lw	t9,224(gp)
  404fac:	00000000 	nop
  404fb0:	0320f809 	jalr	t9
  404fb4:	00000000 	nop
  404fb8:	8fbc0010 	lw	gp,16(sp)
  404fbc:	00000000 	nop
  404fc0:	8f900214 	lw	s0,532(gp)
  404fc4:	00000000 	nop
  404fc8:	8e100000 	lw	s0,0(s0)
  404fcc:	00000000 	nop
  404fd0:	1200000e 	beqz	s0,40500c <_stdio_term+0xf0>
  404fd4:	00000000 	nop
  404fd8:	8e04002c 	lw	a0,44(s0)
  404fdc:	2602000c 	addiu	v0,s0,12
  404fe0:	10820006 	beq	a0,v0,404ffc <_stdio_term+0xe0>
  404fe4:	00000000 	nop
  404fe8:	8e02003c 	lw	v0,60(s0)
  404fec:	00000000 	nop
  404ff0:	1440000b 	bnez	v0,405020 <_stdio_term+0x104>
  404ff4:	00000000 	nop
  404ff8:	ae00002c 	sw	zero,44(s0)
  404ffc:	8e100010 	lw	s0,16(s0)
  405000:	00000000 	nop
  405004:	1600fff4 	bnez	s0,404fd8 <_stdio_term+0xbc>
  405008:	00000000 	nop
  40500c:	8fbf0024 	lw	ra,36(sp)
  405010:	8fb1001c 	lw	s1,28(sp)
  405014:	8fb00018 	lw	s0,24(sp)
  405018:	03e00008 	jr	ra
  40501c:	27bd0028 	addiu	sp,sp,40
  405020:	0040c821 	move	t9,v0
  405024:	0320f809 	jalr	t9
  405028:	00000000 	nop
  40502c:	8fbc0010 	lw	gp,16(sp)
  405030:	1000fff2 	b	404ffc <_stdio_term+0xe0>
  405034:	ae00002c 	sw	zero,44(s0)

00405038 <_stdio_init>:
_stdio_init():
  405038:	3c1c0000 	lui	gp,0x0
  40503c:	279c7b08 	addiu	gp,gp,31496
  405040:	0399e021 	addu	gp,gp,t9
  405044:	27bdffd8 	addiu	sp,sp,-40
  405048:	afbc0010 	sw	gp,16(sp)
  40504c:	00002021 	move	a0,zero
  405050:	afbf0024 	sw	ra,36(sp)
  405054:	afb1001c 	sw	s1,28(sp)
  405058:	afb00018 	sw	s0,24(sp)
  40505c:	8f910008 	lw	s1,8(gp)
  405060:	00000000 	nop
  405064:	2631e540 	addiu	s1,s1,-6848
  405068:	afbc0020 	sw	gp,32(sp)
  40506c:	24100001 	li	s0,1
  405070:	8f9902f0 	lw	t9,752(gp)
  405074:	00000000 	nop
  405078:	0320f809 	jalr	t9
  40507c:	00000000 	nop
  405080:	8fbc0010 	lw	gp,16(sp)
  405084:	02021023 	subu	v0,s0,v0
  405088:	96230000 	lhu	v1,0(s1)
  40508c:	00021200 	sll	v0,v0,0x8
  405090:	00621826 	xor	v1,v1,v0
  405094:	24040001 	li	a0,1
  405098:	a6230000 	sh	v1,0(s1)
  40509c:	8f9902f0 	lw	t9,752(gp)
  4050a0:	00000000 	nop
  4050a4:	0320f809 	jalr	t9
  4050a8:	00000000 	nop
  4050ac:	8fbc0010 	lw	gp,16(sp)
  4050b0:	02028023 	subu	s0,s0,v0
  4050b4:	96220064 	lhu	v0,100(s1)
  4050b8:	00108200 	sll	s0,s0,0x8
  4050bc:	00501026 	xor	v0,v0,s0
  4050c0:	a6220064 	sh	v0,100(s1)
  4050c4:	8fbf0024 	lw	ra,36(sp)
  4050c8:	8fb1001c 	lw	s1,28(sp)
  4050cc:	8fb00018 	lw	s0,24(sp)
  4050d0:	03e00008 	jr	ra
  4050d4:	27bd0028 	addiu	sp,sp,40
	...

004050e0 <vsnprintf>:
vsnprintf():
  4050e0:	3c1c0000 	lui	gp,0x0
  4050e4:	279c7a60 	addiu	gp,gp,31328
  4050e8:	0399e021 	addu	gp,gp,t9
  4050ec:	27bdff68 	addiu	sp,sp,-152
  4050f0:	afbc0010 	sw	gp,16(sp)
  4050f4:	00801021 	move	v0,a0
  4050f8:	afb00080 	sw	s0,128(sp)
  4050fc:	00a08021 	move	s0,a1
  405100:	00022827 	nor	a1,zero,v0
  405104:	00b0182b 	sltu	v1,a1,s0
  405108:	afb20088 	sw	s2,136(sp)
  40510c:	afb10084 	sw	s1,132(sp)
  405110:	00804021 	move	t0,a0
  405114:	afbf0090 	sw	ra,144(sp)
  405118:	afbc008c 	sw	gp,140(sp)
  40511c:	27a40064 	addiu	a0,sp,100
  405120:	00c08821 	move	s1,a2
  405124:	00e09021 	move	s2,a3
  405128:	afa20034 	sw	v0,52(sp)
  40512c:	afa2003c 	sw	v0,60(sp)
  405130:	afa2002c 	sw	v0,44(sp)
  405134:	10600002 	beqz	v1,405140 <vsnprintf+0x60>
  405138:	afa20038 	sw	v0,56(sp)
  40513c:	00a08021 	move	s0,a1
  405140:	01102821 	addu	a1,t0,s0
  405144:	2402fffe 	li	v0,-2
  405148:	24032090 	li	v1,8336
  40514c:	afa50040 	sw	a1,64(sp)
  405150:	afa50030 	sw	a1,48(sp)
  405154:	afa20024 	sw	v0,36(sp)
  405158:	a7a30018 	sh	v1,24(sp)
  40515c:	afa00058 	sw	zero,88(sp)
  405160:	afa00060 	sw	zero,96(sp)
  405164:	8f990144 	lw	t9,324(gp)
  405168:	00000000 	nop
  40516c:	0320f809 	jalr	t9
  405170:	00000000 	nop
  405174:	8fbc0010 	lw	gp,16(sp)
  405178:	02202821 	move	a1,s1
  40517c:	02403021 	move	a2,s2
  405180:	27a40018 	addiu	a0,sp,24
  405184:	8f990024 	lw	t9,36(gp)
  405188:	00000000 	nop
  40518c:	0320f809 	jalr	t9
  405190:	00000000 	nop
  405194:	8fbc0010 	lw	gp,16(sp)
  405198:	12000007 	beqz	s0,4051b8 <vsnprintf+0xd8>
  40519c:	00000000 	nop
  4051a0:	8fa80034 	lw	t0,52(sp)
  4051a4:	8fa30030 	lw	v1,48(sp)
  4051a8:	00000000 	nop
  4051ac:	11030008 	beq	t0,v1,4051d0 <vsnprintf+0xf0>
  4051b0:	00000000 	nop
  4051b4:	a1000000 	sb	zero,0(t0)
  4051b8:	8fbf0090 	lw	ra,144(sp)
  4051bc:	8fb20088 	lw	s2,136(sp)
  4051c0:	8fb10084 	lw	s1,132(sp)
  4051c4:	8fb00080 	lw	s0,128(sp)
  4051c8:	03e00008 	jr	ra
  4051cc:	27bd0098 	addiu	sp,sp,152
  4051d0:	2508ffff 	addiu	t0,t0,-1
  4051d4:	1000fff7 	b	4051b4 <vsnprintf+0xd4>
  4051d8:	afa80034 	sw	t0,52(sp)
  4051dc:	00000000 	nop

004051e0 <fprintf>:
fprintf():
  4051e0:	3c1c0000 	lui	gp,0x0
  4051e4:	279c7960 	addiu	gp,gp,31072
  4051e8:	0399e021 	addu	gp,gp,t9
  4051ec:	27bdffe0 	addiu	sp,sp,-32
  4051f0:	afbc0010 	sw	gp,16(sp)
  4051f4:	afa60028 	sw	a2,40(sp)
  4051f8:	27a60028 	addiu	a2,sp,40
  4051fc:	afbf001c 	sw	ra,28(sp)
  405200:	afa50024 	sw	a1,36(sp)
  405204:	afa7002c 	sw	a3,44(sp)
  405208:	afbc0018 	sw	gp,24(sp)
  40520c:	8f990024 	lw	t9,36(gp)
  405210:	00000000 	nop
  405214:	0320f809 	jalr	t9
  405218:	00000000 	nop
  40521c:	8fbc0010 	lw	gp,16(sp)
  405220:	8fbf001c 	lw	ra,28(sp)
  405224:	00000000 	nop
  405228:	03e00008 	jr	ra
  40522c:	27bd0020 	addiu	sp,sp,32

00405230 <printf>:
printf():
  405230:	3c1c0000 	lui	gp,0x0
  405234:	279c7910 	addiu	gp,gp,30992
  405238:	0399e021 	addu	gp,gp,t9
  40523c:	27bdffe0 	addiu	sp,sp,-32
  405240:	afbc0010 	sw	gp,16(sp)
  405244:	afa40020 	sw	a0,32(sp)
  405248:	afa50024 	sw	a1,36(sp)
  40524c:	00802821 	move	a1,a0
  405250:	8f840388 	lw	a0,904(gp)
  405254:	00000000 	nop
  405258:	8c840000 	lw	a0,0(a0)
  40525c:	afa60028 	sw	a2,40(sp)
  405260:	27a60024 	addiu	a2,sp,36
  405264:	afbf001c 	sw	ra,28(sp)
  405268:	afa7002c 	sw	a3,44(sp)
  40526c:	afbc0018 	sw	gp,24(sp)
  405270:	8f990024 	lw	t9,36(gp)
  405274:	00000000 	nop
  405278:	0320f809 	jalr	t9
  40527c:	00000000 	nop
  405280:	8fbc0010 	lw	gp,16(sp)
  405284:	8fbf001c 	lw	ra,28(sp)
  405288:	00000000 	nop
  40528c:	03e00008 	jr	ra
  405290:	27bd0020 	addiu	sp,sp,32
	...

004052a0 <sprintf>:
sprintf():
  4052a0:	3c1c0000 	lui	gp,0x0
  4052a4:	279c78a0 	addiu	gp,gp,30880
  4052a8:	0399e021 	addu	gp,gp,t9
  4052ac:	27bdffe0 	addiu	sp,sp,-32
  4052b0:	afbc0010 	sw	gp,16(sp)
  4052b4:	afa50024 	sw	a1,36(sp)
  4052b8:	afa60028 	sw	a2,40(sp)
  4052bc:	afa7002c 	sw	a3,44(sp)
  4052c0:	00a03021 	move	a2,a1
  4052c4:	27a70028 	addiu	a3,sp,40
  4052c8:	2405ffff 	li	a1,-1
  4052cc:	afbf001c 	sw	ra,28(sp)
  4052d0:	afbc0018 	sw	gp,24(sp)
  4052d4:	8f9902e4 	lw	t9,740(gp)
  4052d8:	00000000 	nop
  4052dc:	0320f809 	jalr	t9
  4052e0:	00000000 	nop
  4052e4:	8fbc0010 	lw	gp,16(sp)
  4052e8:	8fbf001c 	lw	ra,28(sp)
  4052ec:	00000000 	nop
  4052f0:	03e00008 	jr	ra
  4052f4:	27bd0020 	addiu	sp,sp,32
	...

00405300 <vfprintf>:
vfprintf():
  405300:	3c1c0000 	lui	gp,0x0
  405304:	279c7840 	addiu	gp,gp,30784
  405308:	0399e021 	addu	gp,gp,t9
  40530c:	27bdff20 	addiu	sp,sp,-224
  405310:	afbc0010 	sw	gp,16(sp)
  405314:	afb300d4 	sw	s3,212(sp)
  405318:	afb200d0 	sw	s2,208(sp)
  40531c:	afb000c8 	sw	s0,200(sp)
  405320:	afbf00dc 	sw	ra,220(sp)
  405324:	afbc00d8 	sw	gp,216(sp)
  405328:	afb100cc 	sw	s1,204(sp)
  40532c:	8c820048 	lw	v0,72(a0)
  405330:	00809021 	move	s2,a0
  405334:	00a08021 	move	s0,a1
  405338:	10400070 	beqz	v0,4054fc <vfprintf+0x1fc>
  40533c:	00c09821 	move	s3,a2
  405340:	27a40018 	addiu	a0,sp,24
  405344:	02002821 	move	a1,s0
  405348:	afa000c0 	sw	zero,192(sp)
  40534c:	8f990304 	lw	t9,772(gp)
  405350:	00000000 	nop
  405354:	0320f809 	jalr	t9
  405358:	00000000 	nop
  40535c:	8fbc0010 	lw	gp,16(sp)
  405360:	04400055 	bltz	v0,4054b8 <vfprintf+0x1b8>
  405364:	02008821 	move	s1,s0
  405368:	02602821 	move	a1,s3
  40536c:	27a40018 	addiu	a0,sp,24
  405370:	8f9900c0 	lw	t9,192(gp)
  405374:	00000000 	nop
  405378:	0320f809 	jalr	t9
  40537c:	00000000 	nop
  405380:	8fbc0010 	lw	gp,16(sp)
  405384:	82040000 	lb	a0,0(s0)
  405388:	92030000 	lbu	v1,0(s0)
  40538c:	1080000b 	beqz	a0,4053bc <vfprintf+0xbc>
  405390:	24020025 	li	v0,37
  405394:	10820009 	beq	a0,v0,4053bc <vfprintf+0xbc>
  405398:	00000000 	nop
  40539c:	24040025 	li	a0,37
  4053a0:	26100001 	addiu	s0,s0,1
  4053a4:	82020000 	lb	v0,0(s0)
  4053a8:	92030000 	lbu	v1,0(s0)
  4053ac:	10400003 	beqz	v0,4053bc <vfprintf+0xbc>
  4053b0:	00000000 	nop
  4053b4:	1444fffa 	bne	v0,a0,4053a0 <vfprintf+0xa0>
  4053b8:	00000000 	nop
  4053bc:	12110010 	beq	s0,s1,405400 <vfprintf+0x100>
  4053c0:	02112823 	subu	a1,s0,s1
  4053c4:	02202021 	move	a0,s1
  4053c8:	02403021 	move	a2,s2
  4053cc:	8f99037c 	lw	t9,892(gp)
  4053d0:	00000000 	nop
  4053d4:	0320f809 	jalr	t9
  4053d8:	00000000 	nop
  4053dc:	8fbc0010 	lw	gp,16(sp)
  4053e0:	04400020 	bltz	v0,405464 <vfprintf+0x164>
  4053e4:	00401821 	move	v1,v0
  4053e8:	8fa200c0 	lw	v0,192(sp)
  4053ec:	00000000 	nop
  4053f0:	00431021 	addu	v0,v0,v1
  4053f4:	afa200c0 	sw	v0,192(sp)
  4053f8:	92030000 	lbu	v1,0(s0)
  4053fc:	00000000 	nop
  405400:	00031600 	sll	v0,v1,0x18
  405404:	10400019 	beqz	v0,40546c <vfprintf+0x16c>
  405408:	24020025 	li	v0,37
  40540c:	82030001 	lb	v1,1(s0)
  405410:	00000000 	nop
  405414:	14620005 	bne	v1,v0,40542c <vfprintf+0x12c>
  405418:	02402021 	move	a0,s2
  40541c:	26100001 	addiu	s0,s0,1
  405420:	02008821 	move	s1,s0
  405424:	1000ffd7 	b	405384 <vfprintf+0x84>
  405428:	26100001 	addiu	s0,s0,1
  40542c:	26100001 	addiu	s0,s0,1
  405430:	27a50018 	addiu	a1,sp,24
  405434:	27a600c0 	addiu	a2,sp,192
  405438:	afb00018 	sw	s0,24(sp)
  40543c:	8f990090 	lw	t9,144(gp)
  405440:	00000000 	nop
  405444:	0320f809 	jalr	t9
  405448:	00000000 	nop
  40544c:	8fbc0010 	lw	gp,16(sp)
  405450:	04400005 	bltz	v0,405468 <vfprintf+0x168>
  405454:	2402ffff 	li	v0,-1
  405458:	8fb00018 	lw	s0,24(sp)
  40545c:	1000ffc9 	b	405384 <vfprintf+0x84>
  405460:	02008821 	move	s1,s0
  405464:	2402ffff 	li	v0,-1
  405468:	afa200c0 	sw	v0,192(sp)
  40546c:	8e420048 	lw	v0,72(s2)
  405470:	00000000 	nop
  405474:	10400009 	beqz	v0,40549c <vfprintf+0x19c>
  405478:	2644004c 	addiu	a0,s2,76
  40547c:	8fa200c0 	lw	v0,192(sp)
  405480:	8fbf00dc 	lw	ra,220(sp)
  405484:	8fb300d4 	lw	s3,212(sp)
  405488:	8fb200d0 	lw	s2,208(sp)
  40548c:	8fb100cc 	lw	s1,204(sp)
  405490:	8fb000c8 	lw	s0,200(sp)
  405494:	03e00008 	jr	ra
  405498:	27bd00e0 	addiu	sp,sp,224
  40549c:	8f990134 	lw	t9,308(gp)
  4054a0:	00000000 	nop
  4054a4:	0320f809 	jalr	t9
  4054a8:	00000000 	nop
  4054ac:	8fbc0010 	lw	gp,16(sp)
  4054b0:	1000fff2 	b	40547c <vfprintf+0x17c>
  4054b4:	00000000 	nop
  4054b8:	02002021 	move	a0,s0
  4054bc:	8f990070 	lw	t9,112(gp)
  4054c0:	00000000 	nop
  4054c4:	0320f809 	jalr	t9
  4054c8:	00000000 	nop
  4054cc:	8fbc0010 	lw	gp,16(sp)
  4054d0:	00402821 	move	a1,v0
  4054d4:	02002021 	move	a0,s0
  4054d8:	02403021 	move	a2,s2
  4054dc:	8f99037c 	lw	t9,892(gp)
  4054e0:	00000000 	nop
  4054e4:	0320f809 	jalr	t9
  4054e8:	00000000 	nop
  4054ec:	8fbc0010 	lw	gp,16(sp)
  4054f0:	2403ffff 	li	v1,-1
  4054f4:	1000ffdd 	b	40546c <vfprintf+0x16c>
  4054f8:	afa300c0 	sw	v1,192(sp)
  4054fc:	2484004c 	addiu	a0,a0,76
  405500:	8f9900b4 	lw	t9,180(gp)
  405504:	00000000 	nop
  405508:	0320f809 	jalr	t9
  40550c:	00000000 	nop
  405510:	8fbc0010 	lw	gp,16(sp)
  405514:	1000ff8b 	b	405344 <vfprintf+0x44>
  405518:	27a40018 	addiu	a0,sp,24
  40551c:	00000000 	nop

00405520 <bcopy>:
bcopy():
  405520:	3c1c0000 	lui	gp,0x0
  405524:	279c7620 	addiu	gp,gp,30240
  405528:	0399e021 	addu	gp,gp,t9
  40552c:	27bdffe0 	addiu	sp,sp,-32
  405530:	afbc0010 	sw	gp,16(sp)
  405534:	00801021 	move	v0,a0
  405538:	00a02021 	move	a0,a1
  40553c:	00402821 	move	a1,v0
  405540:	afbf001c 	sw	ra,28(sp)
  405544:	afbc0018 	sw	gp,24(sp)
  405548:	8f990360 	lw	t9,864(gp)
  40554c:	00000000 	nop
  405550:	0320f809 	jalr	t9
  405554:	00000000 	nop
  405558:	8fbc0010 	lw	gp,16(sp)
  40555c:	8fbf001c 	lw	ra,28(sp)
  405560:	00000000 	nop
  405564:	03e00008 	jr	ra
  405568:	27bd0020 	addiu	sp,sp,32
  40556c:	00000000 	nop

00405570 <bzero>:
bzero():
  405570:	3c1c0000 	lui	gp,0x0
  405574:	279c75d0 	addiu	gp,gp,30160
  405578:	0399e021 	addu	gp,gp,t9
  40557c:	10a00005 	beqz	a1,405594 <bzero+0x24>
  405580:	00000000 	nop
  405584:	24a5ffff 	addiu	a1,a1,-1
  405588:	a0800000 	sb	zero,0(a0)
  40558c:	14a0fffd 	bnez	a1,405584 <bzero+0x14>
  405590:	24840001 	addiu	a0,a0,1
  405594:	03e00008 	jr	ra
  405598:	00000000 	nop
  40559c:	00000000 	nop

004055a0 <memcmp>:
memcmp():
  4055a0:	3c1c0000 	lui	gp,0x0
  4055a4:	279c75a0 	addiu	gp,gp,30112
  4055a8:	0399e021 	addu	gp,gp,t9
  4055ac:	00001021 	move	v0,zero
  4055b0:	2407ffff 	li	a3,-1
  4055b4:	24c6ffff 	addiu	a2,a2,-1
  4055b8:	10c70007 	beq	a2,a3,4055d8 <memcmp+0x38>
  4055bc:	00000000 	nop
  4055c0:	90830000 	lbu	v1,0(a0)
  4055c4:	90a20000 	lbu	v0,0(a1)
  4055c8:	24840001 	addiu	a0,a0,1
  4055cc:	00621023 	subu	v0,v1,v0
  4055d0:	1040fff8 	beqz	v0,4055b4 <memcmp+0x14>
  4055d4:	24a50001 	addiu	a1,a1,1
  4055d8:	03e00008 	jr	ra
  4055dc:	00000000 	nop

004055e0 <memcpy>:
memcpy():
  4055e0:	3c1c0000 	lui	gp,0x0
  4055e4:	279c7560 	addiu	gp,gp,30048
  4055e8:	0399e021 	addu	gp,gp,t9
  4055ec:	10c00007 	beqz	a2,40560c <memcpy+0x2c>
  4055f0:	00801821 	move	v1,a0
  4055f4:	90a20000 	lbu	v0,0(a1)
  4055f8:	24c6ffff 	addiu	a2,a2,-1
  4055fc:	a0620000 	sb	v0,0(v1)
  405600:	24a50001 	addiu	a1,a1,1
  405604:	14c0fffb 	bnez	a2,4055f4 <memcpy+0x14>
  405608:	24630001 	addiu	v1,v1,1
  40560c:	03e00008 	jr	ra
  405610:	00801021 	move	v0,a0
	...

00405620 <memmove>:
memmove():
  405620:	3c1c0000 	lui	gp,0x0
  405624:	279c7520 	addiu	gp,gp,29984
  405628:	0399e021 	addu	gp,gp,t9
  40562c:	00a4102b 	sltu	v0,a1,a0
  405630:	00803821 	move	a3,a0
  405634:	1440000b 	bnez	v0,405664 <memmove+0x44>
  405638:	00a01821 	move	v1,a1
  40563c:	10c00007 	beqz	a2,40565c <memmove+0x3c>
  405640:	00000000 	nop
  405644:	90620000 	lbu	v0,0(v1)
  405648:	24c6ffff 	addiu	a2,a2,-1
  40564c:	a0820000 	sb	v0,0(a0)
  405650:	24630001 	addiu	v1,v1,1
  405654:	14c0fffb 	bnez	a2,405644 <memmove+0x24>
  405658:	24840001 	addiu	a0,a0,1
  40565c:	03e00008 	jr	ra
  405660:	00e01021 	move	v0,a3
  405664:	10c0fffd 	beqz	a2,40565c <memmove+0x3c>
  405668:	00000000 	nop
  40566c:	24c6ffff 	addiu	a2,a2,-1
  405670:	00a61021 	addu	v0,a1,a2
  405674:	90440000 	lbu	a0,0(v0)
  405678:	00e61821 	addu	v1,a3,a2
  40567c:	14c0fffb 	bnez	a2,40566c <memmove+0x4c>
  405680:	a0640000 	sb	a0,0(v1)
  405684:	1000fff5 	b	40565c <memmove+0x3c>
  405688:	00000000 	nop
  40568c:	00000000 	nop

00405690 <strlen>:
strlen():
  405690:	3c1c0000 	lui	gp,0x0
  405694:	279c74b0 	addiu	gp,gp,29872
  405698:	0399e021 	addu	gp,gp,t9
  40569c:	80820000 	lb	v0,0(a0)
  4056a0:	00000000 	nop
  4056a4:	10400006 	beqz	v0,4056c0 <strlen+0x30>
  4056a8:	00801821 	move	v1,a0
  4056ac:	24630001 	addiu	v1,v1,1
  4056b0:	80620000 	lb	v0,0(v1)
  4056b4:	00000000 	nop
  4056b8:	1440fffc 	bnez	v0,4056ac <strlen+0x1c>
  4056bc:	00000000 	nop
  4056c0:	03e00008 	jr	ra
  4056c4:	00641023 	subu	v0,v1,a0
	...

004056d0 <strncmp>:
strncmp():
  4056d0:	3c1c0000 	lui	gp,0x0
  4056d4:	279c7470 	addiu	gp,gp,29808
  4056d8:	0399e021 	addu	gp,gp,t9
  4056dc:	00001021 	move	v0,zero
  4056e0:	2407ffff 	li	a3,-1
  4056e4:	24c6ffff 	addiu	a2,a2,-1
  4056e8:	10c70009 	beq	a2,a3,405710 <strncmp+0x40>
  4056ec:	00000000 	nop
  4056f0:	90830000 	lbu	v1,0(a0)
  4056f4:	90a20000 	lbu	v0,0(a1)
  4056f8:	24840001 	addiu	a0,a0,1
  4056fc:	00621023 	subu	v0,v1,v0
  405700:	14400003 	bnez	v0,405710 <strncmp+0x40>
  405704:	24a50001 	addiu	a1,a1,1
  405708:	1460fff6 	bnez	v1,4056e4 <strncmp+0x14>
  40570c:	00000000 	nop
  405710:	03e00008 	jr	ra
  405714:	00000000 	nop
	...

00405720 <strncpy>:
strncpy():
  405720:	3c1c0000 	lui	gp,0x0
  405724:	279c7420 	addiu	gp,gp,29728
  405728:	0399e021 	addu	gp,gp,t9
  40572c:	10c00009 	beqz	a2,405754 <strncpy+0x34>
  405730:	00801821 	move	v1,a0
  405734:	90a20000 	lbu	v0,0(a1)
  405738:	24c6ffff 	addiu	a2,a2,-1
  40573c:	a0620000 	sb	v0,0(v1)
  405740:	10400002 	beqz	v0,40574c <strncpy+0x2c>
  405744:	24630001 	addiu	v1,v1,1
  405748:	24a50001 	addiu	a1,a1,1
  40574c:	14c0fff9 	bnez	a2,405734 <strncpy+0x14>
  405750:	00000000 	nop
  405754:	03e00008 	jr	ra
  405758:	00801021 	move	v0,a0
  40575c:	00000000 	nop

00405760 <strerror>:
strerror():
  405760:	3c1c0000 	lui	gp,0x0
  405764:	279c73e0 	addiu	gp,gp,29664
  405768:	0399e021 	addu	gp,gp,t9
  40576c:	27bdffd8 	addiu	sp,sp,-40
  405770:	afbc0010 	sw	gp,16(sp)
  405774:	afb00018 	sw	s0,24(sp)
  405778:	8f900008 	lw	s0,8(gp)
  40577c:	00000000 	nop
  405780:	2610e9b0 	addiu	s0,s0,-5712
  405784:	00000000 	nop
  405788:	02002821 	move	a1,s0
  40578c:	24060032 	li	a2,50
  405790:	afbf0020 	sw	ra,32(sp)
  405794:	afbc001c 	sw	gp,28(sp)
  405798:	8f99013c 	lw	t9,316(gp)
  40579c:	00000000 	nop
  4057a0:	0320f809 	jalr	t9
  4057a4:	00000000 	nop
  4057a8:	8fbc0010 	lw	gp,16(sp)
  4057ac:	02001021 	move	v0,s0
  4057b0:	8fbf0020 	lw	ra,32(sp)
  4057b4:	8fb00018 	lw	s0,24(sp)
  4057b8:	03e00008 	jr	ra
  4057bc:	27bd0028 	addiu	sp,sp,40

004057c0 <_susv3_strerror_r>:
_susv3_strerror_r():
  4057c0:	3c1c0000 	lui	gp,0x0
  4057c4:	279c7380 	addiu	gp,gp,29568
  4057c8:	0399e021 	addu	gp,gp,t9
  4057cc:	27bdff88 	addiu	sp,sp,-120
  4057d0:	afbc0018 	sw	gp,24(sp)
  4057d4:	afb40068 	sw	s4,104(sp)
  4057d8:	afb30064 	sw	s3,100(sp)
  4057dc:	afb20060 	sw	s2,96(sp)
  4057e0:	afb00058 	sw	s0,88(sp)
  4057e4:	afbf0070 	sw	ra,112(sp)
  4057e8:	afbc006c 	sw	gp,108(sp)
  4057ec:	afb1005c 	sw	s1,92(sp)
  4057f0:	00a0a021 	move	s4,a1
  4057f4:	00c09021 	move	s2,a2
  4057f8:	24130016 	li	s3,22
  4057fc:	00008021 	move	s0,zero
  405800:	8f820008 	lw	v0,8(gp)
  405804:	00000000 	nop
  405808:	2442d410 	addiu	v0,v0,-11248
  40580c:	00501021 	addu	v0,v0,s0
  405810:	90420000 	lbu	v0,0(v0)
  405814:	00000000 	nop
  405818:	10440009 	beq	v0,a0,405840 <_susv3_strerror_r+0x80>
  40581c:	2e02007e 	sltiu	v0,s0,126
  405820:	26100001 	addiu	s0,s0,1
  405824:	2e02007e 	sltiu	v0,s0,126
  405828:	1440fff5 	bnez	v0,405800 <_susv3_strerror_r+0x40>
  40582c:	2402046d 	li	v0,1133
  405830:	3c107fff 	lui	s0,0x7fff
  405834:	10820057 	beq	a0,v0,405994 <_susv3_strerror_r+0x1d4>
  405838:	3610ffff 	ori	s0,s0,0xffff
  40583c:	2e02007e 	sltiu	v0,s0,126
  405840:	1040003d 	beqz	v0,405938 <_susv3_strerror_r+0x178>
  405844:	000437c3 	sra	a2,a0,0x1f
  405848:	8f9102a8 	lw	s1,680(gp)
  40584c:	12000008 	beqz	s0,405870 <_susv3_strerror_r+0xb0>
  405850:	00000000 	nop
  405854:	82220000 	lb	v0,0(s1)
  405858:	00000000 	nop
  40585c:	14400002 	bnez	v0,405868 <_susv3_strerror_r+0xa8>
  405860:	26310001 	addiu	s1,s1,1
  405864:	2610ffff 	addiu	s0,s0,-1
  405868:	1600fffa 	bnez	s0,405854 <_susv3_strerror_r+0x94>
  40586c:	00000000 	nop
  405870:	82220000 	lb	v0,0(s1)
  405874:	00000000 	nop
  405878:	1040002f 	beqz	v0,405938 <_susv3_strerror_r+0x178>
  40587c:	000437c3 	sra	a2,a0,0x1f
  405880:	00009821 	move	s3,zero
  405884:	1280002a 	beqz	s4,405930 <_susv3_strerror_r+0x170>
  405888:	00000000 	nop
  40588c:	02202021 	move	a0,s1
  405890:	8f990070 	lw	t9,112(gp)
  405894:	00000000 	nop
  405898:	0320f809 	jalr	t9
  40589c:	00000000 	nop
  4058a0:	8fbc0018 	lw	gp,24(sp)
  4058a4:	24500001 	addiu	s0,v0,1
  4058a8:	0250102b 	sltu	v0,s2,s0
  4058ac:	10400003 	beqz	v0,4058bc <_susv3_strerror_r+0xfc>
  4058b0:	00000000 	nop
  4058b4:	02408021 	move	s0,s2
  4058b8:	24130022 	li	s3,34
  4058bc:	16000012 	bnez	s0,405908 <_susv3_strerror_r+0x148>
  4058c0:	02202821 	move	a1,s1
  4058c4:	12600008 	beqz	s3,4058e8 <_susv3_strerror_r+0x128>
  4058c8:	02601021 	move	v0,s3
  4058cc:	8f9900a8 	lw	t9,168(gp)
  4058d0:	00000000 	nop
  4058d4:	0320f809 	jalr	t9
  4058d8:	00000000 	nop
  4058dc:	8fbc0018 	lw	gp,24(sp)
  4058e0:	ac530000 	sw	s3,0(v0)
  4058e4:	02601021 	move	v0,s3
  4058e8:	8fbf0070 	lw	ra,112(sp)
  4058ec:	8fb40068 	lw	s4,104(sp)
  4058f0:	8fb30064 	lw	s3,100(sp)
  4058f4:	8fb20060 	lw	s2,96(sp)
  4058f8:	8fb1005c 	lw	s1,92(sp)
  4058fc:	8fb00058 	lw	s0,88(sp)
  405900:	03e00008 	jr	ra
  405904:	27bd0078 	addiu	sp,sp,120
  405908:	02802021 	move	a0,s4
  40590c:	02003021 	move	a2,s0
  405910:	8f990320 	lw	t9,800(gp)
  405914:	00000000 	nop
  405918:	0320f809 	jalr	t9
  40591c:	00000000 	nop
  405920:	8fbc0018 	lw	gp,24(sp)
  405924:	02901821 	addu	v1,s4,s0
  405928:	1000ffe6 	b	4058c4 <_susv3_strerror_r+0x104>
  40592c:	a060ffff 	sb	zero,-1(v1)
  405930:	1000ffd6 	b	40588c <_susv3_strerror_r+0xcc>
  405934:	00009021 	move	s2,zero
  405938:	00803821 	move	a3,a0
  40593c:	2402fff6 	li	v0,-10
  405940:	27a40051 	addiu	a0,sp,81
  405944:	afa20010 	sw	v0,16(sp)
  405948:	afa00014 	sw	zero,20(sp)
  40594c:	8f990358 	lw	t9,856(gp)
  405950:	00000000 	nop
  405954:	0320f809 	jalr	t9
  405958:	00000000 	nop
  40595c:	8fbc0018 	lw	gp,24(sp)
  405960:	2451fff2 	addiu	s1,v0,-14
  405964:	8f850008 	lw	a1,8(gp)
  405968:	00000000 	nop
  40596c:	24a5d490 	addiu	a1,a1,-11120
  405970:	02202021 	move	a0,s1
  405974:	2406000e 	li	a2,14
  405978:	8f990320 	lw	t9,800(gp)
  40597c:	00000000 	nop
  405980:	0320f809 	jalr	t9
  405984:	00000000 	nop
  405988:	8fbc0018 	lw	gp,24(sp)
  40598c:	1000ffbd 	b	405884 <_susv3_strerror_r+0xc4>
  405990:	00000000 	nop
  405994:	1000ffa9 	b	40583c <_susv3_strerror_r+0x7c>
  405998:	2410007a 	li	s0,122
  40599c:	00000000 	nop

004059a0 <isatty>:
isatty():
  4059a0:	3c1c0000 	lui	gp,0x0
  4059a4:	279c71a0 	addiu	gp,gp,29088
  4059a8:	0399e021 	addu	gp,gp,t9
  4059ac:	27bdffa8 	addiu	sp,sp,-88
  4059b0:	afbc0010 	sw	gp,16(sp)
  4059b4:	27a50018 	addiu	a1,sp,24
  4059b8:	afbf0054 	sw	ra,84(sp)
  4059bc:	afbc0050 	sw	gp,80(sp)
  4059c0:	8f990158 	lw	t9,344(gp)
  4059c4:	00000000 	nop
  4059c8:	0320f809 	jalr	t9
  4059cc:	00000000 	nop
  4059d0:	8fbc0010 	lw	gp,16(sp)
  4059d4:	8fbf0054 	lw	ra,84(sp)
  4059d8:	2c420001 	sltiu	v0,v0,1
  4059dc:	03e00008 	jr	ra
  4059e0:	27bd0058 	addiu	sp,sp,88
	...

004059f0 <cfsetospeed>:
cfsetospeed():
  4059f0:	3c1c0000 	lui	gp,0x0
  4059f4:	279c7150 	addiu	gp,gp,29008
  4059f8:	0399e021 	addu	gp,gp,t9
  4059fc:	27bdffe0 	addiu	sp,sp,-32
  405a00:	afbc0010 	sw	gp,16(sp)
  405a04:	2402eff0 	li	v0,-4112
  405a08:	24a3efff 	addiu	v1,a1,-4097
  405a0c:	00a21024 	and	v0,a1,v0
  405a10:	afbf001c 	sw	ra,28(sp)
  405a14:	afbc0018 	sw	gp,24(sp)
  405a18:	1040000f 	beqz	v0,405a58 <cfsetospeed+0x68>
  405a1c:	2c630004 	sltiu	v1,v1,4
  405a20:	1460000d 	bnez	v1,405a58 <cfsetospeed+0x68>
  405a24:	00000000 	nop
  405a28:	8f9900a8 	lw	t9,168(gp)
  405a2c:	00000000 	nop
  405a30:	0320f809 	jalr	t9
  405a34:	00000000 	nop
  405a38:	8fbc0010 	lw	gp,16(sp)
  405a3c:	24030016 	li	v1,22
  405a40:	2406ffff 	li	a2,-1
  405a44:	ac430000 	sw	v1,0(v0)
  405a48:	8fbf001c 	lw	ra,28(sp)
  405a4c:	00c01021 	move	v0,a2
  405a50:	03e00008 	jr	ra
  405a54:	27bd0020 	addiu	sp,sp,32
  405a58:	8c820008 	lw	v0,8(a0)
  405a5c:	2403eff0 	li	v1,-4112
  405a60:	00431024 	and	v0,v0,v1
  405a64:	00451025 	or	v0,v0,a1
  405a68:	00003021 	move	a2,zero
  405a6c:	1000fff6 	b	405a48 <cfsetospeed+0x58>
  405a70:	ac820008 	sw	v0,8(a0)
	...

00405a80 <cfsetispeed>:
cfsetispeed():
  405a80:	3c1c0000 	lui	gp,0x0
  405a84:	279c70c0 	addiu	gp,gp,28864
  405a88:	0399e021 	addu	gp,gp,t9
  405a8c:	27bdffe0 	addiu	sp,sp,-32
  405a90:	afbc0010 	sw	gp,16(sp)
  405a94:	2402eff0 	li	v0,-4112
  405a98:	24a3efff 	addiu	v1,a1,-4097
  405a9c:	00a21024 	and	v0,a1,v0
  405aa0:	afbf001c 	sw	ra,28(sp)
  405aa4:	afbc0018 	sw	gp,24(sp)
  405aa8:	2c630004 	sltiu	v1,v1,4
  405aac:	1040000f 	beqz	v0,405aec <cfsetispeed+0x6c>
  405ab0:	00803021 	move	a2,a0
  405ab4:	1460000e 	bnez	v1,405af0 <cfsetispeed+0x70>
  405ab8:	3c077fff 	lui	a3,0x7fff
  405abc:	8f9900a8 	lw	t9,168(gp)
  405ac0:	00000000 	nop
  405ac4:	0320f809 	jalr	t9
  405ac8:	00000000 	nop
  405acc:	8fbc0010 	lw	gp,16(sp)
  405ad0:	24030016 	li	v1,22
  405ad4:	2404ffff 	li	a0,-1
  405ad8:	ac430000 	sw	v1,0(v0)
  405adc:	8fbf001c 	lw	ra,28(sp)
  405ae0:	00801021 	move	v0,a0
  405ae4:	03e00008 	jr	ra
  405ae8:	27bd0020 	addiu	sp,sp,32
  405aec:	3c077fff 	lui	a3,0x7fff
  405af0:	14a00007 	bnez	a1,405b10 <cfsetispeed+0x90>
  405af4:	34e7ffff 	ori	a3,a3,0xffff
  405af8:	8cc20000 	lw	v0,0(a2)
  405afc:	3c038000 	lui	v1,0x8000
  405b00:	00431025 	or	v0,v0,v1
  405b04:	acc20000 	sw	v0,0(a2)
  405b08:	1000fff4 	b	405adc <cfsetispeed+0x5c>
  405b0c:	00002021 	move	a0,zero
  405b10:	8cc20008 	lw	v0,8(a2)
  405b14:	8cc40000 	lw	a0,0(a2)
  405b18:	2403eff0 	li	v1,-4112
  405b1c:	00431024 	and	v0,v0,v1
  405b20:	00872024 	and	a0,a0,a3
  405b24:	00451025 	or	v0,v0,a1
  405b28:	acc20008 	sw	v0,8(a2)
  405b2c:	1000fff6 	b	405b08 <cfsetispeed+0x88>
  405b30:	acc40000 	sw	a0,0(a2)
	...

00405b40 <tcgetattr>:
tcgetattr():
  405b40:	3c1c0000 	lui	gp,0x0
  405b44:	279c7000 	addiu	gp,gp,28672
  405b48:	0399e021 	addu	gp,gp,t9
  405b4c:	27bdffb0 	addiu	sp,sp,-80
  405b50:	afbc0010 	sw	gp,16(sp)
  405b54:	afb00040 	sw	s0,64(sp)
  405b58:	27a60018 	addiu	a2,sp,24
  405b5c:	00a08021 	move	s0,a1
  405b60:	2405540d 	li	a1,21517
  405b64:	afbf004c 	sw	ra,76(sp)
  405b68:	afb10044 	sw	s1,68(sp)
  405b6c:	afbc0048 	sw	gp,72(sp)
  405b70:	8f990394 	lw	t9,916(gp)
  405b74:	00000000 	nop
  405b78:	0320f809 	jalr	t9
  405b7c:	00000000 	nop
  405b80:	8fbc0010 	lw	gp,16(sp)
  405b84:	00408821 	move	s1,v0
  405b88:	8fa3001c 	lw	v1,28(sp)
  405b8c:	8fa50020 	lw	a1,32(sp)
  405b90:	8fa60024 	lw	a2,36(sp)
  405b94:	93a70028 	lbu	a3,40(sp)
  405b98:	8fa20018 	lw	v0,24(sp)
  405b9c:	26040011 	addiu	a0,s0,17
  405ba0:	ae030004 	sw	v1,4(s0)
  405ba4:	ae050008 	sw	a1,8(s0)
  405ba8:	ae06000c 	sw	a2,12(s0)
  405bac:	a2070010 	sb	a3,16(s0)
  405bb0:	27a50029 	addiu	a1,sp,41
  405bb4:	ae020000 	sw	v0,0(s0)
  405bb8:	24060017 	li	a2,23
  405bbc:	8f9902b0 	lw	t9,688(gp)
  405bc0:	00000000 	nop
  405bc4:	0320f809 	jalr	t9
  405bc8:	00000000 	nop
  405bcc:	8fbc0010 	lw	gp,16(sp)
  405bd0:	00402021 	move	a0,v0
  405bd4:	00002821 	move	a1,zero
  405bd8:	24060009 	li	a2,9
  405bdc:	8f99017c 	lw	t9,380(gp)
  405be0:	00000000 	nop
  405be4:	0320f809 	jalr	t9
  405be8:	00000000 	nop
  405bec:	8fbc0010 	lw	gp,16(sp)
  405bf0:	02201021 	move	v0,s1
  405bf4:	8fbf004c 	lw	ra,76(sp)
  405bf8:	8fb10044 	lw	s1,68(sp)
  405bfc:	8fb00040 	lw	s0,64(sp)
  405c00:	03e00008 	jr	ra
  405c04:	27bd0050 	addiu	sp,sp,80
	...

00405c10 <tcsetattr>:
tcsetattr():
  405c10:	3c1c0000 	lui	gp,0x0
  405c14:	279c6f30 	addiu	gp,gp,28464
  405c18:	0399e021 	addu	gp,gp,t9
  405c1c:	27bdffa8 	addiu	sp,sp,-88
  405c20:	afbc0010 	sw	gp,16(sp)
  405c24:	2402540f 	li	v0,21519
  405c28:	afb20048 	sw	s2,72(sp)
  405c2c:	afb00040 	sw	s0,64(sp)
  405c30:	afbf0050 	sw	ra,80(sp)
  405c34:	afbc004c 	sw	gp,76(sp)
  405c38:	afb10044 	sw	s1,68(sp)
  405c3c:	00809021 	move	s2,a0
  405c40:	10a20060 	beq	a1,v0,405dc4 <tcsetattr+0x1b4>
  405c44:	00c08021 	move	s0,a2
  405c48:	28a25410 	slti	v0,a1,21520
  405c4c:	10400059 	beqz	v0,405db4 <tcsetattr+0x1a4>
  405c50:	24025410 	li	v0,21520
  405c54:	2402540e 	li	v0,21518
  405c58:	10a20010 	beq	a1,v0,405c9c <tcsetattr+0x8c>
  405c5c:	2411540e 	li	s1,21518
  405c60:	8f9900a8 	lw	t9,168(gp)
  405c64:	00000000 	nop
  405c68:	0320f809 	jalr	t9
  405c6c:	00000000 	nop
  405c70:	8fbc0010 	lw	gp,16(sp)
  405c74:	24030016 	li	v1,22
  405c78:	2404ffff 	li	a0,-1
  405c7c:	ac430000 	sw	v1,0(v0)
  405c80:	8fbf0050 	lw	ra,80(sp)
  405c84:	8fb20048 	lw	s2,72(sp)
  405c88:	8fb10044 	lw	s1,68(sp)
  405c8c:	8fb00040 	lw	s0,64(sp)
  405c90:	00801021 	move	v0,a0
  405c94:	03e00008 	jr	ra
  405c98:	27bd0058 	addiu	sp,sp,88
  405c9c:	8e030000 	lw	v1,0(s0)
  405ca0:	3c027fff 	lui	v0,0x7fff
  405ca4:	8e070004 	lw	a3,4(s0)
  405ca8:	8e080008 	lw	t0,8(s0)
  405cac:	8e09000c 	lw	t1,12(s0)
  405cb0:	920a0010 	lbu	t2,16(s0)
  405cb4:	3442ffff 	ori	v0,v0,0xffff
  405cb8:	00621824 	and	v1,v1,v0
  405cbc:	26050011 	addiu	a1,s0,17
  405cc0:	27a40029 	addiu	a0,sp,41
  405cc4:	24060017 	li	a2,23
  405cc8:	afa30018 	sw	v1,24(sp)
  405ccc:	afa7001c 	sw	a3,28(sp)
  405cd0:	afa80020 	sw	t0,32(sp)
  405cd4:	afa90024 	sw	t1,36(sp)
  405cd8:	a3aa0028 	sb	t2,40(sp)
  405cdc:	8f990320 	lw	t9,800(gp)
  405ce0:	00000000 	nop
  405ce4:	0320f809 	jalr	t9
  405ce8:	00000000 	nop
  405cec:	8fbc0010 	lw	gp,16(sp)
  405cf0:	02402021 	move	a0,s2
  405cf4:	02202821 	move	a1,s1
  405cf8:	27a60018 	addiu	a2,sp,24
  405cfc:	8f990394 	lw	t9,916(gp)
  405d00:	00000000 	nop
  405d04:	0320f809 	jalr	t9
  405d08:	00000000 	nop
  405d0c:	8fbc0010 	lw	gp,16(sp)
  405d10:	1440ffdb 	bnez	v0,405c80 <tcsetattr+0x70>
  405d14:	00402021 	move	a0,v0
  405d18:	2402540e 	li	v0,21518
  405d1c:	1622ffd8 	bne	s1,v0,405c80 <tcsetattr+0x70>
  405d20:	00000000 	nop
  405d24:	8f9900a8 	lw	t9,168(gp)
  405d28:	00000000 	nop
  405d2c:	0320f809 	jalr	t9
  405d30:	00000000 	nop
  405d34:	8fbc0010 	lw	gp,16(sp)
  405d38:	02402021 	move	a0,s2
  405d3c:	2405540d 	li	a1,21517
  405d40:	27a60018 	addiu	a2,sp,24
  405d44:	00408821 	move	s1,v0
  405d48:	8c520000 	lw	s2,0(v0)
  405d4c:	8f990394 	lw	t9,916(gp)
  405d50:	00000000 	nop
  405d54:	0320f809 	jalr	t9
  405d58:	00000000 	nop
  405d5c:	8fbc0010 	lw	gp,16(sp)
  405d60:	10400004 	beqz	v0,405d74 <tcsetattr+0x164>
  405d64:	00402021 	move	a0,v0
  405d68:	00002021 	move	a0,zero
  405d6c:	1000ffc4 	b	405c80 <tcsetattr+0x70>
  405d70:	ae320000 	sw	s2,0(s1)
  405d74:	8e050008 	lw	a1,8(s0)
  405d78:	8fa70020 	lw	a3,32(sp)
  405d7c:	30a30180 	andi	v1,a1,0x180
  405d80:	30e20180 	andi	v0,a3,0x180
  405d84:	10620005 	beq	v1,v0,405d9c <tcsetattr+0x18c>
  405d88:	30a30030 	andi	v1,a1,0x30
  405d8c:	24020016 	li	v0,22
  405d90:	ae220000 	sw	v0,0(s1)
  405d94:	1000ffba 	b	405c80 <tcsetattr+0x70>
  405d98:	2404ffff 	li	a0,-1
  405d9c:	1060ffb8 	beqz	v1,405c80 <tcsetattr+0x70>
  405da0:	30e20030 	andi	v0,a3,0x30
  405da4:	1462fffa 	bne	v1,v0,405d90 <tcsetattr+0x180>
  405da8:	24020016 	li	v0,22
  405dac:	1000ffb4 	b	405c80 <tcsetattr+0x70>
  405db0:	00000000 	nop
  405db4:	14a2ffaa 	bne	a1,v0,405c60 <tcsetattr+0x50>
  405db8:	24115410 	li	s1,21520
  405dbc:	1000ffb7 	b	405c9c <tcsetattr+0x8c>
  405dc0:	00000000 	nop
  405dc4:	1000ffb5 	b	405c9c <tcsetattr+0x8c>
  405dc8:	2411540f 	li	s1,21519
  405dcc:	00000000 	nop

00405dd0 <inet_ntoa_r>:
inet_ntoa_r():
  405dd0:	3c1c0000 	lui	gp,0x0
  405dd4:	279c6d70 	addiu	gp,gp,28016
  405dd8:	0399e021 	addu	gp,gp,t9
  405ddc:	27bdffc0 	addiu	sp,sp,-64
  405de0:	afbc0018 	sw	gp,24(sp)
  405de4:	afb40030 	sw	s4,48(sp)
  405de8:	afb3002c 	sw	s3,44(sp)
  405dec:	afb20028 	sw	s2,40(sp)
  405df0:	afb10024 	sw	s1,36(sp)
  405df4:	afb00020 	sw	s0,32(sp)
  405df8:	afbf0038 	sw	ra,56(sp)
  405dfc:	00808021 	move	s0,a0
  405e00:	afbc0034 	sw	gp,52(sp)
  405e04:	24a40003 	addiu	a0,a1,3
  405e08:	00009021 	move	s2,zero
  405e0c:	2413fff6 	li	s3,-10
  405e10:	2414002e 	li	s4,46
  405e14:	24110003 	li	s1,3
  405e18:	320600ff 	andi	a2,s0,0xff
  405e1c:	00c03821 	move	a3,a2
  405e20:	00003021 	move	a2,zero
  405e24:	afb30010 	sw	s3,16(sp)
  405e28:	afa00014 	sw	zero,20(sp)
  405e2c:	8f990358 	lw	t9,856(gp)
  405e30:	00000000 	nop
  405e34:	0320f809 	jalr	t9
  405e38:	00000000 	nop
  405e3c:	8fbc0018 	lw	gp,24(sp)
  405e40:	2631ffff 	addiu	s1,s1,-1
  405e44:	2444ffff 	addiu	a0,v0,-1
  405e48:	12400002 	beqz	s2,405e54 <inet_ntoa_r+0x84>
  405e4c:	00108202 	srl	s0,s0,0x8
  405e50:	a2540000 	sb	s4,0(s2)
  405e54:	0621fff0 	bgez	s1,405e18 <inet_ntoa_r+0x48>
  405e58:	00809021 	move	s2,a0
  405e5c:	8fbf0038 	lw	ra,56(sp)
  405e60:	8fb40030 	lw	s4,48(sp)
  405e64:	8fb3002c 	lw	s3,44(sp)
  405e68:	8fb20028 	lw	s2,40(sp)
  405e6c:	8fb10024 	lw	s1,36(sp)
  405e70:	8fb00020 	lw	s0,32(sp)
  405e74:	03e00008 	jr	ra
  405e78:	27bd0040 	addiu	sp,sp,64

00405e7c <inet_ntoa>:
inet_ntoa():
  405e7c:	3c1c0000 	lui	gp,0x0
  405e80:	279c6cc4 	addiu	gp,gp,27844
  405e84:	0399e021 	addu	gp,gp,t9
  405e88:	27bdffe0 	addiu	sp,sp,-32
  405e8c:	afbc0010 	sw	gp,16(sp)
  405e90:	8f850008 	lw	a1,8(gp)
  405e94:	00000000 	nop
  405e98:	24a5e9f0 	addiu	a1,a1,-5648
  405e9c:	afbf001c 	sw	ra,28(sp)
  405ea0:	afbc0018 	sw	gp,24(sp)
  405ea4:	8f9900d0 	lw	t9,208(gp)
  405ea8:	00000000 	nop
  405eac:	0320f809 	jalr	t9
  405eb0:	00000000 	nop
  405eb4:	8fbc0010 	lw	gp,16(sp)
  405eb8:	8fbf001c 	lw	ra,28(sp)
  405ebc:	00000000 	nop
  405ec0:	03e00008 	jr	ra
  405ec4:	27bd0020 	addiu	sp,sp,32
	...

00405ed0 <getpeername>:
getpeername():
  405ed0:	3c1c0000 	lui	gp,0x0
  405ed4:	279c6c70 	addiu	gp,gp,27760
  405ed8:	0399e021 	addu	gp,gp,t9
  405edc:	27bdffd0 	addiu	sp,sp,-48
  405ee0:	afbc0010 	sw	gp,16(sp)
  405ee4:	afb1001c 	sw	s1,28(sp)
  405ee8:	afb00018 	sw	s0,24(sp)
  405eec:	afbf0028 	sw	ra,40(sp)
  405ef0:	afbc0024 	sw	gp,36(sp)
  405ef4:	afb20020 	sw	s2,32(sp)
  405ef8:	00808821 	move	s1,a0
  405efc:	00a08021 	move	s0,a1
  405f00:	00c01821 	move	v1,a2
  405f04:	02202021 	move	a0,s1
  405f08:	02002821 	move	a1,s0
  405f0c:	00603021 	move	a2,v1
  405f10:	2402104b 	li	v0,4171
  405f14:	0000000c 	syscall
  405f18:	00408021 	move	s0,v0
  405f1c:	00e09021 	move	s2,a3
  405f20:	12400008 	beqz	s2,405f44 <getpeername+0x74>
  405f24:	02001021 	move	v0,s0
  405f28:	8f9900a8 	lw	t9,168(gp)
  405f2c:	00000000 	nop
  405f30:	0320f809 	jalr	t9
  405f34:	00000000 	nop
  405f38:	8fbc0010 	lw	gp,16(sp)
  405f3c:	ac500000 	sw	s0,0(v0)
  405f40:	2402ffff 	li	v0,-1
  405f44:	8fbf0028 	lw	ra,40(sp)
  405f48:	8fb20020 	lw	s2,32(sp)
  405f4c:	8fb1001c 	lw	s1,28(sp)
  405f50:	8fb00018 	lw	s0,24(sp)
  405f54:	03e00008 	jr	ra
  405f58:	27bd0030 	addiu	sp,sp,48
  405f5c:	00000000 	nop

00405f60 <__libc_send>:
__libc_send():
  405f60:	3c1c0000 	lui	gp,0x0
  405f64:	279c6be0 	addiu	gp,gp,27616
  405f68:	0399e021 	addu	gp,gp,t9
  405f6c:	27bdffd0 	addiu	sp,sp,-48
  405f70:	afbc0010 	sw	gp,16(sp)
  405f74:	afb20020 	sw	s2,32(sp)
  405f78:	afb1001c 	sw	s1,28(sp)
  405f7c:	afb00018 	sw	s0,24(sp)
  405f80:	afbf002c 	sw	ra,44(sp)
  405f84:	afbc0028 	sw	gp,40(sp)
  405f88:	afb30024 	sw	s3,36(sp)
  405f8c:	00809021 	move	s2,a0
  405f90:	00a08821 	move	s1,a1
  405f94:	00c08021 	move	s0,a2
  405f98:	00e01821 	move	v1,a3
  405f9c:	02402021 	move	a0,s2
  405fa0:	02202821 	move	a1,s1
  405fa4:	02003021 	move	a2,s0
  405fa8:	00603821 	move	a3,v1
  405fac:	24021052 	li	v0,4178
  405fb0:	0000000c 	syscall
  405fb4:	00408021 	move	s0,v0
  405fb8:	00e09821 	move	s3,a3
  405fbc:	12600008 	beqz	s3,405fe0 <__libc_send+0x80>
  405fc0:	02001021 	move	v0,s0
  405fc4:	8f9900a8 	lw	t9,168(gp)
  405fc8:	00000000 	nop
  405fcc:	0320f809 	jalr	t9
  405fd0:	00000000 	nop
  405fd4:	8fbc0010 	lw	gp,16(sp)
  405fd8:	ac500000 	sw	s0,0(v0)
  405fdc:	2402ffff 	li	v0,-1
  405fe0:	8fbf002c 	lw	ra,44(sp)
  405fe4:	8fb30024 	lw	s3,36(sp)
  405fe8:	8fb20020 	lw	s2,32(sp)
  405fec:	8fb1001c 	lw	s1,28(sp)
  405ff0:	8fb00018 	lw	s0,24(sp)
  405ff4:	03e00008 	jr	ra
  405ff8:	27bd0030 	addiu	sp,sp,48
  405ffc:	00000000 	nop

00406000 <setsockopt>:
setsockopt():
  406000:	3c1c0000 	lui	gp,0x0
  406004:	279c6b40 	addiu	gp,gp,27456
  406008:	0399e021 	addu	gp,gp,t9
  40600c:	27bdffc8 	addiu	sp,sp,-56
  406010:	afbc0010 	sw	gp,16(sp)
  406014:	8fa20048 	lw	v0,72(sp)
  406018:	afb20028 	sw	s2,40(sp)
  40601c:	afb10024 	sw	s1,36(sp)
  406020:	afb00020 	sw	s0,32(sp)
  406024:	afbf0034 	sw	ra,52(sp)
  406028:	afbc0030 	sw	gp,48(sp)
  40602c:	afb3002c 	sw	s3,44(sp)
  406030:	00809021 	move	s2,a0
  406034:	afa20018 	sw	v0,24(sp)
  406038:	00a08821 	move	s1,a1
  40603c:	00c08021 	move	s0,a2
  406040:	00e01821 	move	v1,a3
  406044:	02402021 	move	a0,s2
  406048:	02202821 	move	a1,s1
  40604c:	02003021 	move	a2,s0
  406050:	8fa20018 	lw	v0,24(sp)
  406054:	00603821 	move	a3,v1
  406058:	27bdffe8 	addiu	sp,sp,-24
  40605c:	afa20010 	sw	v0,16(sp)
  406060:	24021055 	li	v0,4181
  406064:	0000000c 	syscall
  406068:	00408021 	move	s0,v0
  40606c:	00e09821 	move	s3,a3
  406070:	27bd0018 	addiu	sp,sp,24
  406074:	12600008 	beqz	s3,406098 <setsockopt+0x98>
  406078:	02001021 	move	v0,s0
  40607c:	8f9900a8 	lw	t9,168(gp)
  406080:	00000000 	nop
  406084:	0320f809 	jalr	t9
  406088:	00000000 	nop
  40608c:	8fbc0010 	lw	gp,16(sp)
  406090:	ac500000 	sw	s0,0(v0)
  406094:	2402ffff 	li	v0,-1
  406098:	8fbf0034 	lw	ra,52(sp)
  40609c:	8fb3002c 	lw	s3,44(sp)
  4060a0:	8fb20028 	lw	s2,40(sp)
  4060a4:	8fb10024 	lw	s1,36(sp)
  4060a8:	8fb00020 	lw	s0,32(sp)
  4060ac:	03e00008 	jr	ra
  4060b0:	27bd0038 	addiu	sp,sp,56
	...

004060c0 <shutdown>:
shutdown():
  4060c0:	3c1c0000 	lui	gp,0x0
  4060c4:	279c6a80 	addiu	gp,gp,27264
  4060c8:	0399e021 	addu	gp,gp,t9
  4060cc:	27bdffd8 	addiu	sp,sp,-40
  4060d0:	afbc0010 	sw	gp,16(sp)
  4060d4:	afbf0024 	sw	ra,36(sp)
  4060d8:	afbc0020 	sw	gp,32(sp)
  4060dc:	afb1001c 	sw	s1,28(sp)
  4060e0:	afb00018 	sw	s0,24(sp)
  4060e4:	00801821 	move	v1,a0
  4060e8:	00a03021 	move	a2,a1
  4060ec:	00602021 	move	a0,v1
  4060f0:	00c02821 	move	a1,a2
  4060f4:	24021056 	li	v0,4182
  4060f8:	0000000c 	syscall
  4060fc:	00408821 	move	s1,v0
  406100:	00e08021 	move	s0,a3
  406104:	12000008 	beqz	s0,406128 <shutdown+0x68>
  406108:	02201021 	move	v0,s1
  40610c:	8f9900a8 	lw	t9,168(gp)
  406110:	00000000 	nop
  406114:	0320f809 	jalr	t9
  406118:	00000000 	nop
  40611c:	8fbc0010 	lw	gp,16(sp)
  406120:	ac510000 	sw	s1,0(v0)
  406124:	2402ffff 	li	v0,-1
  406128:	8fbf0024 	lw	ra,36(sp)
  40612c:	8fb1001c 	lw	s1,28(sp)
  406130:	8fb00018 	lw	s0,24(sp)
  406134:	03e00008 	jr	ra
  406138:	27bd0028 	addiu	sp,sp,40
  40613c:	00000000 	nop

00406140 <bsd_signal>:
signal():
  406140:	3c1c0000 	lui	gp,0x0
  406144:	279c6a00 	addiu	gp,gp,27136
  406148:	0399e021 	addu	gp,gp,t9
  40614c:	27bdfeb8 	addiu	sp,sp,-328
  406150:	afbc0010 	sw	gp,16(sp)
  406154:	2402ffff 	li	v0,-1
  406158:	afb00138 	sw	s0,312(sp)
  40615c:	afbf0140 	sw	ra,320(sp)
  406160:	afbc013c 	sw	gp,316(sp)
  406164:	10a20005 	beq	a1,v0,40617c <bsd_signal+0x3c>
  406168:	00808021 	move	s0,a0
  40616c:	18800003 	blez	a0,40617c <bsd_signal+0x3c>
  406170:	28820080 	slti	v0,a0,128
  406174:	1440000e 	bnez	v0,4061b0 <bsd_signal+0x70>
  406178:	2403001f 	li	v1,31
  40617c:	8f9900a8 	lw	t9,168(gp)
  406180:	00000000 	nop
  406184:	0320f809 	jalr	t9
  406188:	00000000 	nop
  40618c:	8fbc0010 	lw	gp,16(sp)
  406190:	24030016 	li	v1,22
  406194:	2404ffff 	li	a0,-1
  406198:	ac430000 	sw	v1,0(v0)
  40619c:	8fbf0140 	lw	ra,320(sp)
  4061a0:	8fb00138 	lw	s0,312(sp)
  4061a4:	00801021 	move	v0,a0
  4061a8:	03e00008 	jr	ra
  4061ac:	27bd0148 	addiu	sp,sp,328
  4061b0:	afa5001c 	sw	a1,28(sp)
  4061b4:	27a2009c 	addiu	v0,sp,156
  4061b8:	2463ffff 	addiu	v1,v1,-1
  4061bc:	ac400000 	sw	zero,0(v0)
  4061c0:	0461fffd 	bgez	v1,4061b8 <bsd_signal+0x78>
  4061c4:	2442fffc 	addiu	v0,v0,-4
  4061c8:	27a40020 	addiu	a0,sp,32
  4061cc:	02002821 	move	a1,s0
  4061d0:	8f99025c 	lw	t9,604(gp)
  4061d4:	00000000 	nop
  4061d8:	0320f809 	jalr	t9
  4061dc:	00000000 	nop
  4061e0:	8fbc0010 	lw	gp,16(sp)
  4061e4:	0440ffed 	bltz	v0,40619c <bsd_signal+0x5c>
  4061e8:	2404ffff 	li	a0,-1
  4061ec:	8f8400c4 	lw	a0,196(gp)
  4061f0:	02002821 	move	a1,s0
  4061f4:	8f990180 	lw	t9,384(gp)
  4061f8:	00000000 	nop
  4061fc:	0320f809 	jalr	t9
  406200:	00000000 	nop
  406204:	8fbc0010 	lw	gp,16(sp)
  406208:	2c420001 	sltiu	v0,v0,1
  40620c:	02002021 	move	a0,s0
  406210:	00021700 	sll	v0,v0,0x1c
  406214:	27a600a8 	addiu	a2,sp,168
  406218:	27a50018 	addiu	a1,sp,24
  40621c:	afa20018 	sw	v0,24(sp)
  406220:	8f99019c 	lw	t9,412(gp)
  406224:	00000000 	nop
  406228:	0320f809 	jalr	t9
  40622c:	00000000 	nop
  406230:	8fbc0010 	lw	gp,16(sp)
  406234:	0440ffd9 	bltz	v0,40619c <bsd_signal+0x5c>
  406238:	2404ffff 	li	a0,-1
  40623c:	8fa400ac 	lw	a0,172(sp)
  406240:	1000ffd6 	b	40619c <bsd_signal+0x5c>
  406244:	00000000 	nop
	...

00406250 <__sigismember>:
__sigismember():
  406250:	3c1c0000 	lui	gp,0x0
  406254:	279c68f0 	addiu	gp,gp,26864
  406258:	0399e021 	addu	gp,gp,t9
  40625c:	24a5ffff 	addiu	a1,a1,-1
  406260:	00051942 	srl	v1,a1,0x5
  406264:	00031880 	sll	v1,v1,0x2
  406268:	00641821 	addu	v1,v1,a0
  40626c:	8c620000 	lw	v0,0(v1)
  406270:	30a5001f 	andi	a1,a1,0x1f
  406274:	24030001 	li	v1,1
  406278:	00a31804 	sllv	v1,v1,a1
  40627c:	00431024 	and	v0,v0,v1
  406280:	03e00008 	jr	ra
  406284:	0002102b 	sltu	v0,zero,v0

00406288 <__sigaddset>:
__sigaddset():
  406288:	3c1c0000 	lui	gp,0x0
  40628c:	279c68b8 	addiu	gp,gp,26808
  406290:	0399e021 	addu	gp,gp,t9
  406294:	24a5ffff 	addiu	a1,a1,-1
  406298:	00053142 	srl	a2,a1,0x5
  40629c:	00063080 	sll	a2,a2,0x2
  4062a0:	00c43021 	addu	a2,a2,a0
  4062a4:	8cc30000 	lw	v1,0(a2)
  4062a8:	30a5001f 	andi	a1,a1,0x1f
  4062ac:	24020001 	li	v0,1
  4062b0:	00a21004 	sllv	v0,v0,a1
  4062b4:	00621825 	or	v1,v1,v0
  4062b8:	acc30000 	sw	v1,0(a2)
  4062bc:	03e00008 	jr	ra
  4062c0:	00001021 	move	v0,zero

004062c4 <__sigdelset>:
__sigdelset():
  4062c4:	3c1c0000 	lui	gp,0x0
  4062c8:	279c687c 	addiu	gp,gp,26748
  4062cc:	0399e021 	addu	gp,gp,t9
  4062d0:	24a5ffff 	addiu	a1,a1,-1
  4062d4:	00053142 	srl	a2,a1,0x5
  4062d8:	00063080 	sll	a2,a2,0x2
  4062dc:	00c43021 	addu	a2,a2,a0
  4062e0:	30a5001f 	andi	a1,a1,0x1f
  4062e4:	24020001 	li	v0,1
  4062e8:	8cc30000 	lw	v1,0(a2)
  4062ec:	00a21004 	sllv	v0,v0,a1
  4062f0:	00021027 	nor	v0,zero,v0
  4062f4:	00621824 	and	v1,v1,v0
  4062f8:	acc30000 	sw	v1,0(a2)
  4062fc:	03e00008 	jr	ra
  406300:	00001021 	move	v0,zero
	...

00406310 <atoi>:
atoi():
  406310:	3c1c0000 	lui	gp,0x0
  406314:	279c6830 	addiu	gp,gp,26672
  406318:	0399e021 	addu	gp,gp,t9
  40631c:	27bdffe0 	addiu	sp,sp,-32
  406320:	afbc0010 	sw	gp,16(sp)
  406324:	00002821 	move	a1,zero
  406328:	2406000a 	li	a2,10
  40632c:	afbf001c 	sw	ra,28(sp)
  406330:	afbc0018 	sw	gp,24(sp)
  406334:	8f990268 	lw	t9,616(gp)
  406338:	00000000 	nop
  40633c:	0320f809 	jalr	t9
  406340:	00000000 	nop
  406344:	8fbc0010 	lw	gp,16(sp)
  406348:	8fbf001c 	lw	ra,28(sp)
  40634c:	00000000 	nop
  406350:	03e00008 	jr	ra
  406354:	27bd0020 	addiu	sp,sp,32
	...

00406360 <strtol>:
strtol():
  406360:	3c1c0000 	lui	gp,0x0
  406364:	279c67e0 	addiu	gp,gp,26592
  406368:	0399e021 	addu	gp,gp,t9
  40636c:	27bdffe0 	addiu	sp,sp,-32
  406370:	afbc0010 	sw	gp,16(sp)
  406374:	24070001 	li	a3,1
  406378:	afbf001c 	sw	ra,28(sp)
  40637c:	afbc0018 	sw	gp,24(sp)
  406380:	8f9900a4 	lw	t9,164(gp)
  406384:	00000000 	nop
  406388:	0320f809 	jalr	t9
  40638c:	00000000 	nop
  406390:	8fbc0010 	lw	gp,16(sp)
  406394:	8fbf001c 	lw	ra,28(sp)
  406398:	00000000 	nop
  40639c:	03e00008 	jr	ra
  4063a0:	27bd0020 	addiu	sp,sp,32
	...

004063b0 <_stdlib_strto_l>:
_stdlib_strto_l():
  4063b0:	3c1c0000 	lui	gp,0x0
  4063b4:	279c6790 	addiu	gp,gp,26512
  4063b8:	0399e021 	addu	gp,gp,t9
  4063bc:	27bdffb8 	addiu	sp,sp,-72
  4063c0:	afbc0010 	sw	gp,16(sp)
  4063c4:	afbe003c 	sw	s8,60(sp)
  4063c8:	afb70034 	sw	s7,52(sp)
  4063cc:	afb30024 	sw	s3,36(sp)
  4063d0:	afb1001c 	sw	s1,28(sp)
  4063d4:	afb00018 	sw	s0,24(sp)
  4063d8:	00a0f021 	move	s8,a1
  4063dc:	00808021 	move	s0,a0
  4063e0:	00c08821 	move	s1,a2
  4063e4:	00e0b821 	move	s7,a3
  4063e8:	00809821 	move	s3,a0
  4063ec:	afbf0040 	sw	ra,64(sp)
  4063f0:	afbc0038 	sw	gp,56(sp)
  4063f4:	afb60030 	sw	s6,48(sp)
  4063f8:	afb5002c 	sw	s5,44(sp)
  4063fc:	afb40028 	sw	s4,40(sp)
  406400:	afb20020 	sw	s2,32(sp)
  406404:	82040000 	lb	a0,0(s0)
  406408:	8f9902bc 	lw	t9,700(gp)
  40640c:	00000000 	nop
  406410:	0320f809 	jalr	t9
  406414:	00000000 	nop
  406418:	8fbc0010 	lw	gp,16(sp)
  40641c:	10400003 	beqz	v0,40642c <_stdlib_strto_l+0x7c>
  406420:	2402002b 	li	v0,43
  406424:	1000fff7 	b	406404 <_stdlib_strto_l+0x54>
  406428:	26100001 	addiu	s0,s0,1
  40642c:	82030000 	lb	v1,0(s0)
  406430:	00000000 	nop
  406434:	10620071 	beq	v1,v0,4065fc <_stdlib_strto_l+0x24c>
  406438:	0000b021 	move	s6,zero
  40643c:	2402002d 	li	v0,45
  406440:	1062006d 	beq	v1,v0,4065f8 <_stdlib_strto_l+0x248>
  406444:	00000000 	nop
  406448:	2402ffef 	li	v0,-17
  40644c:	02221024 	and	v0,s1,v0
  406450:	1440000a 	bnez	v0,40647c <_stdlib_strto_l+0xcc>
  406454:	2622fffe 	addiu	v0,s1,-2
  406458:	82030000 	lb	v1,0(s0)
  40645c:	24020030 	li	v0,48
  406460:	10620059 	beq	v1,v0,4065c8 <_stdlib_strto_l+0x218>
  406464:	2631000a 	addiu	s1,s1,10
  406468:	2a220011 	slti	v0,s1,17
  40646c:	14400003 	bnez	v0,40647c <_stdlib_strto_l+0xcc>
  406470:	2622fffe 	addiu	v0,s1,-2
  406474:	24110010 	li	s1,16
  406478:	2622fffe 	addiu	v0,s1,-2
  40647c:	2c420023 	sltiu	v0,v0,35
  406480:	10400030 	beqz	v0,406544 <_stdlib_strto_l+0x194>
  406484:	00009021 	move	s2,zero
  406488:	2402ffff 	li	v0,-1
  40648c:	0051001b 	divu	zero,v0,s1
  406490:	16200002 	bnez	s1,40649c <_stdlib_strto_l+0xec>
  406494:	00000000 	nop
  406498:	0007000d 	break	0x7
  40649c:	00001810 	mfhi	v1
  4064a0:	307500ff 	andi	s5,v1,0xff
  4064a4:	0000a012 	mflo	s4
  4064a8:	92050000 	lbu	a1,0(s0)
  4064ac:	00000000 	nop
  4064b0:	24a2ffd0 	addiu	v0,a1,-48
  4064b4:	304200ff 	andi	v0,v0,0xff
  4064b8:	2c43000a 	sltiu	v1,v0,10
  4064bc:	14600009 	bnez	v1,4064e4 <_stdlib_strto_l+0x134>
  4064c0:	00402021 	move	a0,v0
  4064c4:	00051600 	sll	v0,a1,0x18
  4064c8:	00021603 	sra	v0,v0,0x18
  4064cc:	28420041 	slti	v0,v0,65
  4064d0:	14400004 	bnez	v0,4064e4 <_stdlib_strto_l+0x134>
  4064d4:	24040028 	li	a0,40
  4064d8:	34a20020 	ori	v0,a1,0x20
  4064dc:	2442ffa9 	addiu	v0,v0,-87
  4064e0:	304400ff 	andi	a0,v0,0xff
  4064e4:	0091102a 	slt	v0,a0,s1
  4064e8:	10400016 	beqz	v0,406544 <_stdlib_strto_l+0x194>
  4064ec:	0292102b 	sltu	v0,s4,s2
  4064f0:	26130001 	addiu	s3,s0,1
  4064f4:	14400009 	bnez	v0,40651c <_stdlib_strto_l+0x16c>
  4064f8:	02608021 	move	s0,s3
  4064fc:	16540003 	bne	s2,s4,40650c <_stdlib_strto_l+0x15c>
  406500:	02a4102b 	sltu	v0,s5,a0
  406504:	14400005 	bnez	v0,40651c <_stdlib_strto_l+0x16c>
  406508:	00000000 	nop
  40650c:	02510018 	mult	s2,s1
  406510:	00001012 	mflo	v0
  406514:	1000ffe4 	b	4064a8 <_stdlib_strto_l+0xf8>
  406518:	00449021 	addu	s2,v0,a0
  40651c:	8f9900a8 	lw	t9,168(gp)
  406520:	00000000 	nop
  406524:	0320f809 	jalr	t9
  406528:	00000000 	nop
  40652c:	8fbc0010 	lw	gp,16(sp)
  406530:	2412ffff 	li	s2,-1
  406534:	24030022 	li	v1,34
  406538:	02d7b024 	and	s6,s6,s7
  40653c:	1000ffda 	b	4064a8 <_stdlib_strto_l+0xf8>
  406540:	ac430000 	sw	v1,0(v0)
  406544:	13c00002 	beqz	s8,406550 <_stdlib_strto_l+0x1a0>
  406548:	00000000 	nop
  40654c:	afd30000 	sw	s3,0(s8)
  406550:	2ec30001 	sltiu	v1,s6,1
  406554:	3c028000 	lui	v0,0x8000
  406558:	12e0000c 	beqz	s7,40658c <_stdlib_strto_l+0x1dc>
  40655c:	00431823 	subu	v1,v0,v1
  406560:	0072102b 	sltu	v0,v1,s2
  406564:	10400009 	beqz	v0,40658c <_stdlib_strto_l+0x1dc>
  406568:	00000000 	nop
  40656c:	00609021 	move	s2,v1
  406570:	8f9900a8 	lw	t9,168(gp)
  406574:	00000000 	nop
  406578:	0320f809 	jalr	t9
  40657c:	00000000 	nop
  406580:	8fbc0010 	lw	gp,16(sp)
  406584:	24030022 	li	v1,34
  406588:	ac430000 	sw	v1,0(v0)
  40658c:	16c00002 	bnez	s6,406598 <_stdlib_strto_l+0x1e8>
  406590:	00121023 	negu	v0,s2
  406594:	02401021 	move	v0,s2
  406598:	8fbf0040 	lw	ra,64(sp)
  40659c:	8fbe003c 	lw	s8,60(sp)
  4065a0:	8fb70034 	lw	s7,52(sp)
  4065a4:	8fb60030 	lw	s6,48(sp)
  4065a8:	8fb5002c 	lw	s5,44(sp)
  4065ac:	8fb40028 	lw	s4,40(sp)
  4065b0:	8fb30024 	lw	s3,36(sp)
  4065b4:	8fb20020 	lw	s2,32(sp)
  4065b8:	8fb1001c 	lw	s1,28(sp)
  4065bc:	8fb00018 	lw	s0,24(sp)
  4065c0:	03e00008 	jr	ra
  4065c4:	27bd0048 	addiu	sp,sp,72
  4065c8:	26130001 	addiu	s3,s0,1
  4065cc:	92620000 	lbu	v0,0(s3)
  4065d0:	24030078 	li	v1,120
  4065d4:	34420020 	ori	v0,v0,0x20
  4065d8:	00021600 	sll	v0,v0,0x18
  4065dc:	00021603 	sra	v0,v0,0x18
  4065e0:	02608021 	move	s0,s3
  4065e4:	1443ffa0 	bne	v0,v1,406468 <_stdlib_strto_l+0xb8>
  4065e8:	2631fffe 	addiu	s1,s1,-2
  4065ec:	26700001 	addiu	s0,s3,1
  4065f0:	1000ff9d 	b	406468 <_stdlib_strto_l+0xb8>
  4065f4:	00118840 	sll	s1,s1,0x1
  4065f8:	24160001 	li	s6,1
  4065fc:	1000ff92 	b	406448 <_stdlib_strto_l+0x98>
  406600:	26100001 	addiu	s0,s0,1
	...

00406610 <exit>:
exit():
  406610:	3c1c0000 	lui	gp,0x0
  406614:	279c6530 	addiu	gp,gp,25904
  406618:	0399e021 	addu	gp,gp,t9
  40661c:	27bdffd8 	addiu	sp,sp,-40
  406620:	afbc0010 	sw	gp,16(sp)
  406624:	afb00018 	sw	s0,24(sp)
  406628:	8f9001bc 	lw	s0,444(gp)
  40662c:	afb1001c 	sw	s1,28(sp)
  406630:	00808821 	move	s1,a0
  406634:	02002021 	move	a0,s0
  406638:	afbf0024 	sw	ra,36(sp)
  40663c:	afbc0020 	sw	gp,32(sp)
  406640:	8f9900b4 	lw	t9,180(gp)
  406644:	00000000 	nop
  406648:	0320f809 	jalr	t9
  40664c:	00000000 	nop
  406650:	8fbc0010 	lw	gp,16(sp)
  406654:	00000000 	nop
  406658:	8f82023c 	lw	v0,572(gp)
  40665c:	00000000 	nop
  406660:	8c420000 	lw	v0,0(v0)
  406664:	00000000 	nop
  406668:	10400007 	beqz	v0,406688 <exit+0x78>
  40666c:	02002021 	move	a0,s0
  406670:	02202021 	move	a0,s1
  406674:	0040c821 	move	t9,v0
  406678:	0320f809 	jalr	t9
  40667c:	00000000 	nop
  406680:	8fbc0010 	lw	gp,16(sp)
  406684:	02002021 	move	a0,s0
  406688:	8f990134 	lw	t9,308(gp)
  40668c:	00000000 	nop
  406690:	0320f809 	jalr	t9
  406694:	00000000 	nop
  406698:	8fbc0010 	lw	gp,16(sp)
  40669c:	00000000 	nop
  4066a0:	8f830104 	lw	v1,260(gp)
  4066a4:	00000000 	nop
  4066a8:	10600006 	beqz	v1,4066c4 <exit+0xb4>
  4066ac:	02202021 	move	a0,s1
  4066b0:	0060c821 	move	t9,v1
  4066b4:	0320f809 	jalr	t9
  4066b8:	00000000 	nop
  4066bc:	8fbc0010 	lw	gp,16(sp)
  4066c0:	02202021 	move	a0,s1
  4066c4:	8f990078 	lw	t9,120(gp)
  4066c8:	00000000 	nop
  4066cc:	0320f809 	jalr	t9
  4066d0:	00000000 	nop
  4066d4:	8fbc0010 	lw	gp,16(sp)
	...

004066e0 <__add_to_environ>:
__add_to_environ():
  4066e0:	3c1c0000 	lui	gp,0x0
  4066e4:	279c6460 	addiu	gp,gp,25696
  4066e8:	0399e021 	addu	gp,gp,t9
  4066ec:	27bdffb8 	addiu	sp,sp,-72
  4066f0:	afbc0010 	sw	gp,16(sp)
  4066f4:	afb70034 	sw	s7,52(sp)
  4066f8:	afb60030 	sw	s6,48(sp)
  4066fc:	afb5002c 	sw	s5,44(sp)
  406700:	afb30024 	sw	s3,36(sp)
  406704:	afbf0040 	sw	ra,64(sp)
  406708:	afbe003c 	sw	s8,60(sp)
  40670c:	afbc0038 	sw	gp,56(sp)
  406710:	afb40028 	sw	s4,40(sp)
  406714:	afb20020 	sw	s2,32(sp)
  406718:	afb1001c 	sw	s1,28(sp)
  40671c:	afb00018 	sw	s0,24(sp)
  406720:	afa70054 	sw	a3,84(sp)
  406724:	00a0b821 	move	s7,a1
  406728:	00c0b021 	move	s6,a2
  40672c:	0080a821 	move	s5,a0
  406730:	8f990070 	lw	t9,112(gp)
  406734:	00000000 	nop
  406738:	0320f809 	jalr	t9
  40673c:	00000000 	nop
  406740:	8fbc0010 	lw	gp,16(sp)
  406744:	12e000c8 	beqz	s7,406a68 <__add_to_environ+0x388>
  406748:	00409821 	move	s3,v0
  40674c:	02e02021 	move	a0,s7
  406750:	8f990070 	lw	t9,112(gp)
  406754:	00000000 	nop
  406758:	0320f809 	jalr	t9
  40675c:	00000000 	nop
  406760:	8fbc0010 	lw	gp,16(sp)
  406764:	245e0001 	addiu	s8,v0,1
  406768:	8f840008 	lw	a0,8(gp)
  40676c:	00000000 	nop
  406770:	2484e6c0 	addiu	a0,a0,-6464
  406774:	8f9900b4 	lw	t9,180(gp)
  406778:	00000000 	nop
  40677c:	0320f809 	jalr	t9
  406780:	00000000 	nop
  406784:	8fbc0010 	lw	gp,16(sp)
  406788:	00000000 	nop
  40678c:	8f91029c 	lw	s1,668(gp)
  406790:	00000000 	nop
  406794:	8e310000 	lw	s1,0(s1)
  406798:	00000000 	nop
  40679c:	12200019 	beqz	s1,406804 <__add_to_environ+0x124>
  4067a0:	00009021 	move	s2,zero
  4067a4:	8e300000 	lw	s0,0(s1)
  4067a8:	00000000 	nop
  4067ac:	12000015 	beqz	s0,406804 <__add_to_environ+0x124>
  4067b0:	00000000 	nop
  4067b4:	2414003d 	li	s4,61
  4067b8:	8e240000 	lw	a0,0(s1)
  4067bc:	02a02821 	move	a1,s5
  4067c0:	02603021 	move	a2,s3
  4067c4:	8f9901d4 	lw	t9,468(gp)
  4067c8:	00000000 	nop
  4067cc:	0320f809 	jalr	t9
  4067d0:	00000000 	nop
  4067d4:	8fbc0010 	lw	gp,16(sp)
  4067d8:	14400005 	bnez	v0,4067f0 <__add_to_environ+0x110>
  4067dc:	02131821 	addu	v1,s0,s3
  4067e0:	80620000 	lb	v0,0(v1)
  4067e4:	00000000 	nop
  4067e8:	10540077 	beq	v0,s4,4069c8 <__add_to_environ+0x2e8>
  4067ec:	00000000 	nop
  4067f0:	26310004 	addiu	s1,s1,4
  4067f4:	8e300000 	lw	s0,0(s1)
  4067f8:	00000000 	nop
  4067fc:	1600ffee 	bnez	s0,4067b8 <__add_to_environ+0xd8>
  406800:	26520001 	addiu	s2,s2,1
  406804:	00128880 	sll	s1,s2,0x2
  406808:	8f840008 	lw	a0,8(gp)
  40680c:	00000000 	nop
  406810:	2484ea00 	addiu	a0,a0,-5632
  406814:	8c840000 	lw	a0,0(a0)
  406818:	26250008 	addiu	a1,s1,8
  40681c:	8f9901c4 	lw	t9,452(gp)
  406820:	00000000 	nop
  406824:	0320f809 	jalr	t9
  406828:	00000000 	nop
  40682c:	8fbc0010 	lw	gp,16(sp)
  406830:	1040005b 	beqz	v0,4069a0 <__add_to_environ+0x2c0>
  406834:	00408021 	move	s0,v0
  406838:	12c00030 	beqz	s6,4068fc <__add_to_environ+0x21c>
  40683c:	02221021 	addu	v0,s1,v0
  406840:	ac560000 	sw	s6,0(v0)
  406844:	8f85029c 	lw	a1,668(gp)
  406848:	00000000 	nop
  40684c:	8ca50000 	lw	a1,0(a1)
  406850:	8f820008 	lw	v0,8(gp)
  406854:	00000000 	nop
  406858:	2442ea00 	addiu	v0,v0,-5632
  40685c:	8c420000 	lw	v0,0(v0)
  406860:	00000000 	nop
  406864:	10a20007 	beq	a1,v0,406884 <__add_to_environ+0x1a4>
  406868:	02002021 	move	a0,s0
  40686c:	02203021 	move	a2,s1
  406870:	8f990320 	lw	t9,800(gp)
  406874:	00000000 	nop
  406878:	0320f809 	jalr	t9
  40687c:	00000000 	nop
  406880:	8fbc0010 	lw	gp,16(sp)
  406884:	02301021 	addu	v0,s1,s0
  406888:	ac400004 	sw	zero,4(v0)
  40688c:	8f810008 	lw	at,8(gp)
  406890:	00000000 	nop
  406894:	2421ea00 	addiu	at,at,-5632
  406898:	ac300000 	sw	s0,0(at)
  40689c:	8f81029c 	lw	at,668(gp)
  4068a0:	00000000 	nop
  4068a4:	ac300000 	sw	s0,0(at)
  4068a8:	8f840008 	lw	a0,8(gp)
  4068ac:	00000000 	nop
  4068b0:	2484e6c0 	addiu	a0,a0,-6464
  4068b4:	8f990134 	lw	t9,308(gp)
  4068b8:	00000000 	nop
  4068bc:	0320f809 	jalr	t9
  4068c0:	00000000 	nop
  4068c4:	8fbc0010 	lw	gp,16(sp)
  4068c8:	00001021 	move	v0,zero
  4068cc:	8fbf0040 	lw	ra,64(sp)
  4068d0:	8fbe003c 	lw	s8,60(sp)
  4068d4:	8fb70034 	lw	s7,52(sp)
  4068d8:	8fb60030 	lw	s6,48(sp)
  4068dc:	8fb5002c 	lw	s5,44(sp)
  4068e0:	8fb40028 	lw	s4,40(sp)
  4068e4:	8fb30024 	lw	s3,36(sp)
  4068e8:	8fb20020 	lw	s2,32(sp)
  4068ec:	8fb1001c 	lw	s1,28(sp)
  4068f0:	8fb00018 	lw	s0,24(sp)
  4068f4:	03e00008 	jr	ra
  4068f8:	27bd0048 	addiu	sp,sp,72
  4068fc:	027e2021 	addu	a0,s3,s8
  406900:	24840001 	addiu	a0,a0,1
  406904:	8f9902f4 	lw	t9,756(gp)
  406908:	00000000 	nop
  40690c:	0320f809 	jalr	t9
  406910:	00000000 	nop
  406914:	8fbc0010 	lw	gp,16(sp)
  406918:	02309021 	addu	s2,s1,s0
  40691c:	10400019 	beqz	v0,406984 <__add_to_environ+0x2a4>
  406920:	ae420000 	sw	v0,0(s2)
  406924:	00402021 	move	a0,v0
  406928:	02a02821 	move	a1,s5
  40692c:	02603021 	move	a2,s3
  406930:	8f990320 	lw	t9,800(gp)
  406934:	00000000 	nop
  406938:	0320f809 	jalr	t9
  40693c:	00000000 	nop
  406940:	8fbc0010 	lw	gp,16(sp)
  406944:	8e430000 	lw	v1,0(s2)
  406948:	2402003d 	li	v0,61
  40694c:	00731821 	addu	v1,v1,s3
  406950:	a0620000 	sb	v0,0(v1)
  406954:	8e440000 	lw	a0,0(s2)
  406958:	02e02821 	move	a1,s7
  40695c:	00932021 	addu	a0,a0,s3
  406960:	24840001 	addiu	a0,a0,1
  406964:	03c03021 	move	a2,s8
  406968:	8f990320 	lw	t9,800(gp)
  40696c:	00000000 	nop
  406970:	0320f809 	jalr	t9
  406974:	00000000 	nop
  406978:	8fbc0010 	lw	gp,16(sp)
  40697c:	1000ffb1 	b	406844 <__add_to_environ+0x164>
  406980:	00000000 	nop
  406984:	8f9900a8 	lw	t9,168(gp)
  406988:	00000000 	nop
  40698c:	0320f809 	jalr	t9
  406990:	00000000 	nop
  406994:	8fbc0010 	lw	gp,16(sp)
  406998:	2403000c 	li	v1,12
  40699c:	ac430000 	sw	v1,0(v0)
  4069a0:	8f840008 	lw	a0,8(gp)
  4069a4:	00000000 	nop
  4069a8:	2484e6c0 	addiu	a0,a0,-6464
  4069ac:	8f990134 	lw	t9,308(gp)
  4069b0:	00000000 	nop
  4069b4:	0320f809 	jalr	t9
  4069b8:	00000000 	nop
  4069bc:	8fbc0010 	lw	gp,16(sp)
  4069c0:	1000ffc2 	b	4068cc <__add_to_environ+0x1ec>
  4069c4:	2402ffff 	li	v0,-1
  4069c8:	1200ff8e 	beqz	s0,406804 <__add_to_environ+0x124>
  4069cc:	00000000 	nop
  4069d0:	8fa20054 	lw	v0,84(sp)
  4069d4:	00000000 	nop
  4069d8:	1040ffb3 	beqz	v0,4068a8 <__add_to_environ+0x1c8>
  4069dc:	00000000 	nop
  4069e0:	12c00003 	beqz	s6,4069f0 <__add_to_environ+0x310>
  4069e4:	02c08021 	move	s0,s6
  4069e8:	1000ffaf 	b	4068a8 <__add_to_environ+0x1c8>
  4069ec:	ae300000 	sw	s0,0(s1)
  4069f0:	027e2021 	addu	a0,s3,s8
  4069f4:	24840001 	addiu	a0,a0,1
  4069f8:	8f9902f4 	lw	t9,756(gp)
  4069fc:	00000000 	nop
  406a00:	0320f809 	jalr	t9
  406a04:	00000000 	nop
  406a08:	8fbc0010 	lw	gp,16(sp)
  406a0c:	1040ffe4 	beqz	v0,4069a0 <__add_to_environ+0x2c0>
  406a10:	00408021 	move	s0,v0
  406a14:	02a02821 	move	a1,s5
  406a18:	00402021 	move	a0,v0
  406a1c:	02603021 	move	a2,s3
  406a20:	8f990320 	lw	t9,800(gp)
  406a24:	00000000 	nop
  406a28:	0320f809 	jalr	t9
  406a2c:	00000000 	nop
  406a30:	8fbc0010 	lw	gp,16(sp)
  406a34:	02131821 	addu	v1,s0,s3
  406a38:	2402003d 	li	v0,61
  406a3c:	24640001 	addiu	a0,v1,1
  406a40:	a0620000 	sb	v0,0(v1)
  406a44:	02e02821 	move	a1,s7
  406a48:	03c03021 	move	a2,s8
  406a4c:	8f990320 	lw	t9,800(gp)
  406a50:	00000000 	nop
  406a54:	0320f809 	jalr	t9
  406a58:	00000000 	nop
  406a5c:	8fbc0010 	lw	gp,16(sp)
  406a60:	1000ff91 	b	4068a8 <__add_to_environ+0x1c8>
  406a64:	ae300000 	sw	s0,0(s1)
  406a68:	1000ff3f 	b	406768 <__add_to_environ+0x88>
  406a6c:	0000f021 	move	s8,zero

00406a70 <setenv>:
setenv():
  406a70:	3c1c0000 	lui	gp,0x0
  406a74:	279c60d0 	addiu	gp,gp,24784
  406a78:	0399e021 	addu	gp,gp,t9
  406a7c:	27bdffe0 	addiu	sp,sp,-32
  406a80:	afbc0010 	sw	gp,16(sp)
  406a84:	00c03821 	move	a3,a2
  406a88:	00003021 	move	a2,zero
  406a8c:	afbf001c 	sw	ra,28(sp)
  406a90:	afbc0018 	sw	gp,24(sp)
  406a94:	8f990348 	lw	t9,840(gp)
  406a98:	00000000 	nop
  406a9c:	0320f809 	jalr	t9
  406aa0:	00000000 	nop
  406aa4:	8fbc0010 	lw	gp,16(sp)
  406aa8:	8fbf001c 	lw	ra,28(sp)
  406aac:	00000000 	nop
  406ab0:	03e00008 	jr	ra
  406ab4:	27bd0020 	addiu	sp,sp,32

00406ab8 <unsetenv>:
unsetenv():
  406ab8:	3c1c0000 	lui	gp,0x0
  406abc:	279c6088 	addiu	gp,gp,24712
  406ac0:	0399e021 	addu	gp,gp,t9
  406ac4:	27bdffc8 	addiu	sp,sp,-56
  406ac8:	afbc0010 	sw	gp,16(sp)
  406acc:	afb00018 	sw	s0,24(sp)
  406ad0:	afbf0030 	sw	ra,48(sp)
  406ad4:	afbc002c 	sw	gp,44(sp)
  406ad8:	afb40028 	sw	s4,40(sp)
  406adc:	afb30024 	sw	s3,36(sp)
  406ae0:	afb20020 	sw	s2,32(sp)
  406ae4:	afb1001c 	sw	s1,28(sp)
  406ae8:	1080000c 	beqz	a0,406b1c <unsetenv+0x64>
  406aec:	00808021 	move	s0,a0
  406af0:	80820000 	lb	v0,0(a0)
  406af4:	00000000 	nop
  406af8:	10400008 	beqz	v0,406b1c <unsetenv+0x64>
  406afc:	2405003d 	li	a1,61
  406b00:	8f990050 	lw	t9,80(gp)
  406b04:	00000000 	nop
  406b08:	0320f809 	jalr	t9
  406b0c:	00000000 	nop
  406b10:	8fbc0010 	lw	gp,16(sp)
  406b14:	10400012 	beqz	v0,406b60 <unsetenv+0xa8>
  406b18:	02002021 	move	a0,s0
  406b1c:	8f9900a8 	lw	t9,168(gp)
  406b20:	00000000 	nop
  406b24:	0320f809 	jalr	t9
  406b28:	00000000 	nop
  406b2c:	8fbc0010 	lw	gp,16(sp)
  406b30:	24030016 	li	v1,22
  406b34:	2404ffff 	li	a0,-1
  406b38:	ac430000 	sw	v1,0(v0)
  406b3c:	8fbf0030 	lw	ra,48(sp)
  406b40:	8fb40028 	lw	s4,40(sp)
  406b44:	8fb30024 	lw	s3,36(sp)
  406b48:	8fb20020 	lw	s2,32(sp)
  406b4c:	8fb1001c 	lw	s1,28(sp)
  406b50:	8fb00018 	lw	s0,24(sp)
  406b54:	00801021 	move	v0,a0
  406b58:	03e00008 	jr	ra
  406b5c:	27bd0038 	addiu	sp,sp,56
  406b60:	8f990070 	lw	t9,112(gp)
  406b64:	00000000 	nop
  406b68:	0320f809 	jalr	t9
  406b6c:	00000000 	nop
  406b70:	8fbc0010 	lw	gp,16(sp)
  406b74:	00000000 	nop
  406b78:	8f840008 	lw	a0,8(gp)
  406b7c:	00000000 	nop
  406b80:	2484e6c0 	addiu	a0,a0,-6464
  406b84:	00409821 	move	s3,v0
  406b88:	8f9900b4 	lw	t9,180(gp)
  406b8c:	00000000 	nop
  406b90:	0320f809 	jalr	t9
  406b94:	00000000 	nop
  406b98:	8fbc0010 	lw	gp,16(sp)
  406b9c:	00000000 	nop
  406ba0:	8f91029c 	lw	s1,668(gp)
  406ba4:	00000000 	nop
  406ba8:	8e310000 	lw	s1,0(s1)
  406bac:	00000000 	nop
  406bb0:	8e320000 	lw	s2,0(s1)
  406bb4:	00000000 	nop
  406bb8:	12400014 	beqz	s2,406c0c <unsetenv+0x154>
  406bbc:	2414003d 	li	s4,61
  406bc0:	8e240000 	lw	a0,0(s1)
  406bc4:	02002821 	move	a1,s0
  406bc8:	02603021 	move	a2,s3
  406bcc:	8f9901d4 	lw	t9,468(gp)
  406bd0:	00000000 	nop
  406bd4:	0320f809 	jalr	t9
  406bd8:	00000000 	nop
  406bdc:	8fbc0010 	lw	gp,16(sp)
  406be0:	14400005 	bnez	v0,406bf8 <unsetenv+0x140>
  406be4:	02531021 	addu	v0,s2,s3
  406be8:	80430000 	lb	v1,0(v0)
  406bec:	00000000 	nop
  406bf0:	10740010 	beq	v1,s4,406c34 <unsetenv+0x17c>
  406bf4:	02201821 	move	v1,s1
  406bf8:	26310004 	addiu	s1,s1,4
  406bfc:	8e220000 	lw	v0,0(s1)
  406c00:	00000000 	nop
  406c04:	1440ffee 	bnez	v0,406bc0 <unsetenv+0x108>
  406c08:	00409021 	move	s2,v0
  406c0c:	8f840008 	lw	a0,8(gp)
  406c10:	00000000 	nop
  406c14:	2484e6c0 	addiu	a0,a0,-6464
  406c18:	8f990134 	lw	t9,308(gp)
  406c1c:	00000000 	nop
  406c20:	0320f809 	jalr	t9
  406c24:	00000000 	nop
  406c28:	8fbc0010 	lw	gp,16(sp)
  406c2c:	1000ffc3 	b	406b3c <unsetenv+0x84>
  406c30:	00002021 	move	a0,zero
  406c34:	8c620004 	lw	v0,4(v1)
  406c38:	00000000 	nop
  406c3c:	ac620000 	sw	v0,0(v1)
  406c40:	1440fffc 	bnez	v0,406c34 <unsetenv+0x17c>
  406c44:	24630004 	addiu	v1,v1,4
  406c48:	1000ffec 	b	406bfc <unsetenv+0x144>
  406c4c:	00000000 	nop

00406c50 <clearenv>:
clearenv():
  406c50:	3c1c0000 	lui	gp,0x0
  406c54:	279c5ef0 	addiu	gp,gp,24304
  406c58:	0399e021 	addu	gp,gp,t9
  406c5c:	27bdffe0 	addiu	sp,sp,-32
  406c60:	afbc0010 	sw	gp,16(sp)
  406c64:	8f840008 	lw	a0,8(gp)
  406c68:	00000000 	nop
  406c6c:	2484e6c0 	addiu	a0,a0,-6464
  406c70:	afbf001c 	sw	ra,28(sp)
  406c74:	afbc0018 	sw	gp,24(sp)
  406c78:	8f9900b4 	lw	t9,180(gp)
  406c7c:	00000000 	nop
  406c80:	0320f809 	jalr	t9
  406c84:	00000000 	nop
  406c88:	8fbc0010 	lw	gp,16(sp)
  406c8c:	00000000 	nop
  406c90:	8f83029c 	lw	v1,668(gp)
  406c94:	00000000 	nop
  406c98:	8c630000 	lw	v1,0(v1)
  406c9c:	8f820008 	lw	v0,8(gp)
  406ca0:	00000000 	nop
  406ca4:	2442ea00 	addiu	v0,v0,-5632
  406ca8:	8c420000 	lw	v0,0(v0)
  406cac:	00000000 	nop
  406cb0:	10620010 	beq	v1,v0,406cf4 <clearenv+0xa4>
  406cb4:	00000000 	nop
  406cb8:	8f840008 	lw	a0,8(gp)
  406cbc:	00000000 	nop
  406cc0:	2484e6c0 	addiu	a0,a0,-6464
  406cc4:	8f81029c 	lw	at,668(gp)
  406cc8:	00000000 	nop
  406ccc:	ac200000 	sw	zero,0(at)
  406cd0:	8f990134 	lw	t9,308(gp)
  406cd4:	00000000 	nop
  406cd8:	0320f809 	jalr	t9
  406cdc:	00000000 	nop
  406ce0:	8fbc0010 	lw	gp,16(sp)
  406ce4:	8fbf001c 	lw	ra,28(sp)
  406ce8:	00001021 	move	v0,zero
  406cec:	03e00008 	jr	ra
  406cf0:	27bd0020 	addiu	sp,sp,32
  406cf4:	1060fff0 	beqz	v1,406cb8 <clearenv+0x68>
  406cf8:	00602021 	move	a0,v1
  406cfc:	8f99001c 	lw	t9,28(gp)
  406d00:	00000000 	nop
  406d04:	0320f809 	jalr	t9
  406d08:	00000000 	nop
  406d0c:	8fbc0010 	lw	gp,16(sp)
  406d10:	00000000 	nop
  406d14:	8f810008 	lw	at,8(gp)
  406d18:	00000000 	nop
  406d1c:	2421ea00 	addiu	at,at,-5632
  406d20:	1000ffe5 	b	406cb8 <clearenv+0x68>
  406d24:	ac200000 	sw	zero,0(at)

00406d28 <putenv>:
putenv():
  406d28:	3c1c0000 	lui	gp,0x0
  406d2c:	279c5e18 	addiu	gp,gp,24088
  406d30:	0399e021 	addu	gp,gp,t9
  406d34:	27bdffd8 	addiu	sp,sp,-40
  406d38:	afbc0010 	sw	gp,16(sp)
  406d3c:	afb00018 	sw	s0,24(sp)
  406d40:	2405003d 	li	a1,61
  406d44:	afbf0024 	sw	ra,36(sp)
  406d48:	afbc0020 	sw	gp,32(sp)
  406d4c:	afb1001c 	sw	s1,28(sp)
  406d50:	00808021 	move	s0,a0
  406d54:	8f990050 	lw	t9,80(gp)
  406d58:	00000000 	nop
  406d5c:	0320f809 	jalr	t9
  406d60:	00000000 	nop
  406d64:	8fbc0010 	lw	gp,16(sp)
  406d68:	00502823 	subu	a1,v0,s0
  406d6c:	1040001d 	beqz	v0,406de4 <putenv+0xbc>
  406d70:	02002021 	move	a0,s0
  406d74:	8f990368 	lw	t9,872(gp)
  406d78:	00000000 	nop
  406d7c:	0320f809 	jalr	t9
  406d80:	00000000 	nop
  406d84:	8fbc0010 	lw	gp,16(sp)
  406d88:	00402021 	move	a0,v0
  406d8c:	02003021 	move	a2,s0
  406d90:	24070001 	li	a3,1
  406d94:	00002821 	move	a1,zero
  406d98:	00408821 	move	s1,v0
  406d9c:	8f990348 	lw	t9,840(gp)
  406da0:	00000000 	nop
  406da4:	0320f809 	jalr	t9
  406da8:	00000000 	nop
  406dac:	8fbc0010 	lw	gp,16(sp)
  406db0:	00408021 	move	s0,v0
  406db4:	02202021 	move	a0,s1
  406db8:	8f99001c 	lw	t9,28(gp)
  406dbc:	00000000 	nop
  406dc0:	0320f809 	jalr	t9
  406dc4:	00000000 	nop
  406dc8:	8fbc0010 	lw	gp,16(sp)
  406dcc:	02001021 	move	v0,s0
  406dd0:	8fbf0024 	lw	ra,36(sp)
  406dd4:	8fb1001c 	lw	s1,28(sp)
  406dd8:	8fb00018 	lw	s0,24(sp)
  406ddc:	03e00008 	jr	ra
  406de0:	27bd0028 	addiu	sp,sp,40
  406de4:	8f99039c 	lw	t9,924(gp)
  406de8:	00000000 	nop
  406dec:	0320f809 	jalr	t9
  406df0:	00000000 	nop
  406df4:	8fbc0010 	lw	gp,16(sp)
  406df8:	1000fff5 	b	406dd0 <putenv+0xa8>
  406dfc:	00001021 	move	v0,zero

00406e00 <malloc>:
malloc():
  406e00:	3c1c0000 	lui	gp,0x0
  406e04:	279c5d40 	addiu	gp,gp,23872
  406e08:	0399e021 	addu	gp,gp,t9
  406e0c:	27bdffc8 	addiu	sp,sp,-56
  406e10:	afbc0018 	sw	gp,24(sp)
  406e14:	24820008 	addiu	v0,a0,8
  406e18:	8f84018c 	lw	a0,396(gp)
  406e1c:	afbf0034 	sw	ra,52(sp)
  406e20:	afb20028 	sw	s2,40(sp)
  406e24:	afbc0030 	sw	gp,48(sp)
  406e28:	afb3002c 	sw	s3,44(sp)
  406e2c:	afb10024 	sw	s1,36(sp)
  406e30:	afb00020 	sw	s0,32(sp)
  406e34:	afa20038 	sw	v0,56(sp)
  406e38:	8f9900b4 	lw	t9,180(gp)
  406e3c:	00000000 	nop
  406e40:	0320f809 	jalr	t9
  406e44:	00000000 	nop
  406e48:	8fbc0018 	lw	gp,24(sp)
  406e4c:	00000000 	nop
  406e50:	8f8402a0 	lw	a0,672(gp)
  406e54:	27a50038 	addiu	a1,sp,56
  406e58:	8f99008c 	lw	t9,140(gp)
  406e5c:	00000000 	nop
  406e60:	0320f809 	jalr	t9
  406e64:	00000000 	nop
  406e68:	8fbc0018 	lw	gp,24(sp)
  406e6c:	10400015 	beqz	v0,406ec4 <malloc+0xc4>
  406e70:	00409021 	move	s2,v0
  406e74:	8f84018c 	lw	a0,396(gp)
  406e78:	8f990134 	lw	t9,308(gp)
  406e7c:	00000000 	nop
  406e80:	0320f809 	jalr	t9
  406e84:	00000000 	nop
  406e88:	8fbc0018 	lw	gp,24(sp)
  406e8c:	12400006 	beqz	s2,406ea8 <malloc+0xa8>
  406e90:	02401021 	move	v0,s2
  406e94:	8fa20038 	lw	v0,56(sp)
  406e98:	00000000 	nop
  406e9c:	ae420000 	sw	v0,0(s2)
  406ea0:	26520008 	addiu	s2,s2,8
  406ea4:	02401021 	move	v0,s2
  406ea8:	8fbf0034 	lw	ra,52(sp)
  406eac:	8fb3002c 	lw	s3,44(sp)
  406eb0:	8fb20028 	lw	s2,40(sp)
  406eb4:	8fb10024 	lw	s1,36(sp)
  406eb8:	8fb00020 	lw	s0,32(sp)
  406ebc:	03e00008 	jr	ra
  406ec0:	27bd0038 	addiu	sp,sp,56
  406ec4:	8fa20038 	lw	v0,56(sp)
  406ec8:	00000000 	nop
  406ecc:	24430fff 	addiu	v1,v0,4095
  406ed0:	2c421000 	sltiu	v0,v0,4096
  406ed4:	14400003 	bnez	v0,406ee4 <malloc+0xe4>
  406ed8:	24131000 	li	s3,4096
  406edc:	2402f000 	li	v0,-4096
  406ee0:	00629824 	and	s3,v1,v0
  406ee4:	8f91018c 	lw	s1,396(gp)
  406ee8:	00000000 	nop
  406eec:	02202021 	move	a0,s1
  406ef0:	8f990134 	lw	t9,308(gp)
  406ef4:	00000000 	nop
  406ef8:	0320f809 	jalr	t9
  406efc:	00000000 	nop
  406f00:	8fbc0018 	lw	gp,24(sp)
  406f04:	02602821 	move	a1,s3
  406f08:	24060003 	li	a2,3
  406f0c:	24070801 	li	a3,2049
  406f10:	00002021 	move	a0,zero
  406f14:	afa00010 	sw	zero,16(sp)
  406f18:	afa00014 	sw	zero,20(sp)
  406f1c:	8f990290 	lw	t9,656(gp)
  406f20:	00000000 	nop
  406f24:	0320f809 	jalr	t9
  406f28:	00000000 	nop
  406f2c:	8fbc0018 	lw	gp,24(sp)
  406f30:	02202021 	move	a0,s1
  406f34:	00408021 	move	s0,v0
  406f38:	8f9900b4 	lw	t9,180(gp)
  406f3c:	00000000 	nop
  406f40:	0320f809 	jalr	t9
  406f44:	00000000 	nop
  406f48:	8fbc0018 	lw	gp,24(sp)
  406f4c:	2402ffff 	li	v0,-1
  406f50:	02603021 	move	a2,s3
  406f54:	8f8402a0 	lw	a0,672(gp)
  406f58:	1202ffc6 	beq	s0,v0,406e74 <malloc+0x74>
  406f5c:	02002821 	move	a1,s0
  406f60:	8f990324 	lw	t9,804(gp)
  406f64:	00000000 	nop
  406f68:	0320f809 	jalr	t9
  406f6c:	00000000 	nop
  406f70:	8fbc0018 	lw	gp,24(sp)
  406f74:	27a50038 	addiu	a1,sp,56
  406f78:	8f8402a0 	lw	a0,672(gp)
  406f7c:	8f99008c 	lw	t9,140(gp)
  406f80:	00000000 	nop
  406f84:	0320f809 	jalr	t9
  406f88:	00000000 	nop
  406f8c:	8fbc0018 	lw	gp,24(sp)
  406f90:	1000ffb8 	b	406e74 <malloc+0x74>
  406f94:	00409021 	move	s2,v0
	...

00406fa0 <free>:
free():
  406fa0:	3c1c0000 	lui	gp,0x0
  406fa4:	279c5ba0 	addiu	gp,gp,23456
  406fa8:	0399e021 	addu	gp,gp,t9
  406fac:	27bdffd0 	addiu	sp,sp,-48
  406fb0:	afbc0010 	sw	gp,16(sp)
  406fb4:	afbf002c 	sw	ra,44(sp)
  406fb8:	afbc0028 	sw	gp,40(sp)
  406fbc:	afb30024 	sw	s3,36(sp)
  406fc0:	afb20020 	sw	s2,32(sp)
  406fc4:	afb1001c 	sw	s1,28(sp)
  406fc8:	10800057 	beqz	a0,407128 <free+0x188>
  406fcc:	afb00018 	sw	s0,24(sp)
  406fd0:	8c91fff8 	lw	s1,-8(a0)
  406fd4:	8f92018c 	lw	s2,396(gp)
  406fd8:	2490fff8 	addiu	s0,a0,-8
  406fdc:	02402021 	move	a0,s2
  406fe0:	8f9900b4 	lw	t9,180(gp)
  406fe4:	00000000 	nop
  406fe8:	0320f809 	jalr	t9
  406fec:	00000000 	nop
  406ff0:	8fbc0010 	lw	gp,16(sp)
  406ff4:	02203021 	move	a2,s1
  406ff8:	8f8402a0 	lw	a0,672(gp)
  406ffc:	02002821 	move	a1,s0
  407000:	8f990324 	lw	t9,804(gp)
  407004:	00000000 	nop
  407008:	0320f809 	jalr	t9
  40700c:	00000000 	nop
  407010:	8fbc0010 	lw	gp,16(sp)
  407014:	8c430000 	lw	v1,0(v0)
  407018:	00403021 	move	a2,v0
  40701c:	24027fff 	li	v0,32767
  407020:	0043102b 	sltu	v0,v0,v1
  407024:	1040005c 	beqz	v0,407198 <free+0x1f8>
  407028:	00c31023 	subu	v0,a2,v1
  40702c:	8cc40004 	lw	a0,4(a2)
  407030:	2452000c 	addiu	s2,v0,12
  407034:	10800004 	beqz	a0,407048 <free+0xa8>
  407038:	24d3000c 	addiu	s3,a2,12
  40703c:	8cc20008 	lw	v0,8(a2)
  407040:	00000000 	nop
  407044:	ac820008 	sw	v0,8(a0)
  407048:	8cc20008 	lw	v0,8(a2)
  40704c:	00000000 	nop
  407050:	1040004d 	beqz	v0,407188 <free+0x1e8>
  407054:	00000000 	nop
  407058:	ac440004 	sw	a0,4(v0)
  40705c:	8cc20004 	lw	v0,4(a2)
  407060:	00000000 	nop
  407064:	14400006 	bnez	v0,407080 <free+0xe0>
  407068:	2402f000 	li	v0,-4096
  40706c:	8cc20008 	lw	v0,8(a2)
  407070:	00000000 	nop
  407074:	1040003b 	beqz	v0,407164 <free+0x1c4>
  407078:	02402821 	move	a1,s2
  40707c:	2402f000 	li	v0,-4096
  407080:	26430fff 	addiu	v1,s2,4095
  407084:	00628824 	and	s1,v1,v0
  407088:	0251202b 	sltu	a0,s2,s1
  40708c:	1080000d 	beqz	a0,4070c4 <free+0x124>
  407090:	02628024 	and	s0,s3,v0
  407094:	02323023 	subu	a2,s1,s2
  407098:	2cc20030 	sltiu	v0,a2,48
  40709c:	10400003 	beqz	v0,4070ac <free+0x10c>
  4070a0:	02402821 	move	a1,s2
  4070a4:	26311000 	addiu	s1,s1,4096
  4070a8:	02323023 	subu	a2,s1,s2
  4070ac:	8f8402a0 	lw	a0,672(gp)
  4070b0:	8f990324 	lw	t9,804(gp)
  4070b4:	00000000 	nop
  4070b8:	0320f809 	jalr	t9
  4070bc:	00000000 	nop
  4070c0:	8fbc0010 	lw	gp,16(sp)
  4070c4:	0213102b 	sltu	v0,s0,s3
  4070c8:	1040000e 	beqz	v0,407104 <free+0x164>
  4070cc:	02703023 	subu	a2,s3,s0
  4070d0:	2cc20030 	sltiu	v0,a2,48
  4070d4:	10400003 	beqz	v0,4070e4 <free+0x144>
  4070d8:	00000000 	nop
  4070dc:	2610f000 	addiu	s0,s0,-4096
  4070e0:	02703023 	subu	a2,s3,s0
  4070e4:	8f8402a0 	lw	a0,672(gp)
  4070e8:	02002821 	move	a1,s0
  4070ec:	8f990324 	lw	t9,804(gp)
  4070f0:	00000000 	nop
  4070f4:	0320f809 	jalr	t9
  4070f8:	00000000 	nop
  4070fc:	8fbc0010 	lw	gp,16(sp)
  407100:	00000000 	nop
  407104:	8f84018c 	lw	a0,396(gp)
  407108:	8f990134 	lw	t9,308(gp)
  40710c:	00000000 	nop
  407110:	0320f809 	jalr	t9
  407114:	00000000 	nop
  407118:	8fbc0010 	lw	gp,16(sp)
  40711c:	0230182b 	sltu	v1,s1,s0
  407120:	14600008 	bnez	v1,407144 <free+0x1a4>
  407124:	02112823 	subu	a1,s0,s1
  407128:	8fbf002c 	lw	ra,44(sp)
  40712c:	8fb30024 	lw	s3,36(sp)
  407130:	8fb20020 	lw	s2,32(sp)
  407134:	8fb1001c 	lw	s1,28(sp)
  407138:	8fb00018 	lw	s0,24(sp)
  40713c:	03e00008 	jr	ra
  407140:	27bd0030 	addiu	sp,sp,48
  407144:	02202021 	move	a0,s1
  407148:	8f99035c 	lw	t9,860(gp)
  40714c:	00000000 	nop
  407150:	0320f809 	jalr	t9
  407154:	00000000 	nop
  407158:	8fbc0010 	lw	gp,16(sp)
  40715c:	1000fff2 	b	407128 <free+0x188>
  407160:	00000000 	nop
  407164:	8f8402a0 	lw	a0,672(gp)
  407168:	24062000 	li	a2,8192
  40716c:	8f990324 	lw	t9,804(gp)
  407170:	00000000 	nop
  407174:	0320f809 	jalr	t9
  407178:	00000000 	nop
  40717c:	8fbc0010 	lw	gp,16(sp)
  407180:	1000ffbe 	b	40707c <free+0xdc>
  407184:	26522000 	addiu	s2,s2,8192
  407188:	8f8102a0 	lw	at,672(gp)
  40718c:	00000000 	nop
  407190:	1000ffb2 	b	40705c <free+0xbc>
  407194:	ac240000 	sw	a0,0(at)
  407198:	02402021 	move	a0,s2
  40719c:	8f990134 	lw	t9,308(gp)
  4071a0:	00000000 	nop
  4071a4:	0320f809 	jalr	t9
  4071a8:	00000000 	nop
  4071ac:	8fbc0010 	lw	gp,16(sp)
  4071b0:	1000ffdd 	b	407128 <free+0x188>
  4071b4:	00000000 	nop
	...

004071c0 <realloc>:
realloc():
  4071c0:	3c1c0000 	lui	gp,0x0
  4071c4:	279c5980 	addiu	gp,gp,22912
  4071c8:	0399e021 	addu	gp,gp,t9
  4071cc:	27bdffc8 	addiu	sp,sp,-56
  4071d0:	afbc0010 	sw	gp,16(sp)
  4071d4:	afb20020 	sw	s2,32(sp)
  4071d8:	afbf0030 	sw	ra,48(sp)
  4071dc:	afbc002c 	sw	gp,44(sp)
  4071e0:	afb40028 	sw	s4,40(sp)
  4071e4:	afb30024 	sw	s3,36(sp)
  4071e8:	afb1001c 	sw	s1,28(sp)
  4071ec:	afb00018 	sw	s0,24(sp)
  4071f0:	10a00068 	beqz	a1,407394 <realloc+0x1d4>
  4071f4:	00809021 	move	s2,a0
  4071f8:	1080005e 	beqz	a0,407374 <realloc+0x1b4>
  4071fc:	2403fff8 	li	v1,-8
  407200:	24a2000f 	addiu	v0,a1,15
  407204:	8c94fff8 	lw	s4,-8(a0)
  407208:	00438824 	and	s1,v0,v1
  40720c:	0291202b 	sltu	a0,s4,s1
  407210:	14800027 	bnez	a0,4072b0 <realloc+0xf0>
  407214:	2653fff8 	addiu	s3,s2,-8
  407218:	26220020 	addiu	v0,s1,32
  40721c:	0282102b 	sltu	v0,s4,v0
  407220:	1040000a 	beqz	v0,40724c <realloc+0x8c>
  407224:	00000000 	nop
  407228:	02401021 	move	v0,s2
  40722c:	8fbf0030 	lw	ra,48(sp)
  407230:	8fb40028 	lw	s4,40(sp)
  407234:	8fb30024 	lw	s3,36(sp)
  407238:	8fb20020 	lw	s2,32(sp)
  40723c:	8fb1001c 	lw	s1,28(sp)
  407240:	8fb00018 	lw	s0,24(sp)
  407244:	03e00008 	jr	ra
  407248:	27bd0038 	addiu	sp,sp,56
  40724c:	8f90018c 	lw	s0,396(gp)
  407250:	00000000 	nop
  407254:	02002021 	move	a0,s0
  407258:	8f9900b4 	lw	t9,180(gp)
  40725c:	00000000 	nop
  407260:	0320f809 	jalr	t9
  407264:	00000000 	nop
  407268:	8fbc0010 	lw	gp,16(sp)
  40726c:	00000000 	nop
  407270:	8f8402a0 	lw	a0,672(gp)
  407274:	02712821 	addu	a1,s3,s1
  407278:	02913023 	subu	a2,s4,s1
  40727c:	8f990324 	lw	t9,804(gp)
  407280:	00000000 	nop
  407284:	0320f809 	jalr	t9
  407288:	00000000 	nop
  40728c:	8fbc0010 	lw	gp,16(sp)
  407290:	02002021 	move	a0,s0
  407294:	8f990134 	lw	t9,308(gp)
  407298:	00000000 	nop
  40729c:	0320f809 	jalr	t9
  4072a0:	00000000 	nop
  4072a4:	8fbc0010 	lw	gp,16(sp)
  4072a8:	1000ffdf 	b	407228 <realloc+0x68>
  4072ac:	ae51fff8 	sw	s1,-8(s2)
  4072b0:	8f90018c 	lw	s0,396(gp)
  4072b4:	00000000 	nop
  4072b8:	02002021 	move	a0,s0
  4072bc:	8f9900b4 	lw	t9,180(gp)
  4072c0:	00000000 	nop
  4072c4:	0320f809 	jalr	t9
  4072c8:	00000000 	nop
  4072cc:	8fbc0010 	lw	gp,16(sp)
  4072d0:	02742821 	addu	a1,s3,s4
  4072d4:	02349823 	subu	s3,s1,s4
  4072d8:	8f8402a0 	lw	a0,672(gp)
  4072dc:	02603021 	move	a2,s3
  4072e0:	8f99033c 	lw	t9,828(gp)
  4072e4:	00000000 	nop
  4072e8:	0320f809 	jalr	t9
  4072ec:	00000000 	nop
  4072f0:	8fbc0010 	lw	gp,16(sp)
  4072f4:	00409821 	move	s3,v0
  4072f8:	02002021 	move	a0,s0
  4072fc:	8f990134 	lw	t9,308(gp)
  407300:	00000000 	nop
  407304:	0320f809 	jalr	t9
  407308:	00000000 	nop
  40730c:	8fbc0010 	lw	gp,16(sp)
  407310:	1660ffe5 	bnez	s3,4072a8 <realloc+0xe8>
  407314:	2624fff8 	addiu	a0,s1,-8
  407318:	8f9902f4 	lw	t9,756(gp)
  40731c:	00000000 	nop
  407320:	0320f809 	jalr	t9
  407324:	00000000 	nop
  407328:	8fbc0010 	lw	gp,16(sp)
  40732c:	1040000f 	beqz	v0,40736c <realloc+0x1ac>
  407330:	00408021 	move	s0,v0
  407334:	00402021 	move	a0,v0
  407338:	2686fff8 	addiu	a2,s4,-8
  40733c:	02402821 	move	a1,s2
  407340:	8f990320 	lw	t9,800(gp)
  407344:	00000000 	nop
  407348:	0320f809 	jalr	t9
  40734c:	00000000 	nop
  407350:	8fbc0010 	lw	gp,16(sp)
  407354:	02402021 	move	a0,s2
  407358:	8f99001c 	lw	t9,28(gp)
  40735c:	00000000 	nop
  407360:	0320f809 	jalr	t9
  407364:	00000000 	nop
  407368:	8fbc0010 	lw	gp,16(sp)
  40736c:	1000ffae 	b	407228 <realloc+0x68>
  407370:	02009021 	move	s2,s0
  407374:	00a02021 	move	a0,a1
  407378:	8f9902f4 	lw	t9,756(gp)
  40737c:	00000000 	nop
  407380:	0320f809 	jalr	t9
  407384:	00000000 	nop
  407388:	8fbc0010 	lw	gp,16(sp)
  40738c:	1000ffa7 	b	40722c <realloc+0x6c>
  407390:	00000000 	nop
  407394:	8f99001c 	lw	t9,28(gp)
  407398:	00000000 	nop
  40739c:	0320f809 	jalr	t9
  4073a0:	00000000 	nop
  4073a4:	8fbc0010 	lw	gp,16(sp)
  4073a8:	1000ffa0 	b	40722c <realloc+0x6c>
  4073ac:	00001021 	move	v0,zero

004073b0 <__heap_alloc>:
__heap_alloc():
  4073b0:	3c1c0000 	lui	gp,0x0
  4073b4:	279c5790 	addiu	gp,gp,22416
  4073b8:	0399e021 	addu	gp,gp,t9
  4073bc:	8ca70000 	lw	a3,0(a1)
  4073c0:	2403fff8 	li	v1,-8
  4073c4:	24e20007 	addiu	v0,a3,7
  4073c8:	00433824 	and	a3,v0,v1
  4073cc:	00a05021 	move	t2,a1
  4073d0:	2ce5000c 	sltiu	a1,a3,12
  4073d4:	10a00002 	beqz	a1,4073e0 <__heap_alloc+0x30>
  4073d8:	00004821 	move	t1,zero
  4073dc:	24070010 	li	a3,16
  4073e0:	8c860000 	lw	a2,0(a0)
  4073e4:	00000000 	nop
  4073e8:	10c0000a 	beqz	a2,407414 <__heap_alloc+0x64>
  4073ec:	00000000 	nop
  4073f0:	8cc80000 	lw	t0,0(a2)
  4073f4:	00000000 	nop
  4073f8:	0107102b 	sltu	v0,t0,a3
  4073fc:	10400007 	beqz	v0,40741c <__heap_alloc+0x6c>
  407400:	24e20030 	addiu	v0,a3,48
  407404:	8cc60004 	lw	a2,4(a2)
  407408:	00000000 	nop
  40740c:	14c0fff8 	bnez	a2,4073f0 <__heap_alloc+0x40>
  407410:	00000000 	nop
  407414:	03e00008 	jr	ra
  407418:	01201021 	move	v0,t1
  40741c:	00c81823 	subu	v1,a2,t0
  407420:	0102102b 	sltu	v0,t0,v0
  407424:	00e02821 	move	a1,a3
  407428:	10400012 	beqz	v0,407474 <__heap_alloc+0xc4>
  40742c:	2469000c 	addiu	t1,v1,12
  407430:	8cc50004 	lw	a1,4(a2)
  407434:	00000000 	nop
  407438:	10a00004 	beqz	a1,40744c <__heap_alloc+0x9c>
  40743c:	00000000 	nop
  407440:	8cc20008 	lw	v0,8(a2)
  407444:	00000000 	nop
  407448:	aca20008 	sw	v0,8(a1)
  40744c:	8cc30008 	lw	v1,8(a2)
  407450:	00000000 	nop
  407454:	10600005 	beqz	v1,40746c <__heap_alloc+0xbc>
  407458:	00000000 	nop
  40745c:	ac650004 	sw	a1,4(v1)
  407460:	01002821 	move	a1,t0
  407464:	1000ffeb 	b	407414 <__heap_alloc+0x64>
  407468:	ad450000 	sw	a1,0(t2)
  40746c:	1000fffc 	b	407460 <__heap_alloc+0xb0>
  407470:	ac850000 	sw	a1,0(a0)
  407474:	01071023 	subu	v0,t0,a3
  407478:	1000fffa 	b	407464 <__heap_alloc+0xb4>
  40747c:	acc20000 	sw	v0,0(a2)

00407480 <__heap_alloc_at>:
__heap_alloc_at():
  407480:	3c1c0000 	lui	gp,0x0
  407484:	279c56c0 	addiu	gp,gp,22208
  407488:	0399e021 	addu	gp,gp,t9
  40748c:	8c870000 	lw	a3,0(a0)
  407490:	24c30007 	addiu	v1,a2,7
  407494:	2402fff8 	li	v0,-8
  407498:	00623024 	and	a2,v1,v0
  40749c:	10e0000c 	beqz	a3,4074d0 <__heap_alloc_at+0x50>
  4074a0:	00004821 	move	t1,zero
  4074a4:	8ce80000 	lw	t0,0(a3)
  4074a8:	00000000 	nop
  4074ac:	00e81023 	subu	v0,a3,t0
  4074b0:	2442000c 	addiu	v0,v0,12
  4074b4:	00a2182b 	sltu	v1,a1,v0
  4074b8:	10600007 	beqz	v1,4074d8 <__heap_alloc_at+0x58>
  4074bc:	00000000 	nop
  4074c0:	8ce70004 	lw	a3,4(a3)
  4074c4:	00000000 	nop
  4074c8:	14e0fff6 	bnez	a3,4074a4 <__heap_alloc_at+0x24>
  4074cc:	00000000 	nop
  4074d0:	03e00008 	jr	ra
  4074d4:	01201021 	move	v0,t1
  4074d8:	1445fffd 	bne	v0,a1,4074d0 <__heap_alloc_at+0x50>
  4074dc:	00000000 	nop
  4074e0:	0106102b 	sltu	v0,t0,a2
  4074e4:	1440fffa 	bnez	v0,4074d0 <__heap_alloc_at+0x50>
  4074e8:	00000000 	nop
  4074ec:	24c20030 	addiu	v0,a2,48
  4074f0:	0102102b 	sltu	v0,t0,v0
  4074f4:	10400012 	beqz	v0,407540 <__heap_alloc_at+0xc0>
  4074f8:	01061023 	subu	v0,t0,a2
  4074fc:	8ce30004 	lw	v1,4(a3)
  407500:	00000000 	nop
  407504:	10600004 	beqz	v1,407518 <__heap_alloc_at+0x98>
  407508:	00000000 	nop
  40750c:	8ce20008 	lw	v0,8(a3)
  407510:	00000000 	nop
  407514:	ac620008 	sw	v0,8(v1)
  407518:	8ce20008 	lw	v0,8(a3)
  40751c:	00000000 	nop
  407520:	10400005 	beqz	v0,407538 <__heap_alloc_at+0xb8>
  407524:	00000000 	nop
  407528:	ac430004 	sw	v1,4(v0)
  40752c:	01003021 	move	a2,t0
  407530:	1000ffe7 	b	4074d0 <__heap_alloc_at+0x50>
  407534:	00c04821 	move	t1,a2
  407538:	1000fffc 	b	40752c <__heap_alloc_at+0xac>
  40753c:	ac830000 	sw	v1,0(a0)
  407540:	1000fffb 	b	407530 <__heap_alloc_at+0xb0>
  407544:	ace20000 	sw	v0,0(a3)
	...

00407550 <__heap_free>:
__heap_free():
  407550:	3c1c0000 	lui	gp,0x0
  407554:	279c55f0 	addiu	gp,gp,22000
  407558:	0399e021 	addu	gp,gp,t9
  40755c:	8c870000 	lw	a3,0(a0)
  407560:	00a64821 	addu	t1,a1,a2
  407564:	10e00011 	beqz	a3,4075ac <__heap_free+0x5c>
  407568:	00005821 	move	t3,zero
  40756c:	8cea0000 	lw	t2,0(a3)
  407570:	00000000 	nop
  407574:	00ea1023 	subu	v0,a3,t2
  407578:	2442000c 	addiu	v0,v0,12
  40757c:	0122182b 	sltu	v1,t1,v0
  407580:	1460000a 	bnez	v1,4075ac <__heap_free+0x5c>
  407584:	24e8000c 	addiu	t0,a3,12
  407588:	10490034 	beq	v0,t1,40765c <__heap_free+0x10c>
  40758c:	00000000 	nop
  407590:	11050014 	beq	t0,a1,4075e4 <__heap_free+0x94>
  407594:	00000000 	nop
  407598:	00e05821 	move	t3,a3
  40759c:	8ce70004 	lw	a3,4(a3)
  4075a0:	00000000 	nop
  4075a4:	14e0fff1 	bnez	a3,40756c <__heap_free+0x1c>
  4075a8:	00000000 	nop
  4075ac:	2522fff4 	addiu	v0,t1,-12
  4075b0:	ad26fff4 	sw	a2,-12(t1)
  4075b4:	ac470004 	sw	a3,4(v0)
  4075b8:	11600008 	beqz	t3,4075dc <__heap_free+0x8c>
  4075bc:	ac4b0008 	sw	t3,8(v0)
  4075c0:	ad620004 	sw	v0,4(t3)
  4075c4:	10e00002 	beqz	a3,4075d0 <__heap_free+0x80>
  4075c8:	00000000 	nop
  4075cc:	ace20008 	sw	v0,8(a3)
  4075d0:	00403821 	move	a3,v0
  4075d4:	03e00008 	jr	ra
  4075d8:	00e01021 	move	v0,a3
  4075dc:	1000fff9 	b	4075c4 <__heap_free+0x74>
  4075e0:	ac820000 	sw	v0,0(a0)
  4075e4:	8ce30004 	lw	v1,4(a3)
  4075e8:	00000000 	nop
  4075ec:	10600007 	beqz	v1,40760c <__heap_free+0xbc>
  4075f0:	01465021 	addu	t2,t2,a2
  4075f4:	8c650000 	lw	a1,0(v1)
  4075f8:	00000000 	nop
  4075fc:	00651023 	subu	v0,v1,a1
  407600:	2442000c 	addiu	v0,v0,12
  407604:	1122000d 	beq	t1,v0,40763c <__heap_free+0xec>
  407608:	00000000 	nop
  40760c:	00e63821 	addu	a3,a3,a2
  407610:	ace30004 	sw	v1,4(a3)
  407614:	11600007 	beqz	t3,407634 <__heap_free+0xe4>
  407618:	aceb0008 	sw	t3,8(a3)
  40761c:	ad670004 	sw	a3,4(t3)
  407620:	10600002 	beqz	v1,40762c <__heap_free+0xdc>
  407624:	00000000 	nop
  407628:	ac670008 	sw	a3,8(v1)
  40762c:	1000ffe9 	b	4075d4 <__heap_free+0x84>
  407630:	acea0000 	sw	t2,0(a3)
  407634:	1000fffa 	b	407620 <__heap_free+0xd0>
  407638:	ac870000 	sw	a3,0(a0)
  40763c:	11600005 	beqz	t3,407654 <__heap_free+0x104>
  407640:	01455021 	addu	t2,t2,a1
  407644:	ad630004 	sw	v1,4(t3)
  407648:	00603821 	move	a3,v1
  40764c:	1000fff7 	b	40762c <__heap_free+0xdc>
  407650:	ac6b0008 	sw	t3,8(v1)
  407654:	1000fffc 	b	407648 <__heap_free+0xf8>
  407658:	ac830000 	sw	v1,0(a0)
  40765c:	1160fff3 	beqz	t3,40762c <__heap_free+0xdc>
  407660:	01465021 	addu	t2,t2,a2
  407664:	2562000c 	addiu	v0,t3,12
  407668:	14a2fff0 	bne	a1,v0,40762c <__heap_free+0xdc>
  40766c:	00000000 	nop
  407670:	8d620000 	lw	v0,0(t3)
  407674:	8d630008 	lw	v1,8(t3)
  407678:	00000000 	nop
  40767c:	10600004 	beqz	v1,407690 <__heap_free+0x140>
  407680:	01425021 	addu	t2,t2,v0
  407684:	ac670004 	sw	a3,4(v1)
  407688:	1000ffe8 	b	40762c <__heap_free+0xdc>
  40768c:	ace30008 	sw	v1,8(a3)
  407690:	1000fffd 	b	407688 <__heap_free+0x138>
  407694:	ac870000 	sw	a3,0(a0)
	...

004076a0 <_exit>:
_exit():
  4076a0:	3c1c0000 	lui	gp,0x0
  4076a4:	279c54a0 	addiu	gp,gp,21664
  4076a8:	0399e021 	addu	gp,gp,t9
  4076ac:	27bdffd8 	addiu	sp,sp,-40
  4076b0:	afbc0010 	sw	gp,16(sp)
  4076b4:	afbf0020 	sw	ra,32(sp)
  4076b8:	afbc001c 	sw	gp,28(sp)
  4076bc:	afb00018 	sw	s0,24(sp)
  4076c0:	00801821 	move	v1,a0
  4076c4:	00602021 	move	a0,v1
  4076c8:	24020fa1 	li	v0,4001
  4076cc:	0000000c 	syscall
  4076d0:	00408021 	move	s0,v0
  4076d4:	00e02821 	move	a1,a3
  4076d8:	10a00007 	beqz	a1,4076f8 <_exit+0x58>
  4076dc:	00000000 	nop
  4076e0:	8f9900a8 	lw	t9,168(gp)
  4076e4:	00000000 	nop
  4076e8:	0320f809 	jalr	t9
  4076ec:	00000000 	nop
  4076f0:	8fbc0010 	lw	gp,16(sp)
  4076f4:	ac500000 	sw	s0,0(v0)
  4076f8:	8fbf0020 	lw	ra,32(sp)
  4076fc:	8fb00018 	lw	s0,24(sp)
  407700:	03e00008 	jr	ra
  407704:	27bd0028 	addiu	sp,sp,40
	...

00407710 <__libc_read>:
read():
  407710:	3c1c0000 	lui	gp,0x0
  407714:	279c5430 	addiu	gp,gp,21552
  407718:	0399e021 	addu	gp,gp,t9
  40771c:	27bdffd0 	addiu	sp,sp,-48
  407720:	afbc0010 	sw	gp,16(sp)
  407724:	afb1001c 	sw	s1,28(sp)
  407728:	afb00018 	sw	s0,24(sp)
  40772c:	afbf0028 	sw	ra,40(sp)
  407730:	afbc0024 	sw	gp,36(sp)
  407734:	afb20020 	sw	s2,32(sp)
  407738:	00808821 	move	s1,a0
  40773c:	00a08021 	move	s0,a1
  407740:	00c01821 	move	v1,a2
  407744:	02202021 	move	a0,s1
  407748:	02002821 	move	a1,s0
  40774c:	00603021 	move	a2,v1
  407750:	24020fa3 	li	v0,4003
  407754:	0000000c 	syscall
  407758:	00408021 	move	s0,v0
  40775c:	00e09021 	move	s2,a3
  407760:	12400008 	beqz	s2,407784 <__libc_read+0x74>
  407764:	02001021 	move	v0,s0
  407768:	8f9900a8 	lw	t9,168(gp)
  40776c:	00000000 	nop
  407770:	0320f809 	jalr	t9
  407774:	00000000 	nop
  407778:	8fbc0010 	lw	gp,16(sp)
  40777c:	ac500000 	sw	s0,0(v0)
  407780:	2402ffff 	li	v0,-1
  407784:	8fbf0028 	lw	ra,40(sp)
  407788:	8fb20020 	lw	s2,32(sp)
  40778c:	8fb1001c 	lw	s1,28(sp)
  407790:	8fb00018 	lw	s0,24(sp)
  407794:	03e00008 	jr	ra
  407798:	27bd0030 	addiu	sp,sp,48
  40779c:	00000000 	nop

004077a0 <__libc_write>:
__libc_write():
  4077a0:	3c1c0000 	lui	gp,0x0
  4077a4:	279c53a0 	addiu	gp,gp,21408
  4077a8:	0399e021 	addu	gp,gp,t9
  4077ac:	27bdffd0 	addiu	sp,sp,-48
  4077b0:	afbc0010 	sw	gp,16(sp)
  4077b4:	afb1001c 	sw	s1,28(sp)
  4077b8:	afb00018 	sw	s0,24(sp)
  4077bc:	afbf0028 	sw	ra,40(sp)
  4077c0:	afbc0024 	sw	gp,36(sp)
  4077c4:	afb20020 	sw	s2,32(sp)
  4077c8:	00808821 	move	s1,a0
  4077cc:	00a08021 	move	s0,a1
  4077d0:	00c01821 	move	v1,a2
  4077d4:	02202021 	move	a0,s1
  4077d8:	02002821 	move	a1,s0
  4077dc:	00603021 	move	a2,v1
  4077e0:	24020fa4 	li	v0,4004
  4077e4:	0000000c 	syscall
  4077e8:	00408021 	move	s0,v0
  4077ec:	00e09021 	move	s2,a3
  4077f0:	12400008 	beqz	s2,407814 <__libc_write+0x74>
  4077f4:	02001021 	move	v0,s0
  4077f8:	8f9900a8 	lw	t9,168(gp)
  4077fc:	00000000 	nop
  407800:	0320f809 	jalr	t9
  407804:	00000000 	nop
  407808:	8fbc0010 	lw	gp,16(sp)
  40780c:	ac500000 	sw	s0,0(v0)
  407810:	2402ffff 	li	v0,-1
  407814:	8fbf0028 	lw	ra,40(sp)
  407818:	8fb20020 	lw	s2,32(sp)
  40781c:	8fb1001c 	lw	s1,28(sp)
  407820:	8fb00018 	lw	s0,24(sp)
  407824:	03e00008 	jr	ra
  407828:	27bd0030 	addiu	sp,sp,48
  40782c:	00000000 	nop

00407830 <__libc_open>:
open():
  407830:	3c1c0000 	lui	gp,0x0
  407834:	279c5310 	addiu	gp,gp,21264
  407838:	0399e021 	addu	gp,gp,t9
  40783c:	27bdffd0 	addiu	sp,sp,-48
  407840:	afbc0010 	sw	gp,16(sp)
  407844:	afb1001c 	sw	s1,28(sp)
  407848:	afb00018 	sw	s0,24(sp)
  40784c:	afbf0028 	sw	ra,40(sp)
  407850:	afbc0024 	sw	gp,36(sp)
  407854:	afb20020 	sw	s2,32(sp)
  407858:	00808821 	move	s1,a0
  40785c:	00a08021 	move	s0,a1
  407860:	00c01821 	move	v1,a2
  407864:	02202021 	move	a0,s1
  407868:	02002821 	move	a1,s0
  40786c:	00603021 	move	a2,v1
  407870:	24020fa5 	li	v0,4005
  407874:	0000000c 	syscall
  407878:	00408021 	move	s0,v0
  40787c:	00e09021 	move	s2,a3
  407880:	12400008 	beqz	s2,4078a4 <__libc_open+0x74>
  407884:	02001021 	move	v0,s0
  407888:	8f9900a8 	lw	t9,168(gp)
  40788c:	00000000 	nop
  407890:	0320f809 	jalr	t9
  407894:	00000000 	nop
  407898:	8fbc0010 	lw	gp,16(sp)
  40789c:	ac500000 	sw	s0,0(v0)
  4078a0:	2402ffff 	li	v0,-1
  4078a4:	8fbf0028 	lw	ra,40(sp)
  4078a8:	8fb20020 	lw	s2,32(sp)
  4078ac:	8fb1001c 	lw	s1,28(sp)
  4078b0:	8fb00018 	lw	s0,24(sp)
  4078b4:	03e00008 	jr	ra
  4078b8:	27bd0030 	addiu	sp,sp,48
  4078bc:	00000000 	nop

004078c0 <__libc_close>:
close():
  4078c0:	3c1c0000 	lui	gp,0x0
  4078c4:	279c5280 	addiu	gp,gp,21120
  4078c8:	0399e021 	addu	gp,gp,t9
  4078cc:	27bdffd8 	addiu	sp,sp,-40
  4078d0:	afbc0010 	sw	gp,16(sp)
  4078d4:	afbf0020 	sw	ra,32(sp)
  4078d8:	afbc001c 	sw	gp,28(sp)
  4078dc:	afb00018 	sw	s0,24(sp)
  4078e0:	00801821 	move	v1,a0
  4078e4:	00602021 	move	a0,v1
  4078e8:	24020fa6 	li	v0,4006
  4078ec:	0000000c 	syscall
  4078f0:	00408021 	move	s0,v0
  4078f4:	00e02821 	move	a1,a3
  4078f8:	10a00008 	beqz	a1,40791c <__libc_close+0x5c>
  4078fc:	02001021 	move	v0,s0
  407900:	8f9900a8 	lw	t9,168(gp)
  407904:	00000000 	nop
  407908:	0320f809 	jalr	t9
  40790c:	00000000 	nop
  407910:	8fbc0010 	lw	gp,16(sp)
  407914:	ac500000 	sw	s0,0(v0)
  407918:	2402ffff 	li	v0,-1
  40791c:	8fbf0020 	lw	ra,32(sp)
  407920:	8fb00018 	lw	s0,24(sp)
  407924:	03e00008 	jr	ra
  407928:	27bd0028 	addiu	sp,sp,40
  40792c:	00000000 	nop

00407930 <chmod>:
chmod():
  407930:	3c1c0000 	lui	gp,0x0
  407934:	279c5210 	addiu	gp,gp,21008
  407938:	0399e021 	addu	gp,gp,t9
  40793c:	27bdffd8 	addiu	sp,sp,-40
  407940:	afbc0010 	sw	gp,16(sp)
  407944:	afbf0024 	sw	ra,36(sp)
  407948:	afbc0020 	sw	gp,32(sp)
  40794c:	afb1001c 	sw	s1,28(sp)
  407950:	afb00018 	sw	s0,24(sp)
  407954:	00801821 	move	v1,a0
  407958:	00a03021 	move	a2,a1
  40795c:	00602021 	move	a0,v1
  407960:	00c02821 	move	a1,a2
  407964:	24020faf 	li	v0,4015
  407968:	0000000c 	syscall
  40796c:	00408821 	move	s1,v0
  407970:	00e08021 	move	s0,a3
  407974:	12000008 	beqz	s0,407998 <chmod+0x68>
  407978:	02201021 	move	v0,s1
  40797c:	8f9900a8 	lw	t9,168(gp)
  407980:	00000000 	nop
  407984:	0320f809 	jalr	t9
  407988:	00000000 	nop
  40798c:	8fbc0010 	lw	gp,16(sp)
  407990:	ac510000 	sw	s1,0(v0)
  407994:	2402ffff 	li	v0,-1
  407998:	8fbf0024 	lw	ra,36(sp)
  40799c:	8fb1001c 	lw	s1,28(sp)
  4079a0:	8fb00018 	lw	s0,24(sp)
  4079a4:	03e00008 	jr	ra
  4079a8:	27bd0028 	addiu	sp,sp,40
  4079ac:	00000000 	nop

004079b0 <_ioctl>:
_ioctl():
  4079b0:	3c1c0000 	lui	gp,0x0
  4079b4:	279c5190 	addiu	gp,gp,20880
  4079b8:	0399e021 	addu	gp,gp,t9
  4079bc:	27bdffd0 	addiu	sp,sp,-48
  4079c0:	afbc0010 	sw	gp,16(sp)
  4079c4:	afb1001c 	sw	s1,28(sp)
  4079c8:	afb00018 	sw	s0,24(sp)
  4079cc:	afbf0028 	sw	ra,40(sp)
  4079d0:	afbc0024 	sw	gp,36(sp)
  4079d4:	afb20020 	sw	s2,32(sp)
  4079d8:	00808821 	move	s1,a0
  4079dc:	00a08021 	move	s0,a1
  4079e0:	00c01821 	move	v1,a2
  4079e4:	02202021 	move	a0,s1
  4079e8:	02002821 	move	a1,s0
  4079ec:	00603021 	move	a2,v1
  4079f0:	24020fd6 	li	v0,4054
  4079f4:	0000000c 	syscall
  4079f8:	00408021 	move	s0,v0
  4079fc:	00e09021 	move	s2,a3
  407a00:	12400008 	beqz	s2,407a24 <_ioctl+0x74>
  407a04:	02001021 	move	v0,s0
  407a08:	8f9900a8 	lw	t9,168(gp)
  407a0c:	00000000 	nop
  407a10:	0320f809 	jalr	t9
  407a14:	00000000 	nop
  407a18:	8fbc0010 	lw	gp,16(sp)
  407a1c:	ac500000 	sw	s0,0(v0)
  407a20:	2402ffff 	li	v0,-1
  407a24:	8fbf0028 	lw	ra,40(sp)
  407a28:	8fb20020 	lw	s2,32(sp)
  407a2c:	8fb1001c 	lw	s1,28(sp)
  407a30:	8fb00018 	lw	s0,24(sp)
  407a34:	03e00008 	jr	ra
  407a38:	27bd0030 	addiu	sp,sp,48

00407a3c <ioctl>:
ioctl():
  407a3c:	3c1c0000 	lui	gp,0x0
  407a40:	279c5104 	addiu	gp,gp,20740
  407a44:	0399e021 	addu	gp,gp,t9
  407a48:	27bdffe0 	addiu	sp,sp,-32
  407a4c:	afbc0010 	sw	gp,16(sp)
  407a50:	afa60028 	sw	a2,40(sp)
  407a54:	8fa60028 	lw	a2,40(sp)
  407a58:	afbf001c 	sw	ra,28(sp)
  407a5c:	afa50024 	sw	a1,36(sp)
  407a60:	afa7002c 	sw	a3,44(sp)
  407a64:	afbc0018 	sw	gp,24(sp)
  407a68:	8f990094 	lw	t9,148(gp)
  407a6c:	00000000 	nop
  407a70:	0320f809 	jalr	t9
  407a74:	00000000 	nop
  407a78:	8fbc0010 	lw	gp,16(sp)
  407a7c:	8fbf001c 	lw	ra,28(sp)
  407a80:	00000000 	nop
  407a84:	03e00008 	jr	ra
  407a88:	27bd0020 	addiu	sp,sp,32
  407a8c:	00000000 	nop

00407a90 <dup2>:
dup2():
  407a90:	3c1c0000 	lui	gp,0x0
  407a94:	279c50b0 	addiu	gp,gp,20656
  407a98:	0399e021 	addu	gp,gp,t9
  407a9c:	27bdffd8 	addiu	sp,sp,-40
  407aa0:	afbc0010 	sw	gp,16(sp)
  407aa4:	afbf0024 	sw	ra,36(sp)
  407aa8:	afbc0020 	sw	gp,32(sp)
  407aac:	afb1001c 	sw	s1,28(sp)
  407ab0:	afb00018 	sw	s0,24(sp)
  407ab4:	00801821 	move	v1,a0
  407ab8:	00a03021 	move	a2,a1
  407abc:	00602021 	move	a0,v1
  407ac0:	00c02821 	move	a1,a2
  407ac4:	24020fdf 	li	v0,4063
  407ac8:	0000000c 	syscall
  407acc:	00408821 	move	s1,v0
  407ad0:	00e08021 	move	s0,a3
  407ad4:	12000008 	beqz	s0,407af8 <dup2+0x68>
  407ad8:	02201021 	move	v0,s1
  407adc:	8f9900a8 	lw	t9,168(gp)
  407ae0:	00000000 	nop
  407ae4:	0320f809 	jalr	t9
  407ae8:	00000000 	nop
  407aec:	8fbc0010 	lw	gp,16(sp)
  407af0:	ac510000 	sw	s1,0(v0)
  407af4:	2402ffff 	li	v0,-1
  407af8:	8fbf0024 	lw	ra,36(sp)
  407afc:	8fb1001c 	lw	s1,28(sp)
  407b00:	8fb00018 	lw	s0,24(sp)
  407b04:	03e00008 	jr	ra
  407b08:	27bd0028 	addiu	sp,sp,40
  407b0c:	00000000 	nop

00407b10 <setsid>:
setsid():
  407b10:	3c1c0000 	lui	gp,0x0
  407b14:	279c5030 	addiu	gp,gp,20528
  407b18:	0399e021 	addu	gp,gp,t9
  407b1c:	27bdffd8 	addiu	sp,sp,-40
  407b20:	afbc0010 	sw	gp,16(sp)
  407b24:	afbf0020 	sw	ra,32(sp)
  407b28:	afbc001c 	sw	gp,28(sp)
  407b2c:	afb00018 	sw	s0,24(sp)
  407b30:	24020fe2 	li	v0,4066
  407b34:	0000000c 	syscall
  407b38:	00408021 	move	s0,v0
  407b3c:	00e01821 	move	v1,a3
  407b40:	10600008 	beqz	v1,407b64 <setsid+0x54>
  407b44:	02001021 	move	v0,s0
  407b48:	8f9900a8 	lw	t9,168(gp)
  407b4c:	00000000 	nop
  407b50:	0320f809 	jalr	t9
  407b54:	00000000 	nop
  407b58:	8fbc0010 	lw	gp,16(sp)
  407b5c:	ac500000 	sw	s0,0(v0)
  407b60:	2402ffff 	li	v0,-1
  407b64:	8fbf0020 	lw	ra,32(sp)
  407b68:	8fb00018 	lw	s0,24(sp)
  407b6c:	03e00008 	jr	ra
  407b70:	27bd0028 	addiu	sp,sp,40
	...

00407b80 <mmap>:
mmap():
  407b80:	3c1c0000 	lui	gp,0x0
  407b84:	279c4fc0 	addiu	gp,gp,20416
  407b88:	0399e021 	addu	gp,gp,t9
  407b8c:	27bdffc0 	addiu	sp,sp,-64
  407b90:	afbc0010 	sw	gp,16(sp)
  407b94:	8fa20050 	lw	v0,80(sp)
  407b98:	afb3002c 	sw	s3,44(sp)
  407b9c:	afb20028 	sw	s2,40(sp)
  407ba0:	afb10024 	sw	s1,36(sp)
  407ba4:	afb00020 	sw	s0,32(sp)
  407ba8:	afbf0038 	sw	ra,56(sp)
  407bac:	afbc0034 	sw	gp,52(sp)
  407bb0:	afb40030 	sw	s4,48(sp)
  407bb4:	00809821 	move	s3,a0
  407bb8:	afa20018 	sw	v0,24(sp)
  407bbc:	00a09021 	move	s2,a1
  407bc0:	00c08821 	move	s1,a2
  407bc4:	00e08021 	move	s0,a3
  407bc8:	02602021 	move	a0,s3
  407bcc:	02402821 	move	a1,s2
  407bd0:	02203021 	move	a2,s1
  407bd4:	8fa20018 	lw	v0,24(sp)
  407bd8:	8fa30054 	lw	v1,84(sp)
  407bdc:	02003821 	move	a3,s0
  407be0:	27bdffe8 	addiu	sp,sp,-24
  407be4:	afa20010 	sw	v0,16(sp)
  407be8:	afa30014 	sw	v1,20(sp)
  407bec:	24020ffa 	li	v0,4090
  407bf0:	0000000c 	syscall
  407bf4:	00408021 	move	s0,v0
  407bf8:	00e0a021 	move	s4,a3
  407bfc:	27bd0018 	addiu	sp,sp,24
  407c00:	12800008 	beqz	s4,407c24 <mmap+0xa4>
  407c04:	02001021 	move	v0,s0
  407c08:	8f9900a8 	lw	t9,168(gp)
  407c0c:	00000000 	nop
  407c10:	0320f809 	jalr	t9
  407c14:	00000000 	nop
  407c18:	8fbc0010 	lw	gp,16(sp)
  407c1c:	ac500000 	sw	s0,0(v0)
  407c20:	2402ffff 	li	v0,-1
  407c24:	8fbf0038 	lw	ra,56(sp)
  407c28:	8fb40030 	lw	s4,48(sp)
  407c2c:	8fb3002c 	lw	s3,44(sp)
  407c30:	8fb20028 	lw	s2,40(sp)
  407c34:	8fb10024 	lw	s1,36(sp)
  407c38:	8fb00020 	lw	s0,32(sp)
  407c3c:	03e00008 	jr	ra
  407c40:	27bd0040 	addiu	sp,sp,64
	...

00407c50 <munmap>:
munmap():
  407c50:	3c1c0000 	lui	gp,0x0
  407c54:	279c4ef0 	addiu	gp,gp,20208
  407c58:	0399e021 	addu	gp,gp,t9
  407c5c:	27bdffd8 	addiu	sp,sp,-40
  407c60:	afbc0010 	sw	gp,16(sp)
  407c64:	afbf0024 	sw	ra,36(sp)
  407c68:	afbc0020 	sw	gp,32(sp)
  407c6c:	afb1001c 	sw	s1,28(sp)
  407c70:	afb00018 	sw	s0,24(sp)
  407c74:	00801821 	move	v1,a0
  407c78:	00a03021 	move	a2,a1
  407c7c:	00602021 	move	a0,v1
  407c80:	00c02821 	move	a1,a2
  407c84:	24020ffb 	li	v0,4091
  407c88:	0000000c 	syscall
  407c8c:	00408821 	move	s1,v0
  407c90:	00e08021 	move	s0,a3
  407c94:	12000008 	beqz	s0,407cb8 <munmap+0x68>
  407c98:	02201021 	move	v0,s1
  407c9c:	8f9900a8 	lw	t9,168(gp)
  407ca0:	00000000 	nop
  407ca4:	0320f809 	jalr	t9
  407ca8:	00000000 	nop
  407cac:	8fbc0010 	lw	gp,16(sp)
  407cb0:	ac510000 	sw	s1,0(v0)
  407cb4:	2402ffff 	li	v0,-1
  407cb8:	8fbf0024 	lw	ra,36(sp)
  407cbc:	8fb1001c 	lw	s1,28(sp)
  407cc0:	8fb00018 	lw	s0,24(sp)
  407cc4:	03e00008 	jr	ra
  407cc8:	27bd0028 	addiu	sp,sp,40
  407ccc:	00000000 	nop

00407cd0 <stat>:
stat():
  407cd0:	3c1c0000 	lui	gp,0x0
  407cd4:	279c4e70 	addiu	gp,gp,20080
  407cd8:	0399e021 	addu	gp,gp,t9
  407cdc:	27bdffd8 	addiu	sp,sp,-40
  407ce0:	afbc0010 	sw	gp,16(sp)
  407ce4:	afbf0024 	sw	ra,36(sp)
  407ce8:	afbc0020 	sw	gp,32(sp)
  407cec:	afb1001c 	sw	s1,28(sp)
  407cf0:	afb00018 	sw	s0,24(sp)
  407cf4:	00801821 	move	v1,a0
  407cf8:	00a03021 	move	a2,a1
  407cfc:	00602021 	move	a0,v1
  407d00:	00c02821 	move	a1,a2
  407d04:	2402100a 	li	v0,4106
  407d08:	0000000c 	syscall
  407d0c:	00408821 	move	s1,v0
  407d10:	00e08021 	move	s0,a3
  407d14:	12000008 	beqz	s0,407d38 <stat+0x68>
  407d18:	02201021 	move	v0,s1
  407d1c:	8f9900a8 	lw	t9,168(gp)
  407d20:	00000000 	nop
  407d24:	0320f809 	jalr	t9
  407d28:	00000000 	nop
  407d2c:	8fbc0010 	lw	gp,16(sp)
  407d30:	ac510000 	sw	s1,0(v0)
  407d34:	2402ffff 	li	v0,-1
  407d38:	8fbf0024 	lw	ra,36(sp)
  407d3c:	8fb1001c 	lw	s1,28(sp)
  407d40:	8fb00018 	lw	s0,24(sp)
  407d44:	03e00008 	jr	ra
  407d48:	27bd0028 	addiu	sp,sp,40
  407d4c:	00000000 	nop

00407d50 <_newselect>:
_newselect():
  407d50:	3c1c0000 	lui	gp,0x0
  407d54:	279c4df0 	addiu	gp,gp,19952
  407d58:	0399e021 	addu	gp,gp,t9
  407d5c:	27bdffc8 	addiu	sp,sp,-56
  407d60:	afbc0010 	sw	gp,16(sp)
  407d64:	8fa20048 	lw	v0,72(sp)
  407d68:	afb20028 	sw	s2,40(sp)
  407d6c:	afb10024 	sw	s1,36(sp)
  407d70:	afb00020 	sw	s0,32(sp)
  407d74:	afbf0034 	sw	ra,52(sp)
  407d78:	afbc0030 	sw	gp,48(sp)
  407d7c:	afb3002c 	sw	s3,44(sp)
  407d80:	00809021 	move	s2,a0
  407d84:	afa20018 	sw	v0,24(sp)
  407d88:	00a08821 	move	s1,a1
  407d8c:	00c08021 	move	s0,a2
  407d90:	00e01821 	move	v1,a3
  407d94:	02402021 	move	a0,s2
  407d98:	02202821 	move	a1,s1
  407d9c:	02003021 	move	a2,s0
  407da0:	8fa20018 	lw	v0,24(sp)
  407da4:	00603821 	move	a3,v1
  407da8:	27bdffe8 	addiu	sp,sp,-24
  407dac:	afa20010 	sw	v0,16(sp)
  407db0:	2402102e 	li	v0,4142
  407db4:	0000000c 	syscall
  407db8:	00408021 	move	s0,v0
  407dbc:	00e09821 	move	s3,a3
  407dc0:	27bd0018 	addiu	sp,sp,24
  407dc4:	12600008 	beqz	s3,407de8 <_newselect+0x98>
  407dc8:	02001021 	move	v0,s0
  407dcc:	8f9900a8 	lw	t9,168(gp)
  407dd0:	00000000 	nop
  407dd4:	0320f809 	jalr	t9
  407dd8:	00000000 	nop
  407ddc:	8fbc0010 	lw	gp,16(sp)
  407de0:	ac500000 	sw	s0,0(v0)
  407de4:	2402ffff 	li	v0,-1
  407de8:	8fbf0034 	lw	ra,52(sp)
  407dec:	8fb3002c 	lw	s3,44(sp)
  407df0:	8fb20028 	lw	s2,40(sp)
  407df4:	8fb10024 	lw	s1,36(sp)
  407df8:	8fb00020 	lw	s0,32(sp)
  407dfc:	03e00008 	jr	ra
  407e00:	27bd0038 	addiu	sp,sp,56
	...

00407e10 <chown>:
chown():
  407e10:	3c1c0000 	lui	gp,0x0
  407e14:	279c4d30 	addiu	gp,gp,19760
  407e18:	0399e021 	addu	gp,gp,t9
  407e1c:	27bdffd0 	addiu	sp,sp,-48
  407e20:	afbc0010 	sw	gp,16(sp)
  407e24:	afb1001c 	sw	s1,28(sp)
  407e28:	afb00018 	sw	s0,24(sp)
  407e2c:	afbf0028 	sw	ra,40(sp)
  407e30:	afbc0024 	sw	gp,36(sp)
  407e34:	afb20020 	sw	s2,32(sp)
  407e38:	00808821 	move	s1,a0
  407e3c:	00a08021 	move	s0,a1
  407e40:	00c01821 	move	v1,a2
  407e44:	02202021 	move	a0,s1
  407e48:	02002821 	move	a1,s0
  407e4c:	00603021 	move	a2,v1
  407e50:	2402106a 	li	v0,4202
  407e54:	0000000c 	syscall
  407e58:	00408021 	move	s0,v0
  407e5c:	00e09021 	move	s2,a3
  407e60:	12400008 	beqz	s2,407e84 <chown+0x74>
  407e64:	02001021 	move	v0,s0
  407e68:	8f9900a8 	lw	t9,168(gp)
  407e6c:	00000000 	nop
  407e70:	0320f809 	jalr	t9
  407e74:	00000000 	nop
  407e78:	8fbc0010 	lw	gp,16(sp)
  407e7c:	ac500000 	sw	s0,0(v0)
  407e80:	2402ffff 	li	v0,-1
  407e84:	8fbf0028 	lw	ra,40(sp)
  407e88:	8fb20020 	lw	s2,32(sp)
  407e8c:	8fb1001c 	lw	s1,28(sp)
  407e90:	8fb00018 	lw	s0,24(sp)
  407e94:	03e00008 	jr	ra
  407e98:	27bd0030 	addiu	sp,sp,48
  407e9c:	00000000 	nop

00407ea0 <fork>:
vfork():
  407ea0:	24020fa2 	li	v0,4002
  407ea4:	0000000c 	syscall
  407ea8:	8f8b0340 	lw	t3,832(gp)
  407eac:	10e00004 	beqz	a3,407ec0 <fork+0x20>
  407eb0:	00000000 	nop
  407eb4:	00022823 	negu	a1,v0
  407eb8:	ad650000 	sw	a1,0(t3)
  407ebc:	2402ffff 	li	v0,-1
  407ec0:	03e00008 	jr	ra
  407ec4:	00000000 	nop
	...

00407ed0 <execlp>:
execlp():
  407ed0:	3c1c0000 	lui	gp,0x0
  407ed4:	279c4c70 	addiu	gp,gp,19568
  407ed8:	0399e021 	addu	gp,gp,t9
  407edc:	27bdff98 	addiu	sp,sp,-104
  407ee0:	afbc0010 	sw	gp,16(sp)
  407ee4:	afbe005c 	sw	s8,92(sp)
  407ee8:	03a0f021 	move	s8,sp
  407eec:	afa70074 	sw	a3,116(sp)
  407ef0:	27c70070 	addiu	a3,s8,112
  407ef4:	afa60070 	sw	a2,112(sp)
  407ef8:	afa5006c 	sw	a1,108(sp)
  407efc:	afbf0060 	sw	ra,96(sp)
  407f00:	afbc0058 	sw	gp,88(sp)
  407f04:	00a05021 	move	t2,a1
  407f08:	24060001 	li	a2,1
  407f0c:	00e04821 	move	t1,a3
  407f10:	2408fffc 	li	t0,-4
  407f14:	24e20003 	addiu	v0,a3,3
  407f18:	00483824 	and	a3,v0,t0
  407f1c:	8ce20000 	lw	v0,0(a3)
  407f20:	24c60001 	addiu	a2,a2,1
  407f24:	1440fffb 	bnez	v0,407f14 <execlp+0x44>
  407f28:	24e70004 	addiu	a3,a3,4
  407f2c:	28c20011 	slti	v0,a2,17
  407f30:	14400007 	bnez	v0,407f50 <execlp+0x80>
  407f34:	27c50018 	addiu	a1,s8,24
  407f38:	00061080 	sll	v0,a2,0x2
  407f3c:	24420007 	addiu	v0,v0,7
  407f40:	000210c2 	srl	v0,v0,0x3
  407f44:	000210c0 	sll	v0,v0,0x3
  407f48:	03a2e823 	subu	sp,sp,v0
  407f4c:	27a50010 	addiu	a1,sp,16
  407f50:	acaa0000 	sw	t2,0(a1)
  407f54:	01203821 	move	a3,t1
  407f58:	2408fffc 	li	t0,-4
  407f5c:	24a60004 	addiu	a2,a1,4
  407f60:	24e20003 	addiu	v0,a3,3
  407f64:	00483824 	and	a3,v0,t0
  407f68:	8ce20000 	lw	v0,0(a3)
  407f6c:	24e70004 	addiu	a3,a3,4
  407f70:	acc20000 	sw	v0,0(a2)
  407f74:	1440fffa 	bnez	v0,407f60 <execlp+0x90>
  407f78:	24c60004 	addiu	a2,a2,4
  407f7c:	8f86029c 	lw	a2,668(gp)
  407f80:	00000000 	nop
  407f84:	8cc60000 	lw	a2,0(a2)
  407f88:	8f9901c8 	lw	t9,456(gp)
  407f8c:	00000000 	nop
  407f90:	0320f809 	jalr	t9
  407f94:	00000000 	nop
  407f98:	8fdc0010 	lw	gp,16(s8)
  407f9c:	03c0e821 	move	sp,s8
  407fa0:	8fbf0060 	lw	ra,96(sp)
  407fa4:	8fbe005c 	lw	s8,92(sp)
  407fa8:	03e00008 	jr	ra
  407fac:	27bd0068 	addiu	sp,sp,104

00407fb0 <execvep>:
execvep():
  407fb0:	3c1c0000 	lui	gp,0x0
  407fb4:	279c4b90 	addiu	gp,gp,19344
  407fb8:	0399e021 	addu	gp,gp,t9
  407fbc:	27bdefc8 	addiu	sp,sp,-4152
  407fc0:	afbc0010 	sw	gp,16(sp)
  407fc4:	afb5102c 	sw	s5,4140(sp)
  407fc8:	afb41028 	sw	s4,4136(sp)
  407fcc:	afb31024 	sw	s3,4132(sp)
  407fd0:	00a0a821 	move	s5,a1
  407fd4:	afbf1034 	sw	ra,4148(sp)
  407fd8:	afbc1030 	sw	gp,4144(sp)
  407fdc:	afb21020 	sw	s2,4128(sp)
  407fe0:	afb1101c 	sw	s1,4124(sp)
  407fe4:	afb01018 	sw	s0,4120(sp)
  407fe8:	2405002f 	li	a1,47
  407fec:	00c0a021 	move	s4,a2
  407ff0:	00809821 	move	s3,a0
  407ff4:	8f990050 	lw	t9,80(gp)
  407ff8:	00000000 	nop
  407ffc:	0320f809 	jalr	t9
  408000:	00000000 	nop
  408004:	8fbc0010 	lw	gp,16(sp)
  408008:	10400013 	beqz	v0,408058 <execvep+0xa8>
  40800c:	02602021 	move	a0,s3
  408010:	02a02821 	move	a1,s5
  408014:	02803021 	move	a2,s4
  408018:	8f990330 	lw	t9,816(gp)
  40801c:	00000000 	nop
  408020:	0320f809 	jalr	t9
  408024:	00000000 	nop
  408028:	8fbc0010 	lw	gp,16(sp)
  40802c:	00402021 	move	a0,v0
  408030:	8fbf1034 	lw	ra,4148(sp)
  408034:	8fb5102c 	lw	s5,4140(sp)
  408038:	8fb41028 	lw	s4,4136(sp)
  40803c:	8fb31024 	lw	s3,4132(sp)
  408040:	8fb21020 	lw	s2,4128(sp)
  408044:	8fb1101c 	lw	s1,4124(sp)
  408048:	8fb01018 	lw	s0,4120(sp)
  40804c:	00801021 	move	v0,a0
  408050:	03e00008 	jr	ra
  408054:	27bd1038 	addiu	sp,sp,4152
  408058:	8f840008 	lw	a0,8(gp)
  40805c:	00000000 	nop
  408060:	2484e020 	addiu	a0,a0,-8160
  408064:	8f990344 	lw	t9,836(gp)
  408068:	00000000 	nop
  40806c:	0320f809 	jalr	t9
  408070:	00000000 	nop
  408074:	8fbc0010 	lw	gp,16(sp)
  408078:	1040005a 	beqz	v0,4081e4 <execvep+0x234>
  40807c:	00408821 	move	s1,v0
  408080:	82220000 	lb	v0,0(s1)
  408084:	00000000 	nop
  408088:	1040ffe9 	beqz	v0,408030 <execvep+0x80>
  40808c:	2404ffff 	li	a0,-1
  408090:	02202021 	move	a0,s1
  408094:	2405003a 	li	a1,58
  408098:	8f990050 	lw	t9,80(gp)
  40809c:	00000000 	nop
  4080a0:	0320f809 	jalr	t9
  4080a4:	00000000 	nop
  4080a8:	8fbc0010 	lw	gp,16(sp)
  4080ac:	10400044 	beqz	v0,4081c0 <execvep+0x210>
  4080b0:	00409021 	move	s2,v0
  4080b4:	00518023 	subu	s0,v0,s1
  4080b8:	02202821 	move	a1,s1
  4080bc:	27a40018 	addiu	a0,sp,24
  4080c0:	02003021 	move	a2,s0
  4080c4:	8f9901d0 	lw	t9,464(gp)
  4080c8:	00000000 	nop
  4080cc:	0320f809 	jalr	t9
  4080d0:	00000000 	nop
  4080d4:	8fbc0010 	lw	gp,16(sp)
  4080d8:	03b01821 	addu	v1,sp,s0
  4080dc:	a0600018 	sb	zero,24(v1)
  4080e0:	27a40018 	addiu	a0,sp,24
  4080e4:	8f990070 	lw	t9,112(gp)
  4080e8:	00000000 	nop
  4080ec:	0320f809 	jalr	t9
  4080f0:	00000000 	nop
  4080f4:	8fbc0010 	lw	gp,16(sp)
  4080f8:	14400026 	bnez	v0,408194 <execvep+0x1e4>
  4080fc:	00000000 	nop
  408100:	27a40018 	addiu	a0,sp,24
  408104:	02602821 	move	a1,s3
  408108:	8f99021c 	lw	t9,540(gp)
  40810c:	00000000 	nop
  408110:	0320f809 	jalr	t9
  408114:	00000000 	nop
  408118:	8fbc0010 	lw	gp,16(sp)
  40811c:	27a40018 	addiu	a0,sp,24
  408120:	02a02821 	move	a1,s5
  408124:	02803021 	move	a2,s4
  408128:	8f990330 	lw	t9,816(gp)
  40812c:	00000000 	nop
  408130:	0320f809 	jalr	t9
  408134:	00000000 	nop
  408138:	8fbc0010 	lw	gp,16(sp)
  40813c:	00000000 	nop
  408140:	8f9900a8 	lw	t9,168(gp)
  408144:	00000000 	nop
  408148:	0320f809 	jalr	t9
  40814c:	00000000 	nop
  408150:	8fbc0010 	lw	gp,16(sp)
  408154:	8c430000 	lw	v1,0(v0)
  408158:	24020002 	li	v0,2
  40815c:	1462ffb4 	bne	v1,v0,408030 <execvep+0x80>
  408160:	2404ffff 	li	a0,-1
  408164:	12400009 	beqz	s2,40818c <execvep+0x1dc>
  408168:	26510001 	addiu	s1,s2,1
  40816c:	1220ffb0 	beqz	s1,408030 <execvep+0x80>
  408170:	2404ffff 	li	a0,-1
  408174:	82220000 	lb	v0,0(s1)
  408178:	00000000 	nop
  40817c:	1440ffc4 	bnez	v0,408090 <execvep+0xe0>
  408180:	00000000 	nop
  408184:	1000ffaa 	b	408030 <execvep+0x80>
  408188:	00000000 	nop
  40818c:	1000fff7 	b	40816c <execvep+0x1bc>
  408190:	00008821 	move	s1,zero
  408194:	27a40018 	addiu	a0,sp,24
  408198:	8f850008 	lw	a1,8(gp)
  40819c:	00000000 	nop
  4081a0:	24a5e028 	addiu	a1,a1,-8152
  4081a4:	8f99021c 	lw	t9,540(gp)
  4081a8:	00000000 	nop
  4081ac:	0320f809 	jalr	t9
  4081b0:	00000000 	nop
  4081b4:	8fbc0010 	lw	gp,16(sp)
  4081b8:	1000ffd2 	b	408104 <execvep+0x154>
  4081bc:	27a40018 	addiu	a0,sp,24
  4081c0:	02202821 	move	a1,s1
  4081c4:	27a40018 	addiu	a0,sp,24
  4081c8:	8f9903a0 	lw	t9,928(gp)
  4081cc:	00000000 	nop
  4081d0:	0320f809 	jalr	t9
  4081d4:	00000000 	nop
  4081d8:	8fbc0010 	lw	gp,16(sp)
  4081dc:	1000ffc1 	b	4080e4 <execvep+0x134>
  4081e0:	27a40018 	addiu	a0,sp,24
  4081e4:	8f910008 	lw	s1,8(gp)
  4081e8:	00000000 	nop
  4081ec:	2631e02c 	addiu	s1,s1,-8148
  4081f0:	00000000 	nop
  4081f4:	1620ffa2 	bnez	s1,408080 <execvep+0xd0>
  4081f8:	2404ffff 	li	a0,-1
  4081fc:	1000ff8c 	b	408030 <execvep+0x80>
  408200:	00000000 	nop
	...

00408210 <sleep>:
sleep():
  408210:	3c1c0000 	lui	gp,0x0
  408214:	279c4930 	addiu	gp,gp,18736
  408218:	0399e021 	addu	gp,gp,t9
  40821c:	27bdffd0 	addiu	sp,sp,-48
  408220:	afbc0010 	sw	gp,16(sp)
  408224:	afb00020 	sw	s0,32(sp)
  408228:	00808021 	move	s0,a0
  40822c:	27a40018 	addiu	a0,sp,24
  408230:	00802821 	move	a1,a0
  408234:	afbf0028 	sw	ra,40(sp)
  408238:	afb00018 	sw	s0,24(sp)
  40823c:	afbc0024 	sw	gp,36(sp)
  408240:	afa0001c 	sw	zero,28(sp)
  408244:	8f99024c 	lw	t9,588(gp)
  408248:	00000000 	nop
  40824c:	0320f809 	jalr	t9
  408250:	00000000 	nop
  408254:	8fbc0010 	lw	gp,16(sp)
  408258:	8fa30018 	lw	v1,24(sp)
  40825c:	8fbf0028 	lw	ra,40(sp)
  408260:	02038023 	subu	s0,s0,v1
  408264:	02001021 	move	v0,s0
  408268:	8fb00020 	lw	s0,32(sp)
  40826c:	03e00008 	jr	ra
  408270:	27bd0030 	addiu	sp,sp,48
	...

00408280 <isspace>:
isspace():
  408280:	3c1c0000 	lui	gp,0x0
  408284:	279c48c0 	addiu	gp,gp,18624
  408288:	0399e021 	addu	gp,gp,t9
  40828c:	2482fff7 	addiu	v0,a0,-9
  408290:	2c430005 	sltiu	v1,v0,5
  408294:	24020020 	li	v0,32
  408298:	10820003 	beq	a0,v0,4082a8 <isspace+0x28>
  40829c:	00002821 	move	a1,zero
  4082a0:	10600002 	beqz	v1,4082ac <isspace+0x2c>
  4082a4:	00000000 	nop
  4082a8:	24050001 	li	a1,1
  4082ac:	03e00008 	jr	ra
  4082b0:	00a01021 	move	v0,a1
	...

004082c0 <pthread_exit>:
pthread_exit():
  4082c0:	3c1c0000 	lui	gp,0x0
  4082c4:	279c4880 	addiu	gp,gp,18560
  4082c8:	0399e021 	addu	gp,gp,t9
  4082cc:	27bdffe0 	addiu	sp,sp,-32
  4082d0:	afbc0010 	sw	gp,16(sp)
  4082d4:	00002021 	move	a0,zero
  4082d8:	afbf001c 	sw	ra,28(sp)
  4082dc:	afbc0018 	sw	gp,24(sp)
  4082e0:	8f9900a0 	lw	t9,160(gp)
  4082e4:	00000000 	nop
  4082e8:	0320f809 	jalr	t9
  4082ec:	00000000 	nop
  4082f0:	8fbc0010 	lw	gp,16(sp)
  4082f4:	00000000 	nop

004082f8 <__pthread_return_0>:
pthread_attr_getschedparam():
  4082f8:	3c1c0000 	lui	gp,0x0
  4082fc:	279c4848 	addiu	gp,gp,18504
  408300:	0399e021 	addu	gp,gp,t9
  408304:	03e00008 	jr	ra
  408308:	00001021 	move	v0,zero

0040830c <__pthread_return_1>:
__pthread_return_1():
  40830c:	3c1c0000 	lui	gp,0x0
  408310:	279c4834 	addiu	gp,gp,18484
  408314:	0399e021 	addu	gp,gp,t9
  408318:	03e00008 	jr	ra
  40831c:	24020001 	li	v0,1

00408320 <__pthread_return_void>:
__pthread_initialize_minimal():
  408320:	3c1c0000 	lui	gp,0x0
  408324:	279c4820 	addiu	gp,gp,18464
  408328:	0399e021 	addu	gp,gp,t9
  40832c:	03e00008 	jr	ra
  408330:	00000000 	nop
	...

00408340 <fflush>:
fflush():
  408340:	3c1c0000 	lui	gp,0x0
  408344:	279c4800 	addiu	gp,gp,18432
  408348:	0399e021 	addu	gp,gp,t9
  40834c:	27bdffd8 	addiu	sp,sp,-40
  408350:	afbc0010 	sw	gp,16(sp)
  408354:	afb00018 	sw	s0,24(sp)
  408358:	afbf0024 	sw	ra,36(sp)
  40835c:	afbc0020 	sw	gp,32(sp)
  408360:	afb1001c 	sw	s1,28(sp)
  408364:	10800028 	beqz	a0,408408 <fflush+0xc8>
  408368:	00808021 	move	s0,a0
  40836c:	8f820214 	lw	v0,532(gp)
  408370:	00000000 	nop
  408374:	10820024 	beq	a0,v0,408408 <fflush+0xc8>
  408378:	00000000 	nop
  40837c:	8c820048 	lw	v0,72(a0)
  408380:	00000000 	nop
  408384:	10400019 	beqz	v0,4083ec <fflush+0xac>
  408388:	2484004c 	addiu	a0,a0,76
  40838c:	02002021 	move	a0,s0
  408390:	8f9900e0 	lw	t9,224(gp)
  408394:	00000000 	nop
  408398:	0320f809 	jalr	t9
  40839c:	00000000 	nop
  4083a0:	8fbc0010 	lw	gp,16(sp)
  4083a4:	00408821 	move	s1,v0
  4083a8:	8e020048 	lw	v0,72(s0)
  4083ac:	00000000 	nop
  4083b0:	10400007 	beqz	v0,4083d0 <fflush+0x90>
  4083b4:	2604004c 	addiu	a0,s0,76
  4083b8:	02201021 	move	v0,s1
  4083bc:	8fbf0024 	lw	ra,36(sp)
  4083c0:	8fb1001c 	lw	s1,28(sp)
  4083c4:	8fb00018 	lw	s0,24(sp)
  4083c8:	03e00008 	jr	ra
  4083cc:	27bd0028 	addiu	sp,sp,40
  4083d0:	8f990134 	lw	t9,308(gp)
  4083d4:	00000000 	nop
  4083d8:	0320f809 	jalr	t9
  4083dc:	00000000 	nop
  4083e0:	8fbc0010 	lw	gp,16(sp)
  4083e4:	1000fff5 	b	4083bc <fflush+0x7c>
  4083e8:	02201021 	move	v0,s1
  4083ec:	8f9900b4 	lw	t9,180(gp)
  4083f0:	00000000 	nop
  4083f4:	0320f809 	jalr	t9
  4083f8:	00000000 	nop
  4083fc:	8fbc0010 	lw	gp,16(sp)
  408400:	1000ffe3 	b	408390 <fflush+0x50>
  408404:	02002021 	move	a0,s0
  408408:	8f9900e0 	lw	t9,224(gp)
  40840c:	00000000 	nop
  408410:	0320f809 	jalr	t9
  408414:	00000000 	nop
  408418:	8fbc0010 	lw	gp,16(sp)
  40841c:	1000ffe6 	b	4083b8 <fflush+0x78>
  408420:	00408821 	move	s1,v0

00408424 <fflush_unlocked>:
fflush_unlocked():
  408424:	3c1c0000 	lui	gp,0x0
  408428:	279c471c 	addiu	gp,gp,18204
  40842c:	0399e021 	addu	gp,gp,t9
  408430:	27bdffd0 	addiu	sp,sp,-48
  408434:	afbc0010 	sw	gp,16(sp)
  408438:	8f820214 	lw	v0,532(gp)
  40843c:	afb20020 	sw	s2,32(sp)
  408440:	afb1001c 	sw	s1,28(sp)
  408444:	afb00018 	sw	s0,24(sp)
  408448:	afbf0028 	sw	ra,40(sp)
  40844c:	afbc0024 	sw	gp,36(sp)
  408450:	00808021 	move	s0,a0
  408454:	00008821 	move	s1,zero
  408458:	10820050 	beq	a0,v0,40859c <fflush_unlocked+0x178>
  40845c:	24120300 	li	s2,768
  408460:	12000024 	beqz	s0,4084f4 <fflush_unlocked+0xd0>
  408464:	00000000 	nop
  408468:	96030000 	lhu	v1,0(s0)
  40846c:	00000000 	nop
  408470:	30622000 	andi	v0,v1,0x2000
  408474:	14400013 	bnez	v0,4084c4 <fflush_unlocked+0xa0>
  408478:	30620020 	andi	v0,v1,0x20
  40847c:	1040000a 	beqz	v0,4084a8 <fflush_unlocked+0x84>
  408480:	34620008 	ori	v0,v1,0x8
  408484:	a6020000 	sh	v0,0(s0)
  408488:	8f9900a8 	lw	t9,168(gp)
  40848c:	00000000 	nop
  408490:	0320f809 	jalr	t9
  408494:	00000000 	nop
  408498:	8fbc0010 	lw	gp,16(sp)
  40849c:	24030009 	li	v1,9
  4084a0:	ac430000 	sw	v1,0(v0)
  4084a4:	2411ffff 	li	s1,-1
  4084a8:	02201021 	move	v0,s1
  4084ac:	8fbf0028 	lw	ra,40(sp)
  4084b0:	8fb20020 	lw	s2,32(sp)
  4084b4:	8fb1001c 	lw	s1,28(sp)
  4084b8:	8fb00018 	lw	s0,24(sp)
  4084bc:	03e00008 	jr	ra
  4084c0:	27bd0030 	addiu	sp,sp,48
  4084c4:	02003021 	move	a2,s0
  4084c8:	00002021 	move	a0,zero
  4084cc:	00002821 	move	a1,zero
  4084d0:	8f99037c 	lw	t9,892(gp)
  4084d4:	00000000 	nop
  4084d8:	0320f809 	jalr	t9
  4084dc:	00000000 	nop
  4084e0:	8fbc0010 	lw	gp,16(sp)
  4084e4:	1040fff1 	beqz	v0,4084ac <fflush_unlocked+0x88>
  4084e8:	02201021 	move	v0,s1
  4084ec:	1000ffee 	b	4084a8 <fflush_unlocked+0x84>
  4084f0:	2411ffff 	li	s1,-1
  4084f4:	8f840088 	lw	a0,136(gp)
  4084f8:	8f9900b4 	lw	t9,180(gp)
  4084fc:	00000000 	nop
  408500:	0320f809 	jalr	t9
  408504:	00000000 	nop
  408508:	8fbc0010 	lw	gp,16(sp)
  40850c:	00000000 	nop
  408510:	8f900214 	lw	s0,532(gp)
  408514:	00000000 	nop
  408518:	8e100000 	lw	s0,0(s0)
  40851c:	00000000 	nop
  408520:	1200000d 	beqz	s0,408558 <fflush_unlocked+0x134>
  408524:	00000000 	nop
  408528:	96030000 	lhu	v1,0(s0)
  40852c:	00000000 	nop
  408530:	38620200 	xori	v0,v1,0x200
  408534:	02421024 	and	v0,s2,v0
  408538:	10400003 	beqz	v0,408548 <fflush_unlocked+0x124>
  40853c:	30632000 	andi	v1,v1,0x2000
  408540:	1460000d 	bnez	v1,408578 <fflush_unlocked+0x154>
  408544:	02002021 	move	a0,s0
  408548:	8e100010 	lw	s0,16(s0)
  40854c:	00000000 	nop
  408550:	1600fff5 	bnez	s0,408528 <fflush_unlocked+0x104>
  408554:	00000000 	nop
  408558:	8f840088 	lw	a0,136(gp)
  40855c:	8f990134 	lw	t9,308(gp)
  408560:	00000000 	nop
  408564:	0320f809 	jalr	t9
  408568:	00000000 	nop
  40856c:	8fbc0010 	lw	gp,16(sp)
  408570:	1000ffce 	b	4084ac <fflush_unlocked+0x88>
  408574:	02201021 	move	v0,s1
  408578:	8f9902ac 	lw	t9,684(gp)
  40857c:	00000000 	nop
  408580:	0320f809 	jalr	t9
  408584:	00000000 	nop
  408588:	8fbc0010 	lw	gp,16(sp)
  40858c:	1040ffee 	beqz	v0,408548 <fflush_unlocked+0x124>
  408590:	00000000 	nop
  408594:	1000ffec 	b	408548 <fflush_unlocked+0x124>
  408598:	2411ffff 	li	s1,-1
  40859c:	00008021 	move	s0,zero
  4085a0:	1000ffaf 	b	408460 <fflush_unlocked+0x3c>
  4085a4:	24120100 	li	s2,256
	...
  4085b0:	3c1c0000 	lui	gp,0x0
  4085b4:	279c4590 	addiu	gp,gp,17808
  4085b8:	0399e021 	addu	gp,gp,t9
  4085bc:	27bdffc8 	addiu	sp,sp,-56
  4085c0:	afbc0010 	sw	gp,16(sp)
  4085c4:	afb40028 	sw	s4,40(sp)
  4085c8:	afb30024 	sw	s3,36(sp)
  4085cc:	afb20020 	sw	s2,32(sp)
  4085d0:	afb1001c 	sw	s1,28(sp)
  4085d4:	afbf0030 	sw	ra,48(sp)
  4085d8:	afbc002c 	sw	gp,44(sp)
  4085dc:	afb00018 	sw	s0,24(sp)
  4085e0:	00c0a021 	move	s4,a2
  4085e4:	00809821 	move	s3,a0
  4085e8:	00a09021 	move	s2,a1
  4085ec:	10c00011 	beqz	a2,408634 <fflush_unlocked+0x210>
  4085f0:	00c08821 	move	s1,a2
  4085f4:	02402821 	move	a1,s2
  4085f8:	06200023 	bltz	s1,408688 <fflush_unlocked+0x264>
  4085fc:	02208021 	move	s0,s1
  408600:	8e620034 	lw	v0,52(s3)
  408604:	00000000 	nop
  408608:	14400018 	bnez	v0,40866c <fflush_unlocked+0x248>
  40860c:	02003021 	move	a2,s0
  408610:	2402ffff 	li	v0,-1
  408614:	04400010 	bltz	v0,408658 <fflush_unlocked+0x234>
  408618:	0202182a 	slt	v1,s0,v0
  40861c:	10600002 	beqz	v1,408628 <fflush_unlocked+0x204>
  408620:	00000000 	nop
  408624:	02001021 	move	v0,s0
  408628:	02228823 	subu	s1,s1,v0
  40862c:	1620fff1 	bnez	s1,4085f4 <fflush_unlocked+0x1d0>
  408630:	02429021 	addu	s2,s2,v0
  408634:	02911023 	subu	v0,s4,s1
  408638:	8fbf0030 	lw	ra,48(sp)
  40863c:	8fb40028 	lw	s4,40(sp)
  408640:	8fb30024 	lw	s3,36(sp)
  408644:	8fb20020 	lw	s2,32(sp)
  408648:	8fb1001c 	lw	s1,28(sp)
  40864c:	8fb00018 	lw	s0,24(sp)
  408650:	03e00008 	jr	ra
  408654:	27bd0038 	addiu	sp,sp,56
  408658:	96620000 	lhu	v0,0(s3)
  40865c:	00000000 	nop
  408660:	34420008 	ori	v0,v0,0x8
  408664:	1000fff3 	b	408634 <fflush_unlocked+0x210>
  408668:	a6620000 	sh	v0,0(s3)
  40866c:	8e64002c 	lw	a0,44(s3)
  408670:	0040c821 	move	t9,v0
  408674:	0320f809 	jalr	t9
  408678:	00000000 	nop
  40867c:	8fbc0010 	lw	gp,16(sp)
  408680:	1000ffe4 	b	408614 <fflush_unlocked+0x1f0>
  408684:	00000000 	nop
  408688:	3c107fff 	lui	s0,0x7fff
  40868c:	1000ffdc 	b	408600 <fflush_unlocked+0x1dc>
  408690:	3610ffff 	ori	s0,s0,0xffff

00408694 <_stdio_fwrite>:
_stdio_fwrite():
  408694:	3c1c0000 	lui	gp,0x0
  408698:	279c44ac 	addiu	gp,gp,17580
  40869c:	0399e021 	addu	gp,gp,t9
  4086a0:	27bdffc8 	addiu	sp,sp,-56
  4086a4:	afbc0010 	sw	gp,16(sp)
  4086a8:	afb40028 	sw	s4,40(sp)
  4086ac:	afb1001c 	sw	s1,28(sp)
  4086b0:	afb00018 	sw	s0,24(sp)
  4086b4:	afbf0034 	sw	ra,52(sp)
  4086b8:	afbc0030 	sw	gp,48(sp)
  4086bc:	afb5002c 	sw	s5,44(sp)
  4086c0:	afb30024 	sw	s3,36(sp)
  4086c4:	afb20020 	sw	s2,32(sp)
  4086c8:	00c08821 	move	s1,a2
  4086cc:	94c60000 	lhu	a2,0(a2)
  4086d0:	00808021 	move	s0,a0
  4086d4:	30c20020 	andi	v0,a2,0x20
  4086d8:	10400015 	beqz	v0,408730 <_stdio_fwrite+0x9c>
  4086dc:	00a0a021 	move	s4,a1
  4086e0:	34c20008 	ori	v0,a2,0x8
  4086e4:	a6220000 	sh	v0,0(s1)
  4086e8:	8f9900a8 	lw	t9,168(gp)
  4086ec:	00000000 	nop
  4086f0:	0320f809 	jalr	t9
  4086f4:	00000000 	nop
  4086f8:	8fbc0010 	lw	gp,16(sp)
  4086fc:	24030009 	li	v1,9
  408700:	00002021 	move	a0,zero
  408704:	ac430000 	sw	v1,0(v0)
  408708:	8fbf0034 	lw	ra,52(sp)
  40870c:	8fb5002c 	lw	s5,44(sp)
  408710:	8fb40028 	lw	s4,40(sp)
  408714:	8fb30024 	lw	s3,36(sp)
  408718:	8fb20020 	lw	s2,32(sp)
  40871c:	8fb1001c 	lw	s1,28(sp)
  408720:	8fb00018 	lw	s0,24(sp)
  408724:	00801021 	move	v0,a0
  408728:	03e00008 	jr	ra
  40872c:	27bd0038 	addiu	sp,sp,56
  408730:	30c21000 	andi	v0,a2,0x1000
  408734:	104000a2 	beqz	v0,4089c0 <_stdio_fwrite+0x32c>
  408738:	00000000 	nop
  40873c:	8e22001c 	lw	v0,28(s1)
  408740:	8e230020 	lw	v1,32(s1)
  408744:	00000000 	nop
  408748:	0043102b 	sltu	v0,v0,v1
  40874c:	14400003 	bnez	v0,40875c <_stdio_fwrite+0xc8>
  408750:	30c20003 	andi	v0,a2,0x3
  408754:	10400014 	beqz	v0,4087a8 <_stdio_fwrite+0x114>
  408758:	00000000 	nop
  40875c:	30c60400 	andi	a2,a2,0x400
  408760:	2cc60001 	sltiu	a2,a2,1
  408764:	24020002 	li	v0,2
  408768:	00463023 	subu	a2,v0,a2
  40876c:	02202021 	move	a0,s1
  408770:	00002821 	move	a1,zero
  408774:	8f9901fc 	lw	t9,508(gp)
  408778:	00000000 	nop
  40877c:	0320f809 	jalr	t9
  408780:	00000000 	nop
  408784:	8fbc0010 	lw	gp,16(sp)
  408788:	10400006 	beqz	v0,4087a4 <_stdio_fwrite+0x110>
  40878c:	00002021 	move	a0,zero
  408790:	96220000 	lhu	v0,0(s1)
  408794:	00000000 	nop
  408798:	34420008 	ori	v0,v0,0x8
  40879c:	1000ffda 	b	408708 <_stdio_fwrite+0x74>
  4087a0:	a6220000 	sh	v0,0(s1)
  4087a4:	96260000 	lhu	a2,0(s1)
  4087a8:	8e240014 	lw	a0,20(s1)
  4087ac:	00000000 	nop
  4087b0:	ae240020 	sw	a0,32(s1)
  4087b4:	ae24001c 	sw	a0,28(s1)
  4087b8:	ae240024 	sw	a0,36(s1)
  4087bc:	30c2cfff 	andi	v0,a2,0xcfff
  4087c0:	a6220000 	sh	v0,0(s1)
  4087c4:	ae240028 	sw	a0,40(s1)
  4087c8:	0200a821 	move	s5,s0
  4087cc:	12000033 	beqz	s0,40889c <_stdio_fwrite+0x208>
  4087d0:	24060001 	li	a2,1
  4087d4:	8e27001c 	lw	a3,28(s1)
  4087d8:	00000000 	nop
  4087dc:	10e40061 	beq	a3,a0,408964 <_stdio_fwrite+0x2d0>
  4087e0:	00e02821 	move	a1,a3
  4087e4:	8e240018 	lw	a0,24(s1)
  4087e8:	00000000 	nop
  4087ec:	00852023 	subu	a0,a0,a1
  4087f0:	0284102b 	sltu	v0,s4,a0
  4087f4:	10400002 	beqz	v0,408800 <_stdio_fwrite+0x16c>
  4087f8:	02009821 	move	s3,s0
  4087fc:	02802021 	move	a0,s4
  408800:	10800009 	beqz	a0,408828 <_stdio_fwrite+0x194>
  408804:	0284a023 	subu	s4,s4,a0
  408808:	92030000 	lbu	v1,0(s0)
  40880c:	24e20001 	addiu	v0,a3,1
  408810:	2484ffff 	addiu	a0,a0,-1
  408814:	a0e30000 	sb	v1,0(a3)
  408818:	26100001 	addiu	s0,s0,1
  40881c:	ae22001c 	sw	v0,28(s1)
  408820:	1480fff9 	bnez	a0,408808 <_stdio_fwrite+0x174>
  408824:	00403821 	move	a3,v0
  408828:	10c0004b 	beqz	a2,408958 <_stdio_fwrite+0x2c4>
  40882c:	00000000 	nop
  408830:	16800019 	bnez	s4,408898 <_stdio_fwrite+0x204>
  408834:	00000000 	nop
  408838:	96260000 	lhu	a2,0(s1)
  40883c:	00000000 	nop
  408840:	30c20100 	andi	v0,a2,0x100
  408844:	1040000b 	beqz	v0,408874 <_stdio_fwrite+0x1e0>
  408848:	30c20b08 	andi	v0,a2,0xb08
  40884c:	0270102b 	sltu	v0,s3,s0
  408850:	10400007 	beqz	v0,408870 <_stdio_fwrite+0x1dc>
  408854:	2404000a 	li	a0,10
  408858:	92620000 	lbu	v0,0(s3)
  40885c:	26730001 	addiu	s3,s3,1
  408860:	1082000d 	beq	a0,v0,408898 <_stdio_fwrite+0x204>
  408864:	0270182b 	sltu	v1,s3,s0
  408868:	1460fffb 	bnez	v1,408858 <_stdio_fwrite+0x1c4>
  40886c:	00000000 	nop
  408870:	30c20b08 	andi	v0,a2,0xb08
  408874:	14400005 	bnez	v0,40888c <_stdio_fwrite+0x1f8>
  408878:	34c22000 	ori	v0,a2,0x2000
  40887c:	8e220018 	lw	v0,24(s1)
  408880:	00000000 	nop
  408884:	ae220028 	sw	v0,40(s1)
  408888:	34c22000 	ori	v0,a2,0x2000
  40888c:	a6220000 	sh	v0,0(s1)
  408890:	1000ff9d 	b	408708 <_stdio_fwrite+0x74>
  408894:	02152023 	subu	a0,s0,s5
  408898:	8e240014 	lw	a0,20(s1)
  40889c:	8e22001c 	lw	v0,28(s1)
  4088a0:	8e23000c 	lw	v1,12(s1)
  4088a4:	00449023 	subu	s2,v0,a0
  4088a8:	2402fffe 	li	v0,-2
  4088ac:	1062001f 	beq	v1,v0,40892c <_stdio_fwrite+0x298>
  4088b0:	00809821 	move	s3,a0
  4088b4:	02403021 	move	a2,s2
  4088b8:	00802821 	move	a1,a0
  4088bc:	02202021 	move	a0,s1
  4088c0:	8f990008 	lw	t9,8(gp)
  4088c4:	00000000 	nop
  4088c8:	273985b0 	addiu	t9,t9,-31312
  4088cc:	00000000 	nop
  4088d0:	0320f809 	jalr	t9
  4088d4:	00000000 	nop
  4088d8:	8fbc0010 	lw	gp,16(sp)
  4088dc:	8e240014 	lw	a0,20(s1)
  4088e0:	02429023 	subu	s2,s2,v0
  4088e4:	00403021 	move	a2,v0
  4088e8:	ae24001c 	sw	a0,28(s1)
  4088ec:	1240000a 	beqz	s2,408918 <_stdio_fwrite+0x284>
  4088f0:	02629821 	addu	s3,s3,v0
  4088f4:	8e22001c 	lw	v0,28(s1)
  4088f8:	92630000 	lbu	v1,0(s3)
  4088fc:	2652ffff 	addiu	s2,s2,-1
  408900:	a0430000 	sb	v1,0(v0)
  408904:	24420001 	addiu	v0,v0,1
  408908:	ae22001c 	sw	v0,28(s1)
  40890c:	1640fff9 	bnez	s2,4088f4 <_stdio_fwrite+0x260>
  408910:	26730001 	addiu	s3,s3,1
  408914:	8e240014 	lw	a0,20(s1)
  408918:	1600ffae 	bnez	s0,4087d4 <_stdio_fwrite+0x140>
  40891c:	00000000 	nop
  408920:	8e22001c 	lw	v0,28(s1)
  408924:	1000ff78 	b	408708 <_stdio_fwrite+0x74>
  408928:	00442023 	subu	a0,v0,a0
  40892c:	96220000 	lhu	v0,0(s1)
  408930:	00000000 	nop
  408934:	34422000 	ori	v0,v0,0x2000
  408938:	12000005 	beqz	s0,408950 <_stdio_fwrite+0x2bc>
  40893c:	a6220000 	sh	v0,0(s1)
  408940:	02151023 	subu	v0,s0,s5
  408944:	00541021 	addu	v0,v0,s4
  408948:	1000ff6f 	b	408708 <_stdio_fwrite+0x74>
  40894c:	00402021 	move	a0,v0
  408950:	1000fffd 	b	408948 <_stdio_fwrite+0x2b4>
  408954:	00001021 	move	v0,zero
  408958:	96260000 	lhu	a2,0(s1)
  40895c:	1000ffc5 	b	408874 <_stdio_fwrite+0x1e0>
  408960:	30c20b08 	andi	v0,a2,0xb08
  408964:	8e240018 	lw	a0,24(s1)
  408968:	00000000 	nop
  40896c:	00871023 	subu	v0,a0,a3
  408970:	0282102b 	sltu	v0,s4,v0
  408974:	1440ff9d 	bnez	v0,4087ec <_stdio_fwrite+0x158>
  408978:	2402fffe 	li	v0,-2
  40897c:	8e23000c 	lw	v1,12(s1)
  408980:	00000000 	nop
  408984:	1062ff9a 	beq	v1,v0,4087f0 <_stdio_fwrite+0x15c>
  408988:	00852023 	subu	a0,a0,a1
  40898c:	02803021 	move	a2,s4
  408990:	02002821 	move	a1,s0
  408994:	02202021 	move	a0,s1
  408998:	8f990008 	lw	t9,8(gp)
  40899c:	00000000 	nop
  4089a0:	273985b0 	addiu	t9,t9,-31312
  4089a4:	00000000 	nop
  4089a8:	0320f809 	jalr	t9
  4089ac:	00000000 	nop
  4089b0:	8fbc0010 	lw	gp,16(sp)
  4089b4:	96260000 	lhu	a2,0(s1)
  4089b8:	1000ffad 	b	408870 <_stdio_fwrite+0x1dc>
  4089bc:	02028021 	addu	s0,s0,v0
  4089c0:	8e240014 	lw	a0,20(s1)
  4089c4:	1000ff7e 	b	4087c0 <_stdio_fwrite+0x12c>
  4089c8:	30c2cfff 	andi	v0,a2,0xcfff
  4089cc:	00000000 	nop

004089d0 <_uintmaxtostr>:
_uintmaxtostr():
  4089d0:	3c1c0000 	lui	gp,0x0
  4089d4:	279c4170 	addiu	gp,gp,16752
  4089d8:	0399e021 	addu	gp,gp,t9
  4089dc:	8fa80010 	lw	t0,16(sp)
  4089e0:	00805821 	move	t3,a0
  4089e4:	8fae0014 	lw	t6,20(sp)
  4089e8:	0500003c 	bltz	t0,408adc <_uintmaxtostr+0x10c>
  4089ec:	00007821 	move	t7,zero
  4089f0:	2402ffff 	li	v0,-1
  4089f4:	0048001b 	divu	zero,v0,t0
  4089f8:	a1600000 	sb	zero,0(t3)
  4089fc:	15000002 	bnez	t0,408a08 <_uintmaxtostr+0x38>
  408a00:	00000000 	nop
  408a04:	0007000d 	break	0x7
  408a08:	00001810 	mfhi	v1
  408a0c:	246c0001 	addiu	t4,v1,1
  408a10:	00001012 	mflo	v0
  408a14:	00006812 	mflo	t5
  408a18:	1188002d 	beq	t4,t0,408ad0 <_uintmaxtostr+0x100>
  408a1c:	00000000 	nop
  408a20:	00061802 	srl	v1,a2,0x0
  408a24:	00605021 	move	t2,v1
  408a28:	00e01821 	move	v1,a3
  408a2c:	0148001b 	divu	zero,t2,t0
  408a30:	15000002 	bnez	t0,408a3c <_uintmaxtostr+0x6c>
  408a34:	00000000 	nop
  408a38:	0007000d 	break	0x7
  408a3c:	256bffff 	addiu	t3,t3,-1
  408a40:	00002810 	mfhi	a1
  408a44:	00003812 	mflo	a3
  408a48:	00e05021 	move	t2,a3
  408a4c:	00000000 	nop
  408a50:	0068001b 	divu	zero,v1,t0
  408a54:	00001810 	mfhi	v1
  408a58:	00002012 	mflo	a0
	...
  408a64:	01850018 	mult	t4,a1
  408a68:	00001012 	mflo	v0
  408a6c:	00621821 	addu	v1,v1,v0
  408a70:	00000000 	nop
  408a74:	0068001b 	divu	zero,v1,t0
  408a78:	00004810 	mfhi	t1
  408a7c:	2d22000a 	sltiu	v0,t1,10
  408a80:	25260030 	addiu	a2,t1,48
  408a84:	00001812 	mflo	v1
	...
  408a90:	01a50018 	mult	t5,a1
  408a94:	00002812 	mflo	a1
  408a98:	00852021 	addu	a0,a0,a1
  408a9c:	14400002 	bnez	v0,408aa8 <_uintmaxtostr+0xd8>
  408aa0:	00831821 	addu	v1,a0,v1
  408aa4:	012e3021 	addu	a2,t1,t6
  408aa8:	00671025 	or	v0,v1,a3
  408aac:	1440ffdf 	bnez	v0,408a2c <_uintmaxtostr+0x5c>
  408ab0:	a1660000 	sb	a2,0(t3)
  408ab4:	11e00004 	beqz	t7,408ac8 <_uintmaxtostr+0xf8>
  408ab8:	00000000 	nop
  408abc:	256bffff 	addiu	t3,t3,-1
  408ac0:	2402002d 	li	v0,45
  408ac4:	a1620000 	sb	v0,0(t3)
  408ac8:	03e00008 	jr	ra
  408acc:	01601021 	move	v0,t3
  408ad0:	244d0001 	addiu	t5,v0,1
  408ad4:	1000ffd2 	b	408a20 <_uintmaxtostr+0x50>
  408ad8:	00006021 	move	t4,zero
  408adc:	04c1ffc4 	bgez	a2,4089f0 <_uintmaxtostr+0x20>
  408ae0:	00084023 	negu	t0,t0
  408ae4:	00073823 	negu	a3,a3
  408ae8:	00063023 	negu	a2,a2
  408aec:	0007102b 	sltu	v0,zero,a3
  408af0:	00c23023 	subu	a2,a2,v0
  408af4:	1000ffbe 	b	4089f0 <_uintmaxtostr+0x20>
  408af8:	240f0001 	li	t7,1
  408afc:	00000000 	nop

00408b00 <_ppfs_init>:
_ppfs_init():
  408b00:	3c1c0000 	lui	gp,0x0
  408b04:	279c4040 	addiu	gp,gp,16448
  408b08:	0399e021 	addu	gp,gp,t9
  408b0c:	27bdffd0 	addiu	sp,sp,-48
  408b10:	afbc0010 	sw	gp,16(sp)
  408b14:	afb20020 	sw	s2,32(sp)
  408b18:	afb00018 	sw	s0,24(sp)
  408b1c:	00a09021 	move	s2,a1
  408b20:	00808021 	move	s0,a0
  408b24:	00002821 	move	a1,zero
  408b28:	240600a8 	li	a2,168
  408b2c:	afb30024 	sw	s3,36(sp)
  408b30:	afbf002c 	sw	ra,44(sp)
  408b34:	afbc0028 	sw	gp,40(sp)
  408b38:	afb1001c 	sw	s1,28(sp)
  408b3c:	8f99017c 	lw	t9,380(gp)
  408b40:	00000000 	nop
  408b44:	0320f809 	jalr	t9
  408b48:	00000000 	nop
  408b4c:	8fbc0010 	lw	gp,16(sp)
  408b50:	8e030018 	lw	v1,24(s0)
  408b54:	26130028 	addiu	s3,s0,40
  408b58:	2463ffff 	addiu	v1,v1,-1
  408b5c:	ae030018 	sw	v1,24(s0)
  408b60:	02601021 	move	v0,s3
  408b64:	2403000a 	li	v1,10
  408b68:	24040008 	li	a0,8
  408b6c:	2463ffff 	addiu	v1,v1,-1
  408b70:	ac440000 	sw	a0,0(v0)
  408b74:	1460fffd 	bnez	v1,408b6c <_ppfs_init+0x6c>
  408b78:	24420004 	addiu	v0,v0,4
  408b7c:	82420000 	lb	v0,0(s2)
  408b80:	92440000 	lbu	a0,0(s2)
  408b84:	1040000b 	beqz	v0,408bb4 <_ppfs_init+0xb4>
  408b88:	02401821 	move	v1,s2
  408b8c:	24110025 	li	s1,37
  408b90:	00041600 	sll	v0,a0,0x18
  408b94:	00022e03 	sra	a1,v0,0x18
  408b98:	10b1001c 	beq	a1,s1,408c0c <_ppfs_init+0x10c>
  408b9c:	00000000 	nop
  408ba0:	24630001 	addiu	v1,v1,1
  408ba4:	90620000 	lbu	v0,0(v1)
  408ba8:	00000000 	nop
  408bac:	1440fff8 	bnez	v0,408b90 <_ppfs_init+0x90>
  408bb0:	00402021 	move	a0,v0
  408bb4:	8e030018 	lw	v1,24(s0)
  408bb8:	ae120000 	sw	s2,0(s0)
  408bbc:	2463ffff 	addiu	v1,v1,-1
  408bc0:	04600009 	bltz	v1,408be8 <_ppfs_init+0xe8>
  408bc4:	02602021 	move	a0,s3
  408bc8:	24060008 	li	a2,8
  408bcc:	8c820000 	lw	v0,0(a0)
  408bd0:	00000000 	nop
  408bd4:	10460005 	beq	v0,a2,408bec <_ppfs_init+0xec>
  408bd8:	2405ffff 	li	a1,-1
  408bdc:	2463ffff 	addiu	v1,v1,-1
  408be0:	0461fffa 	bgez	v1,408bcc <_ppfs_init+0xcc>
  408be4:	24840004 	addiu	a0,a0,4
  408be8:	00002821 	move	a1,zero
  408bec:	8fbf002c 	lw	ra,44(sp)
  408bf0:	8fb30024 	lw	s3,36(sp)
  408bf4:	8fb20020 	lw	s2,32(sp)
  408bf8:	8fb1001c 	lw	s1,28(sp)
  408bfc:	8fb00018 	lw	s0,24(sp)
  408c00:	00a01021 	move	v0,a1
  408c04:	03e00008 	jr	ra
  408c08:	27bd0030 	addiu	sp,sp,48
  408c0c:	24630001 	addiu	v1,v1,1
  408c10:	80620000 	lb	v0,0(v1)
  408c14:	00000000 	nop
  408c18:	1045ffe1 	beq	v0,a1,408ba0 <_ppfs_init+0xa0>
  408c1c:	02002021 	move	a0,s0
  408c20:	ae030000 	sw	v1,0(s0)
  408c24:	8f990060 	lw	t9,96(gp)
  408c28:	00000000 	nop
  408c2c:	0320f809 	jalr	t9
  408c30:	00000000 	nop
  408c34:	8fbc0010 	lw	gp,16(sp)
  408c38:	0440ffec 	bltz	v0,408bec <_ppfs_init+0xec>
  408c3c:	2405ffff 	li	a1,-1
  408c40:	8e030000 	lw	v1,0(s0)
  408c44:	1000ffd7 	b	408ba4 <_ppfs_init+0xa4>
  408c48:	00000000 	nop
  408c4c:	00000000 	nop

00408c50 <_ppfs_prepargs>:
_ppfs_prepargs():
  408c50:	3c1c0000 	lui	gp,0x0
  408c54:	279c3ef0 	addiu	gp,gp,16112
  408c58:	0399e021 	addu	gp,gp,t9
  408c5c:	27bdffd8 	addiu	sp,sp,-40
  408c60:	afbc0010 	sw	gp,16(sp)
  408c64:	afb00018 	sw	s0,24(sp)
  408c68:	afbf0024 	sw	ra,36(sp)
  408c6c:	afbc0020 	sw	gp,32(sp)
  408c70:	afb1001c 	sw	s1,28(sp)
  408c74:	8c910018 	lw	s1,24(a0)
  408c78:	00808021 	move	s0,a0
  408c7c:	1a20000b 	blez	s1,408cac <_ppfs_prepargs+0x5c>
  408c80:	ac850050 	sw	a1,80(a0)
  408c84:	ac91001c 	sw	s1,28(a0)
  408c88:	ac800018 	sw	zero,24(a0)
  408c8c:	ac800004 	sw	zero,4(a0)
  408c90:	ac800008 	sw	zero,8(a0)
  408c94:	8f9900f0 	lw	t9,240(gp)
  408c98:	00000000 	nop
  408c9c:	0320f809 	jalr	t9
  408ca0:	00000000 	nop
  408ca4:	8fbc0010 	lw	gp,16(sp)
  408ca8:	ae110018 	sw	s1,24(s0)
  408cac:	8fbf0024 	lw	ra,36(sp)
  408cb0:	8fb1001c 	lw	s1,28(sp)
  408cb4:	8fb00018 	lw	s0,24(sp)
  408cb8:	03e00008 	jr	ra
  408cbc:	27bd0028 	addiu	sp,sp,40

00408cc0 <_ppfs_setargs>:
_ppfs_setargs():
  408cc0:	3c1c0000 	lui	gp,0x0
  408cc4:	279c3e80 	addiu	gp,gp,16000
  408cc8:	0399e021 	addu	gp,gp,t9
  408ccc:	8c820018 	lw	v0,24(a0)
  408cd0:	00803021 	move	a2,a0
  408cd4:	1440006d 	bnez	v0,408e8c <_ppfs_setargs+0x1cc>
  408cd8:	24870058 	addiu	a3,a0,88
  408cdc:	8c840008 	lw	a0,8(a0)
  408ce0:	3c058000 	lui	a1,0x8000
  408ce4:	1085005e 	beq	a0,a1,408e60 <_ppfs_setargs+0x1a0>
  408ce8:	2403fffc 	li	v1,-4
  408cec:	8cc20004 	lw	v0,4(a2)
  408cf0:	00000000 	nop
  408cf4:	1045004f 	beq	v0,a1,408e34 <_ppfs_setargs+0x174>
  408cf8:	2403fffc 	li	v1,-4
  408cfc:	8cc4001c 	lw	a0,28(a2)
  408d00:	00000000 	nop
  408d04:	1880001f 	blez	a0,408d84 <_ppfs_setargs+0xc4>
  408d08:	00004821 	move	t1,zero
  408d0c:	24c80024 	addiu	t0,a2,36
  408d10:	25080004 	addiu	t0,t0,4
  408d14:	8d030000 	lw	v1,0(t0)
  408d18:	24020007 	li	v0,7
  408d1c:	1062002f 	beq	v1,v0,408ddc <_ppfs_setargs+0x11c>
  408d20:	25290001 	addiu	t1,t1,1
  408d24:	28620008 	slti	v0,v1,8
  408d28:	14400008 	bnez	v0,408d4c <_ppfs_setargs+0x8c>
  408d2c:	24020200 	li	v0,512
  408d30:	10620006 	beq	v1,v0,408d4c <_ppfs_setargs+0x8c>
  408d34:	28620201 	slti	v0,v1,513
  408d38:	10400022 	beqz	v0,408dc4 <_ppfs_setargs+0x104>
  408d3c:	24020800 	li	v0,2048
  408d40:	24020008 	li	v0,8
  408d44:	1062000d 	beq	v1,v0,408d7c <_ppfs_setargs+0xbc>
  408d48:	0124102a 	slt	v0,t1,a0
  408d4c:	8cc20050 	lw	v0,80(a2)
  408d50:	2403fffc 	li	v1,-4
  408d54:	24420003 	addiu	v0,v0,3
  408d58:	00431024 	and	v0,v0,v1
  408d5c:	24440004 	addiu	a0,v0,4
  408d60:	acc40050 	sw	a0,80(a2)
  408d64:	8c430000 	lw	v1,0(v0)
  408d68:	00000000 	nop
  408d6c:	ace30000 	sw	v1,0(a3)
  408d70:	8cc4001c 	lw	a0,28(a2)
  408d74:	24e70008 	addiu	a3,a3,8
  408d78:	0124102a 	slt	v0,t1,a0
  408d7c:	1440ffe4 	bnez	v0,408d10 <_ppfs_setargs+0x50>
  408d80:	00000000 	nop
  408d84:	8cc40008 	lw	a0,8(a2)
  408d88:	00000000 	nop
  408d8c:	04800003 	bltz	a0,408d9c <_ppfs_setargs+0xdc>
  408d90:	2402fffe 	li	v0,-2
  408d94:	03e00008 	jr	ra
  408d98:	00000000 	nop
  408d9c:	8cc30010 	lw	v1,16(a2)
  408da0:	00000000 	nop
  408da4:	34630008 	ori	v1,v1,0x8
  408da8:	00621824 	and	v1,v1,v0
  408dac:	00042023 	negu	a0,a0
  408db0:	24020020 	li	v0,32
  408db4:	acc20014 	sw	v0,20(a2)
  408db8:	acc40008 	sw	a0,8(a2)
  408dbc:	03e00008 	jr	ra
  408dc0:	acc30010 	sw	v1,16(a2)
  408dc4:	10620010 	beq	v1,v0,408e08 <_ppfs_setargs+0x148>
  408dc8:	28620801 	slti	v0,v1,2049
  408dcc:	1440ffdf 	bnez	v0,408d4c <_ppfs_setargs+0x8c>
  408dd0:	24020807 	li	v0,2055
  408dd4:	1462ffdd 	bne	v1,v0,408d4c <_ppfs_setargs+0x8c>
  408dd8:	00000000 	nop
  408ddc:	8cc40050 	lw	a0,80(a2)
  408de0:	2402fff8 	li	v0,-8
  408de4:	24840007 	addiu	a0,a0,7
  408de8:	00822024 	and	a0,a0,v0
  408dec:	24850008 	addiu	a1,a0,8
  408df0:	acc50050 	sw	a1,80(a2)
  408df4:	8c820000 	lw	v0,0(a0)
  408df8:	8c830004 	lw	v1,4(a0)
  408dfc:	ace20000 	sw	v0,0(a3)
  408e00:	1000ffdb 	b	408d70 <_ppfs_setargs+0xb0>
  408e04:	ace30004 	sw	v1,4(a3)
  408e08:	8cc40050 	lw	a0,80(a2)
  408e0c:	2402fff8 	li	v0,-8
  408e10:	24840007 	addiu	a0,a0,7
  408e14:	00822024 	and	a0,a0,v0
  408e18:	24850008 	addiu	a1,a0,8
  408e1c:	acc50050 	sw	a1,80(a2)
  408e20:	8c820000 	lw	v0,0(a0)
  408e24:	8c830004 	lw	v1,4(a0)
  408e28:	ace20000 	sw	v0,0(a3)
  408e2c:	1000ffd0 	b	408d70 <_ppfs_setargs+0xb0>
  408e30:	ace30004 	sw	v1,4(a3)
  408e34:	8cc20050 	lw	v0,80(a2)
  408e38:	00000000 	nop
  408e3c:	24420003 	addiu	v0,v0,3
  408e40:	00431024 	and	v0,v0,v1
  408e44:	24440004 	addiu	a0,v0,4
  408e48:	acc40050 	sw	a0,80(a2)
  408e4c:	8c430000 	lw	v1,0(v0)
  408e50:	00000000 	nop
  408e54:	acc30004 	sw	v1,4(a2)
  408e58:	1000ffa8 	b	408cfc <_ppfs_setargs+0x3c>
  408e5c:	acc30058 	sw	v1,88(a2)
  408e60:	8cc20050 	lw	v0,80(a2)
  408e64:	00000000 	nop
  408e68:	24420003 	addiu	v0,v0,3
  408e6c:	00431024 	and	v0,v0,v1
  408e70:	24440004 	addiu	a0,v0,4
  408e74:	acc40050 	sw	a0,80(a2)
  408e78:	8c430000 	lw	v1,0(v0)
  408e7c:	00000000 	nop
  408e80:	acc30008 	sw	v1,8(a2)
  408e84:	1000ff99 	b	408cec <_ppfs_setargs+0x2c>
  408e88:	acc30058 	sw	v1,88(a2)
  408e8c:	8c840008 	lw	a0,8(a0)
  408e90:	3c058000 	lui	a1,0x8000
  408e94:	1085000c 	beq	a0,a1,408ec8 <_ppfs_setargs+0x208>
  408e98:	00000000 	nop
  408e9c:	8cc20004 	lw	v0,4(a2)
  408ea0:	00000000 	nop
  408ea4:	1445ffb9 	bne	v0,a1,408d8c <_ppfs_setargs+0xcc>
  408ea8:	00000000 	nop
  408eac:	90c20025 	lbu	v0,37(a2)
  408eb0:	00000000 	nop
  408eb4:	000210c0 	sll	v0,v0,0x3
  408eb8:	00e21021 	addu	v0,a3,v0
  408ebc:	8c43fff8 	lw	v1,-8(v0)
  408ec0:	1000ffb2 	b	408d8c <_ppfs_setargs+0xcc>
  408ec4:	acc30004 	sw	v1,4(a2)
  408ec8:	90c20024 	lbu	v0,36(a2)
  408ecc:	00000000 	nop
  408ed0:	000210c0 	sll	v0,v0,0x3
  408ed4:	00e21021 	addu	v0,a3,v0
  408ed8:	8c43fff8 	lw	v1,-8(v0)
  408edc:	00000000 	nop
  408ee0:	acc30008 	sw	v1,8(a2)
  408ee4:	1000ffed 	b	408e9c <_ppfs_setargs+0x1dc>
  408ee8:	00602021 	move	a0,v1
  408eec:	00000000 	nop
  408ef0:	3c1c0000 	lui	gp,0x0
  408ef4:	279c3c50 	addiu	gp,gp,15440
  408ef8:	0399e021 	addu	gp,gp,t9
  408efc:	8f850008 	lw	a1,8(gp)
  408f00:	00000000 	nop
  408f04:	24a5e058 	addiu	a1,a1,-8104
  408f08:	24a6ffe8 	addiu	a2,a1,-24
  408f0c:	24a5fffe 	addiu	a1,a1,-2
  408f10:	84a20000 	lh	v0,0(a1)
  408f14:	00000000 	nop
  408f18:	10440003 	beq	v0,a0,408f28 <_ppfs_setargs+0x268>
  408f1c:	00c5182b 	sltu	v1,a2,a1
  408f20:	1460fffa 	bnez	v1,408f0c <_ppfs_setargs+0x24c>
  408f24:	00000000 	nop
  408f28:	8f830008 	lw	v1,8(gp)
  408f2c:	00000000 	nop
  408f30:	2463e040 	addiu	v1,v1,-8128
  408f34:	00000000 	nop
  408f38:	00a31823 	subu	v1,a1,v1
  408f3c:	00031843 	sra	v1,v1,0x1
  408f40:	8f820008 	lw	v0,8(gp)
  408f44:	00000000 	nop
  408f48:	2442e058 	addiu	v0,v0,-8104
  408f4c:	00431021 	addu	v0,v0,v1
  408f50:	90420000 	lbu	v0,0(v0)
  408f54:	03e00008 	jr	ra
  408f58:	00000000 	nop
  408f5c:	3c1c0000 	lui	gp,0x0
  408f60:	279c3be4 	addiu	gp,gp,15332
  408f64:	0399e021 	addu	gp,gp,t9
  408f68:	27bdffd8 	addiu	sp,sp,-40
  408f6c:	afbc0010 	sw	gp,16(sp)
  408f70:	afb1001c 	sw	s1,28(sp)
  408f74:	24030008 	li	v1,8
  408f78:	00a08821 	move	s1,a1
  408f7c:	afbf0024 	sw	ra,36(sp)
  408f80:	afbc0020 	sw	gp,32(sp)
  408f84:	afb00018 	sw	s0,24(sp)
  408f88:	12230017 	beq	s1,v1,408fe8 <_ppfs_setargs+0x328>
  408f8c:	00001021 	move	v0,zero
  408f90:	10830015 	beq	a0,v1,408fe8 <_ppfs_setargs+0x328>
  408f94:	24020001 	li	v0,1
  408f98:	10910013 	beq	a0,s1,408fe8 <_ppfs_setargs+0x328>
  408f9c:	00000000 	nop
  408fa0:	8f990008 	lw	t9,8(gp)
  408fa4:	00000000 	nop
  408fa8:	27398ef0 	addiu	t9,t9,-28944
  408fac:	00000000 	nop
  408fb0:	0320f809 	jalr	t9
  408fb4:	00000000 	nop
  408fb8:	8fbc0010 	lw	gp,16(sp)
  408fbc:	02202021 	move	a0,s1
  408fc0:	00408021 	move	s0,v0
  408fc4:	8f990008 	lw	t9,8(gp)
  408fc8:	00000000 	nop
  408fcc:	27398ef0 	addiu	t9,t9,-28944
  408fd0:	00000000 	nop
  408fd4:	0320f809 	jalr	t9
  408fd8:	00000000 	nop
  408fdc:	8fbc0010 	lw	gp,16(sp)
  408fe0:	0050102a 	slt	v0,v0,s0
  408fe4:	38420001 	xori	v0,v0,0x1
  408fe8:	8fbf0024 	lw	ra,36(sp)
  408fec:	8fb1001c 	lw	s1,28(sp)
  408ff0:	8fb00018 	lw	s0,24(sp)
  408ff4:	03e00008 	jr	ra
  408ff8:	27bd0028 	addiu	sp,sp,40

00408ffc <_ppfs_parsespec>:
_ppfs_parsespec():
  408ffc:	3c1c0000 	lui	gp,0x0
  409000:	279c3b44 	addiu	gp,gp,15172
  409004:	0399e021 	addu	gp,gp,t9
  409008:	27bdff88 	addiu	sp,sp,-120
  40900c:	afbc0010 	sw	gp,16(sp)
  409010:	afb60068 	sw	s6,104(sp)
  409014:	afbf0074 	sw	ra,116(sp)
  409018:	afbc0070 	sw	gp,112(sp)
  40901c:	afb7006c 	sw	s7,108(sp)
  409020:	afb50064 	sw	s5,100(sp)
  409024:	afb40060 	sw	s4,96(sp)
  409028:	afb3005c 	sw	s3,92(sp)
  40902c:	afb20058 	sw	s2,88(sp)
  409030:	afb10054 	sw	s1,84(sp)
  409034:	afb00050 	sw	s0,80(sp)
  409038:	8c910000 	lw	s1,0(a0)
  40903c:	24020008 	li	v0,8
  409040:	afa2001c 	sw	v0,28(sp)
  409044:	afa00040 	sw	zero,64(sp)
  409048:	afa00044 	sw	zero,68(sp)
  40904c:	afa20018 	sw	v0,24(sp)
  409050:	8c920018 	lw	s2,24(a0)
  409054:	92270000 	lbu	a3,0(s1)
  409058:	0080b021 	move	s6,a0
  40905c:	240cffff 	li	t4,-1
  409060:	00004821 	move	t1,zero
  409064:	00004021 	move	t0,zero
  409068:	00006821 	move	t5,zero
  40906c:	00071600 	sll	v0,a3,0x18
  409070:	00021603 	sra	v0,v0,0x18
  409074:	2403002a 	li	v1,42
  409078:	1043014f 	beq	v0,v1,4095b8 <_ppfs_parsespec+0x5bc>
  40907c:	02203021 	move	a2,s1
  409080:	24e2ffd0 	addiu	v0,a3,-48
  409084:	304200ff 	andi	v0,v0,0xff
  409088:	2c42000a 	sltiu	v0,v0,10
  40908c:	00008021 	move	s0,zero
  409090:	10400011 	beqz	v0,4090d8 <_ppfs_parsespec+0xdc>
  409094:	00e01821 	move	v1,a3
  409098:	00101080 	sll	v0,s0,0x2
  40909c:	00501021 	addu	v0,v0,s0
  4090a0:	00031e00 	sll	v1,v1,0x18
  4090a4:	00021040 	sll	v0,v0,0x1
  4090a8:	00031e03 	sra	v1,v1,0x18
  4090ac:	2a040fff 	slti	a0,s0,4095
  4090b0:	26310001 	addiu	s1,s1,1
  4090b4:	10800002 	beqz	a0,4090c0 <_ppfs_parsespec+0xc4>
  4090b8:	00431021 	addu	v0,v0,v1
  4090bc:	2450ffd0 	addiu	s0,v0,-48
  4090c0:	92270000 	lbu	a3,0(s1)
  4090c4:	00000000 	nop
  4090c8:	24e2ffd0 	addiu	v0,a3,-48
  4090cc:	2c42000a 	sltiu	v0,v0,10
  4090d0:	1440fff1 	bnez	v0,409098 <_ppfs_parsespec+0x9c>
  4090d4:	00e01821 	move	v1,a3
  4090d8:	80c3ffff 	lb	v1,-1(a2)
  4090dc:	24020025 	li	v0,37
  4090e0:	14620132 	bne	v1,v0,4095ac <_ppfs_parsespec+0x5b0>
  4090e4:	24030024 	li	v1,36
  4090e8:	00071600 	sll	v0,a3,0x18
  4090ec:	00021603 	sra	v0,v0,0x18
  4090f0:	10430124 	beq	v0,v1,409584 <_ppfs_parsespec+0x588>
  4090f4:	00000000 	nop
  4090f8:	1e400083 	bgtz	s2,409308 <_ppfs_parsespec+0x30c>
  4090fc:	2402ffff 	li	v0,-1
  409100:	00d1102b 	sltu	v0,a2,s1
  409104:	10400006 	beqz	v0,409120 <_ppfs_parsespec+0x124>
  409108:	00009021 	move	s2,zero
  40910c:	80c30000 	lb	v1,0(a2)
  409110:	24020030 	li	v0,48
  409114:	90c50000 	lbu	a1,0(a2)
  409118:	1462001b 	bne	v1,v0,409188 <_ppfs_parsespec+0x18c>
  40911c:	00051600 	sll	v0,a1,0x18
  409120:	00c08821 	move	s1,a2
  409124:	8f860008 	lw	a2,8(gp)
  409128:	00000000 	nop
  40912c:	24c6e064 	addiu	a2,a2,-8092
  409130:	00000000 	nop
  409134:	90c50000 	lbu	a1,0(a2)
  409138:	92270000 	lbu	a3,0(s1)
  40913c:	82230000 	lb	v1,0(s1)
  409140:	24100001 	li	s0,1
  409144:	00051600 	sll	v0,a1,0x18
  409148:	00021603 	sra	v0,v0,0x18
  40914c:	1062010a 	beq	v1,v0,409578 <_ppfs_parsespec+0x57c>
  409150:	24c60001 	addiu	a2,a2,1
  409154:	80c20000 	lb	v0,0(a2)
  409158:	90c50000 	lbu	a1,0(a2)
  40915c:	1440fff9 	bnez	v0,409144 <_ppfs_parsespec+0x148>
  409160:	00108040 	sll	s0,s0,0x1
  409164:	3102000a 	andi	v0,t0,0xa
  409168:	00021043 	sra	v0,v0,0x1
  40916c:	00021027 	nor	v0,zero,v0
  409170:	8223ffff 	lb	v1,-1(s1)
  409174:	01024024 	and	t0,t0,v0
  409178:	24020025 	li	v0,37
  40917c:	1462ffbb 	bne	v1,v0,40906c <_ppfs_parsespec+0x70>
  409180:	00008021 	move	s0,zero
  409184:	00051600 	sll	v0,a1,0x18
  409188:	00021603 	sra	v0,v0,0x18
  40918c:	2403002a 	li	v1,42
  409190:	104300e7 	beq	v0,v1,409530 <_ppfs_parsespec+0x534>
  409194:	00000000 	nop
  409198:	152000e3 	bnez	t1,409528 <_ppfs_parsespec+0x52c>
  40919c:	00071600 	sll	v0,a3,0x18
  4091a0:	00021603 	sra	v0,v0,0x18
  4091a4:	2403002e 	li	v1,46
  4091a8:	14430005 	bne	v0,v1,4091c0 <_ppfs_parsespec+0x1c4>
  4091ac:	02006821 	move	t5,s0
  4091b0:	26310001 	addiu	s1,s1,1
  4091b4:	92270000 	lbu	a3,0(s1)
  4091b8:	1000ffac 	b	40906c <_ppfs_parsespec+0x70>
  4091bc:	2409ffff 	li	t1,-1
  4091c0:	8f860008 	lw	a2,8(gp)
  4091c4:	00000000 	nop
  4091c8:	24c6e0b0 	addiu	a2,a2,-8016
  4091cc:	00071600 	sll	v0,a3,0x18
  4091d0:	90c50000 	lbu	a1,0(a2)
  4091d4:	00021e03 	sra	v1,v0,0x18
  4091d8:	00c02021 	move	a0,a2
  4091dc:	00051600 	sll	v0,a1,0x18
  4091e0:	00021603 	sra	v0,v0,0x18
  4091e4:	106200cc 	beq	v1,v0,409518 <_ppfs_parsespec+0x51c>
  4091e8:	00000000 	nop
  4091ec:	24c60001 	addiu	a2,a2,1
  4091f0:	80c20000 	lb	v0,0(a2)
  4091f4:	90c50000 	lbu	a1,0(a2)
  4091f8:	1440fff9 	bnez	v0,4091e0 <_ppfs_parsespec+0x1e4>
  4091fc:	00051600 	sll	v0,a1,0x18
  409200:	00c41023 	subu	v0,a2,a0
  409204:	28420002 	slti	v0,v0,2
  409208:	144000bc 	bnez	v0,4094fc <_ppfs_parsespec+0x500>
  40920c:	00051e00 	sll	v1,a1,0x18
  409210:	80c20009 	lb	v0,9(a2)
  409214:	00071e00 	sll	v1,a3,0x18
  409218:	00024a00 	sll	t1,v0,0x8
  40921c:	1060003a 	beqz	v1,409308 <_ppfs_parsespec+0x30c>
  409220:	2402ffff 	li	v0,-1
  409224:	8f860008 	lw	a2,8(gp)
  409228:	00000000 	nop
  40922c:	24c6e06c 	addiu	a2,a2,-8084
  409230:	8f840008 	lw	a0,8(gp)
  409234:	00000000 	nop
  409238:	2484e084 	addiu	a0,a0,-8060
  40923c:	90c50000 	lbu	a1,0(a2)
  409240:	00c07021 	move	t6,a2
  409244:	312a0400 	andi	t2,t1,0x400
  409248:	00805821 	move	t3,a0
  40924c:	00051e00 	sll	v1,a1,0x18
  409250:	00071600 	sll	v0,a3,0x18
  409254:	1062008a 	beq	v1,v0,409480 <_ppfs_parsespec+0x484>
  409258:	00ce1823 	subu	v1,a2,t6
  40925c:	24c60001 	addiu	a2,a2,1
  409260:	90c20000 	lbu	v0,0(a2)
  409264:	00000000 	nop
  409268:	1440fff8 	bnez	v0,40924c <_ppfs_parsespec+0x250>
  40926c:	00402821 	move	a1,v0
  409270:	00071600 	sll	v0,a3,0x18
  409274:	00021603 	sra	v0,v0,0x18
  409278:	31030004 	andi	v1,t0,0x4
  40927c:	aec2000c 	sw	v0,12(s6)
  409280:	aecc0004 	sw	t4,4(s6)
  409284:	aecd0008 	sw	t5,8(s6)
  409288:	14600002 	bnez	v1,409294 <_ppfs_parsespec+0x298>
  40928c:	24040030 	li	a0,48
  409290:	24040020 	li	a0,32
  409294:	2402fffb 	li	v0,-5
  409298:	31230f00 	andi	v1,t1,0xf00
  40929c:	01021024 	and	v0,t0,v0
  4092a0:	00431025 	or	v0,v0,v1
  4092a4:	24030001 	li	v1,1
  4092a8:	aec40014 	sw	a0,20(s6)
  4092ac:	aec20010 	sw	v0,16(s6)
  4092b0:	aec3001c 	sw	v1,28(s6)
  4092b4:	80c20000 	lb	v0,0(a2)
  4092b8:	00000000 	nop
  4092bc:	14400028 	bnez	v0,409360 <_ppfs_parsespec+0x364>
  4092c0:	00000000 	nop
  4092c4:	82230000 	lb	v1,0(s1)
  4092c8:	2402006d 	li	v0,109
  4092cc:	10620069 	beq	v1,v0,409474 <_ppfs_parsespec+0x478>
  4092d0:	00603821 	move	a3,v1
  4092d4:	8f8601e8 	lw	a2,488(gp)
  4092d8:	00000000 	nop
  4092dc:	8cc60000 	lw	a2,0(a2)
  4092e0:	24170015 	li	s7,21
  4092e4:	8f840210 	lw	a0,528(gp)
  4092e8:	24c5000a 	addiu	a1,a2,10
  4092ec:	80c20000 	lb	v0,0(a2)
  4092f0:	24c60001 	addiu	a2,a2,1
  4092f4:	1047000f 	beq	v0,a3,409334 <_ppfs_parsespec+0x338>
  4092f8:	00c5182b 	sltu	v1,a2,a1
  4092fc:	1460fffb 	bnez	v1,4092ec <_ppfs_parsespec+0x2f0>
  409300:	24840004 	addiu	a0,a0,4
  409304:	2402ffff 	li	v0,-1
  409308:	8fbf0074 	lw	ra,116(sp)
  40930c:	8fb7006c 	lw	s7,108(sp)
  409310:	8fb60068 	lw	s6,104(sp)
  409314:	8fb50064 	lw	s5,100(sp)
  409318:	8fb40060 	lw	s4,96(sp)
  40931c:	8fb3005c 	lw	s3,92(sp)
  409320:	8fb20058 	lw	s2,88(sp)
  409324:	8fb10054 	lw	s1,84(sp)
  409328:	8fb00050 	lw	s0,80(sp)
  40932c:	03e00008 	jr	ra
  409330:	27bd0078 	addiu	sp,sp,120
  409334:	8c820000 	lw	v0,0(a0)
  409338:	24050008 	li	a1,8
  40933c:	26c40004 	addiu	a0,s6,4
  409340:	27a60020 	addiu	a2,sp,32
  409344:	0040c821 	move	t9,v0
  409348:	0320f809 	jalr	t9
  40934c:	00000000 	nop
  409350:	8fbc0010 	lw	gp,16(sp)
  409354:	28430009 	slti	v1,v0,9
  409358:	1060ffea 	beqz	v1,409304 <_ppfs_parsespec+0x308>
  40935c:	aec2001c 	sw	v0,28(s6)
  409360:	1a400036 	blez	s2,40943c <_ppfs_parsespec+0x440>
  409364:	00008021 	move	s0,zero
  409368:	26d50024 	addiu	s5,s6,36
  40936c:	00101080 	sll	v0,s0,0x2
  409370:	2a030003 	slti	v1,s0,3
  409374:	1060002c 	beqz	v1,409428 <_ppfs_parsespec+0x42c>
  409378:	03a21021 	addu	v0,sp,v0
  40937c:	90420043 	lbu	v0,67(v0)
  409380:	00000000 	nop
  409384:	00403021 	move	a2,v0
  409388:	a2a20000 	sb	v0,0(s5)
  40938c:	00101080 	sll	v0,s0,0x2
  409390:	27a30018 	addiu	v1,sp,24
  409394:	0246202a 	slt	a0,s2,a2
  409398:	26b50001 	addiu	s5,s5,1
  40939c:	0043a021 	addu	s4,v0,v1
  4093a0:	10800004 	beqz	a0,4093b4 <_ppfs_parsespec+0x3b8>
  4093a4:	26100001 	addiu	s0,s0,1
  4093a8:	28c2000a 	slti	v0,a2,10
  4093ac:	1040ffd5 	beqz	v0,409304 <_ppfs_parsespec+0x308>
  4093b0:	00c09021 	move	s2,a2
  4093b4:	24c6ffff 	addiu	a2,a2,-1
  4093b8:	00061080 	sll	v0,a2,0x2
  4093bc:	00569821 	addu	s3,v0,s6
  4093c0:	8e850000 	lw	a1,0(s4)
  4093c4:	8e640028 	lw	a0,40(s3)
  4093c8:	8f990008 	lw	t9,8(gp)
  4093cc:	00000000 	nop
  4093d0:	27398f5c 	addiu	t9,t9,-28836
  4093d4:	00000000 	nop
  4093d8:	0320f809 	jalr	t9
  4093dc:	00000000 	nop
  4093e0:	8fbc0010 	lw	gp,16(sp)
  4093e4:	10400004 	beqz	v0,4093f8 <_ppfs_parsespec+0x3fc>
  4093e8:	00000000 	nop
  4093ec:	8e820000 	lw	v0,0(s4)
  4093f0:	00000000 	nop
  4093f4:	ae620028 	sw	v0,40(s3)
  4093f8:	8ec3001c 	lw	v1,28(s6)
  4093fc:	00000000 	nop
  409400:	24620002 	addiu	v0,v1,2
  409404:	0202102a 	slt	v0,s0,v0
  409408:	1440ffd8 	bnez	v0,40936c <_ppfs_parsespec+0x370>
  40940c:	00000000 	nop
  409410:	26310001 	addiu	s1,s1,1
  409414:	aed70020 	sw	s7,32(s6)
  409418:	aed20018 	sw	s2,24(s6)
  40941c:	aed10000 	sw	s1,0(s6)
  409420:	1000ffb9 	b	409308 <_ppfs_parsespec+0x30c>
  409424:	24620002 	addiu	v0,v1,2
  409428:	8fa20048 	lw	v0,72(sp)
  40942c:	00000000 	nop
  409430:	00501021 	addu	v0,v0,s0
  409434:	1000ffd5 	b	40938c <_ppfs_parsespec+0x390>
  409438:	2446fffe 	addiu	a2,v0,-2
  40943c:	8ec6001c 	lw	a2,28(s6)
  409440:	24020001 	li	v0,1
  409444:	00063080 	sll	a2,a2,0x2
  409448:	26c40028 	addiu	a0,s6,40
  40944c:	a2c20026 	sb	v0,38(s6)
  409450:	27a50020 	addiu	a1,sp,32
  409454:	8f990320 	lw	t9,800(gp)
  409458:	00000000 	nop
  40945c:	0320f809 	jalr	t9
  409460:	00000000 	nop
  409464:	8fbc0010 	lw	gp,16(sp)
  409468:	8ec3001c 	lw	v1,28(s6)
  40946c:	1000ffe9 	b	409414 <_ppfs_parsespec+0x418>
  409470:	26310001 	addiu	s1,s1,1
  409474:	24170014 	li	s7,20
  409478:	1000ffb9 	b	409360 <_ppfs_parsespec+0x364>
  40947c:	aec0001c 	sw	zero,28(s6)
  409480:	28620012 	slti	v0,v1,18
  409484:	14400005 	bnez	v0,40949c <_ppfs_parsespec+0x4a0>
  409488:	2566ffff 	addiu	a2,t3,-1
  40948c:	11400004 	beqz	t2,4094a0 <_ppfs_parsespec+0x4a4>
  409490:	0060b821 	move	s7,v1
  409494:	2463fffe 	addiu	v1,v1,-2
  409498:	2566ffff 	addiu	a2,t3,-1
  40949c:	0060b821 	move	s7,v1
  4094a0:	24c60001 	addiu	a2,a2,1
  4094a4:	80c20000 	lb	v0,0(a2)
  4094a8:	00000000 	nop
  4094ac:	0043102a 	slt	v0,v0,v1
  4094b0:	1440fffb 	bnez	v0,4094a0 <_ppfs_parsespec+0x4a4>
  4094b4:	00c48023 	subu	s0,a2,a0
  4094b8:	00101840 	sll	v1,s0,0x1
  4094bc:	8f840008 	lw	a0,8(gp)
  4094c0:	00000000 	nop
  4094c4:	2484e090 	addiu	a0,a0,-8048
  4094c8:	00832021 	addu	a0,a0,v1
  4094cc:	84820000 	lh	v0,0(a0)
  4094d0:	8f810008 	lw	at,8(gp)
  4094d4:	00000000 	nop
  4094d8:	2421e0a0 	addiu	at,at,-8032
  4094dc:	00231821 	addu	v1,at,v1
  4094e0:	84650000 	lh	a1,0(v1)
  4094e4:	01221025 	or	v0,t1,v0
  4094e8:	00451024 	and	v0,v0,a1
  4094ec:	afa20020 	sw	v0,32(sp)
  4094f0:	92270000 	lbu	a3,0(s1)
  4094f4:	1000ff5e 	b	409270 <_ppfs_parsespec+0x274>
  4094f8:	01c03021 	move	a2,t6
  4094fc:	00071600 	sll	v0,a3,0x18
  409500:	1462ff43 	bne	v1,v0,409210 <_ppfs_parsespec+0x214>
  409504:	00000000 	nop
  409508:	26310001 	addiu	s1,s1,1
  40950c:	92270000 	lbu	a3,0(s1)
  409510:	1000ff3f 	b	409210 <_ppfs_parsespec+0x214>
  409514:	24c60009 	addiu	a2,a2,9
  409518:	26310001 	addiu	s1,s1,1
  40951c:	92270000 	lbu	a3,0(s1)
  409520:	1000ff38 	b	409204 <_ppfs_parsespec+0x208>
  409524:	00c41023 	subu	v0,a2,a0
  409528:	1000ff25 	b	4091c0 <_ppfs_parsespec+0x1c4>
  40952c:	02006021 	move	t4,s0
  409530:	1240000c 	beqz	s2,409564 <_ppfs_parsespec+0x568>
  409534:	00071600 	sll	v0,a3,0x18
  409538:	00021603 	sra	v0,v0,0x18
  40953c:	24030024 	li	v1,36
  409540:	1443ff70 	bne	v0,v1,409304 <_ppfs_parsespec+0x308>
  409544:	26310001 	addiu	s1,s1,1
  409548:	1a00ff6e 	blez	s0,409304 <_ppfs_parsespec+0x308>
  40954c:	31220004 	andi	v0,t1,0x4
  409550:	03a21821 	addu	v1,sp,v0
  409554:	ac700040 	sw	s0,64(v1)
  409558:	92270000 	lbu	a3,0(s1)
  40955c:	1000ff0e 	b	409198 <_ppfs_parsespec+0x19c>
  409560:	3c108000 	lui	s0,0x8000
  409564:	24c60001 	addiu	a2,a2,1
  409568:	10d1fffc 	beq	a2,s1,40955c <_ppfs_parsespec+0x560>
  40956c:	2402ffff 	li	v0,-1
  409570:	1000ff65 	b	409308 <_ppfs_parsespec+0x30c>
  409574:	00000000 	nop
  409578:	01104025 	or	t0,t0,s0
  40957c:	1000fee9 	b	409124 <_ppfs_parsespec+0x128>
  409580:	26310001 	addiu	s1,s1,1
  409584:	1a00fedc 	blez	s0,4090f8 <_ppfs_parsespec+0xfc>
  409588:	00000000 	nop
  40958c:	26310001 	addiu	s1,s1,1
  409590:	1240ff5d 	beqz	s2,409308 <_ppfs_parsespec+0x30c>
  409594:	2402ffff 	li	v0,-1
  409598:	0250102a 	slt	v0,s2,s0
  40959c:	1040fee1 	beqz	v0,409124 <_ppfs_parsespec+0x128>
  4095a0:	afb00048 	sw	s0,72(sp)
  4095a4:	1000fedf 	b	409124 <_ppfs_parsespec+0x128>
  4095a8:	02009021 	move	s2,s0
  4095ac:	90c50000 	lbu	a1,0(a2)
  4095b0:	1000fef5 	b	409188 <_ppfs_parsespec+0x18c>
  4095b4:	00051600 	sll	v0,a1,0x18
  4095b8:	31220004 	andi	v0,t1,0x4
  4095bc:	03a21821 	addu	v1,sp,v0
  4095c0:	ac600018 	sw	zero,24(v1)
  4095c4:	26310001 	addiu	s1,s1,1
  4095c8:	92270000 	lbu	a3,0(s1)
  4095cc:	1000fead 	b	409084 <_ppfs_parsespec+0x88>
  4095d0:	24e2ffd0 	addiu	v0,a3,-48
	...

004095e0 <_charpad>:
_charpad():
  4095e0:	3c1c0000 	lui	gp,0x0
  4095e4:	279c3560 	addiu	gp,gp,13664
  4095e8:	0399e021 	addu	gp,gp,t9
  4095ec:	27bdffd0 	addiu	sp,sp,-48
  4095f0:	afbc0010 	sw	gp,16(sp)
  4095f4:	afb10024 	sw	s1,36(sp)
  4095f8:	afb00020 	sw	s0,32(sp)
  4095fc:	afbf002c 	sw	ra,44(sp)
  409600:	afbc0028 	sw	gp,40(sp)
  409604:	00c08021 	move	s0,a2
  409608:	a3a50018 	sb	a1,24(sp)
  40960c:	14c00006 	bnez	a2,409628 <_charpad+0x48>
  409610:	00808821 	move	s1,a0
  409614:	8fbf002c 	lw	ra,44(sp)
  409618:	8fb10024 	lw	s1,36(sp)
  40961c:	8fb00020 	lw	s0,32(sp)
  409620:	03e00008 	jr	ra
  409624:	27bd0030 	addiu	sp,sp,48
  409628:	2610ffff 	addiu	s0,s0,-1
  40962c:	27a40018 	addiu	a0,sp,24
  409630:	24050001 	li	a1,1
  409634:	02203021 	move	a2,s1
  409638:	8f99037c 	lw	t9,892(gp)
  40963c:	00000000 	nop
  409640:	0320f809 	jalr	t9
  409644:	00000000 	nop
  409648:	8fbc0010 	lw	gp,16(sp)
  40964c:	1600fff7 	bnez	s0,40962c <_charpad+0x4c>
  409650:	2610ffff 	addiu	s0,s0,-1
  409654:	1000ffef 	b	409614 <_charpad+0x34>
  409658:	00000000 	nop

0040965c <_do_one_spec>:
_do_one_spec():
  40965c:	3c1c0000 	lui	gp,0x0
  409660:	279c34e4 	addiu	gp,gp,13540
  409664:	0399e021 	addu	gp,gp,t9
  409668:	27bdff50 	addiu	sp,sp,-176
  40966c:	afbc0018 	sw	gp,24(sp)
  409670:	afb60098 	sw	s6,152(sp)
  409674:	afb10084 	sw	s1,132(sp)
  409678:	0080b021 	move	s6,a0
  40967c:	00a08821 	move	s1,a1
  409680:	00a02021 	move	a0,a1
  409684:	afbf00a8 	sw	ra,168(sp)
  409688:	afbe00a4 	sw	s8,164(sp)
  40968c:	afb7009c 	sw	s7,156(sp)
  409690:	afb50094 	sw	s5,148(sp)
  409694:	00c0b821 	move	s7,a2
  409698:	afb40090 	sw	s4,144(sp)
  40969c:	afbc00a0 	sw	gp,160(sp)
  4096a0:	afb3008c 	sw	s3,140(sp)
  4096a4:	afb20088 	sw	s2,136(sp)
  4096a8:	afb00080 	sw	s0,128(sp)
  4096ac:	8f990060 	lw	t9,96(gp)
  4096b0:	00000000 	nop
  4096b4:	0320f809 	jalr	t9
  4096b8:	00000000 	nop
  4096bc:	8fbc0018 	lw	gp,24(sp)
  4096c0:	02202021 	move	a0,s1
  4096c4:	8f9900f0 	lw	t9,240(gp)
  4096c8:	00000000 	nop
  4096cc:	0320f809 	jalr	t9
  4096d0:	00000000 	nop
  4096d4:	8fbc0018 	lw	gp,24(sp)
  4096d8:	92260026 	lbu	a2,38(s1)
  4096dc:	8e230018 	lw	v1,24(s1)
  4096e0:	00061080 	sll	v0,a2,0x2
  4096e4:	02221021 	addu	v0,s1,v0
  4096e8:	24440024 	addiu	a0,v0,36
  4096ec:	0000a021 	move	s4,zero
  4096f0:	2415000b 	li	s5,11
  4096f4:	241e0020 	li	s8,32
  4096f8:	18600004 	blez	v1,40970c <_do_one_spec+0xb0>
  4096fc:	26250058 	addiu	a1,s1,88
  409700:	000610c0 	sll	v0,a2,0x3
  409704:	00a21021 	addu	v0,a1,v0
  409708:	2445fff8 	addiu	a1,v0,-8
  40970c:	8e22001c 	lw	v0,28(s1)
  409710:	00000000 	nop
  409714:	18400006 	blez	v0,409730 <_do_one_spec+0xd4>
  409718:	27a30020 	addiu	v1,sp,32
  40971c:	2442ffff 	addiu	v0,v0,-1
  409720:	ac650000 	sw	a1,0(v1)
  409724:	24a50008 	addiu	a1,a1,8
  409728:	1440fffc 	bnez	v0,40971c <_do_one_spec+0xc0>
  40972c:	24630004 	addiu	v1,v1,4
  409730:	8e230020 	lw	v1,32(s1)
  409734:	00000000 	nop
  409738:	10600147 	beqz	v1,409c58 <_do_one_spec+0x5fc>
  40973c:	2c620008 	sltiu	v0,v1,8
  409740:	104000da 	beqz	v0,409aac <_do_one_spec+0x450>
  409744:	2c620010 	sltiu	v0,v1,16
  409748:	2c620006 	sltiu	v0,v1,6
  40974c:	8f900008 	lw	s0,8(gp)
  409750:	00000000 	nop
  409754:	2610e0d0 	addiu	s0,s0,-7984
  409758:	02038021 	addu	s0,s0,v1
  40975c:	8210ffff 	lb	s0,-1(s0)
  409760:	104000d0 	beqz	v0,409aa4 <_do_one_spec+0x448>
  409764:	24020001 	li	v0,1
  409768:	106200cc 	beq	v1,v0,409a9c <_do_one_spec+0x440>
  40976c:	00000000 	nop
  409770:	8e220004 	lw	v0,4(s1)
  409774:	00000000 	nop
  409778:	044000c5 	bltz	v0,409a90 <_do_one_spec+0x434>
  40977c:	00000000 	nop
  409780:	8c840000 	lw	a0,0(a0)
  409784:	8fa50020 	lw	a1,32(sp)
  409788:	02003021 	move	a2,s0
  40978c:	30840f00 	andi	a0,a0,0xf00
  409790:	8f990020 	lw	t9,32(gp)
  409794:	00000000 	nop
  409798:	0320f809 	jalr	t9
  40979c:	00000000 	nop
  4097a0:	8fbc0018 	lw	gp,24(sp)
  4097a4:	00603821 	move	a3,v1
  4097a8:	8e230020 	lw	v1,32(s1)
  4097ac:	00403021 	move	a2,v0
  4097b0:	24020003 	li	v0,3
  4097b4:	afb00010 	sw	s0,16(sp)
  4097b8:	10620002 	beq	v1,v0,4097c4 <_do_one_spec+0x168>
  4097bc:	24050037 	li	a1,55
  4097c0:	24050057 	li	a1,87
  4097c4:	27a4007f 	addiu	a0,sp,127
  4097c8:	afa50014 	sw	a1,20(sp)
  4097cc:	8f990358 	lw	t9,856(gp)
  4097d0:	00000000 	nop
  4097d4:	0320f809 	jalr	t9
  4097d8:	00000000 	nop
  4097dc:	8fbc0018 	lw	gp,24(sp)
  4097e0:	8e240020 	lw	a0,32(s1)
  4097e4:	00409021 	move	s2,v0
  4097e8:	2c820006 	sltiu	v0,a0,6
  4097ec:	144000a4 	bnez	v0,409a80 <_do_one_spec+0x424>
  4097f0:	00000000 	nop
  4097f4:	82430000 	lb	v1,0(s2)
  4097f8:	2402002d 	li	v0,45
  4097fc:	92450000 	lbu	a1,0(s2)
  409800:	10620097 	beq	v1,v0,409a60 <_do_one_spec+0x404>
  409804:	00000000 	nop
  409808:	8e230010 	lw	v1,16(s1)
  40980c:	00000000 	nop
  409810:	30620002 	andi	v0,v1,0x2
  409814:	1040008e 	beqz	v0,409a50 <_do_one_spec+0x3f4>
  409818:	30620001 	andi	v0,v1,0x1
  40981c:	0000a821 	move	s5,zero
  409820:	27a20040 	addiu	v0,sp,64
  409824:	8e340004 	lw	s4,4(s1)
  409828:	00523023 	subu	a2,v0,s2
  40982c:	06800086 	bltz	s4,409a48 <_do_one_spec+0x3ec>
  409830:	24d3003f 	addiu	s3,a2,63
  409834:	30620010 	andi	v0,v1,0x10
  409838:	1040000b 	beqz	v0,409868 <_do_one_spec+0x20c>
  40983c:	00051600 	sll	v0,a1,0x18
  409840:	2c820003 	sltiu	v0,a0,3
  409844:	10400002 	beqz	v0,409850 <_do_one_spec+0x1f4>
  409848:	24020003 	li	v0,3
  40984c:	24150006 	li	s5,6
  409850:	1082007b 	beq	a0,v0,409a40 <_do_one_spec+0x3e4>
  409854:	00000000 	nop
  409858:	24020004 	li	v0,4
  40985c:	10820070 	beq	a0,v0,409a20 <_do_one_spec+0x3c4>
  409860:	0274102b 	sltu	v0,s3,s4
  409864:	00051600 	sll	v0,a1,0x18
  409868:	00021603 	sra	v0,v0,0x18
  40986c:	24030030 	li	v1,48
  409870:	1043005c 	beq	v0,v1,4099e4 <_do_one_spec+0x388>
  409874:	2aa20006 	slti	v0,s5,6
  409878:	0274102b 	sltu	v0,s3,s4
  40987c:	14400002 	bnez	v0,409888 <_do_one_spec+0x22c>
  409880:	02933023 	subu	a2,s4,s3
  409884:	00003021 	move	a2,zero
  409888:	00c0a021 	move	s4,a2
  40988c:	2402000b 	li	v0,11
  409890:	12a20005 	beq	s5,v0,4098a8 <_do_one_spec+0x24c>
  409894:	02742021 	addu	a0,s3,s4
  409898:	2aa20006 	slti	v0,s5,6
  40989c:	1040004f 	beqz	v0,4099dc <_do_one_spec+0x380>
  4098a0:	00000000 	nop
  4098a4:	24840001 	addiu	a0,a0,1
  4098a8:	8e220008 	lw	v0,8(s1)
  4098ac:	00000000 	nop
  4098b0:	0082182b 	sltu	v1,a0,v0
  4098b4:	14600002 	bnez	v1,4098c0 <_do_one_spec+0x264>
  4098b8:	00448023 	subu	s0,v0,a0
  4098bc:	00008021 	move	s0,zero
  4098c0:	8ee20000 	lw	v0,0(s7)
  4098c4:	00901821 	addu	v1,a0,s0
  4098c8:	00431021 	addu	v0,v0,v1
  4098cc:	24030030 	li	v1,48
  4098d0:	13c3003f 	beq	s8,v1,4099d0 <_do_one_spec+0x374>
  4098d4:	aee20000 	sw	v0,0(s7)
  4098d8:	8e220010 	lw	v0,16(s1)
  4098dc:	00000000 	nop
  4098e0:	30420008 	andi	v0,v0,0x8
  4098e4:	10400031 	beqz	v0,4099ac <_do_one_spec+0x350>
  4098e8:	02003021 	move	a2,s0
  4098ec:	8f840008 	lw	a0,8(gp)
  4098f0:	00000000 	nop
  4098f4:	2484e0d8 	addiu	a0,a0,-7976
  4098f8:	00952021 	addu	a0,a0,s5
  4098fc:	02c02821 	move	a1,s6
  409900:	8f99004c 	lw	t9,76(gp)
  409904:	00000000 	nop
  409908:	0320f809 	jalr	t9
  40990c:	00000000 	nop
  409910:	8fbc0018 	lw	gp,24(sp)
  409914:	02c02021 	move	a0,s6
  409918:	02803021 	move	a2,s4
  40991c:	24050030 	li	a1,48
  409920:	8f9901b4 	lw	t9,436(gp)
  409924:	00000000 	nop
  409928:	0320f809 	jalr	t9
  40992c:	00000000 	nop
  409930:	8fbc0018 	lw	gp,24(sp)
  409934:	02402021 	move	a0,s2
  409938:	02602821 	move	a1,s3
  40993c:	02c03021 	move	a2,s6
  409940:	8f99037c 	lw	t9,892(gp)
  409944:	00000000 	nop
  409948:	0320f809 	jalr	t9
  40994c:	00000000 	nop
  409950:	8fbc0018 	lw	gp,24(sp)
  409954:	02c02021 	move	a0,s6
  409958:	02003021 	move	a2,s0
  40995c:	24050020 	li	a1,32
  409960:	8f9901b4 	lw	t9,436(gp)
  409964:	00000000 	nop
  409968:	0320f809 	jalr	t9
  40996c:	00000000 	nop
  409970:	8fbc0018 	lw	gp,24(sp)
  409974:	00002021 	move	a0,zero
  409978:	8fbf00a8 	lw	ra,168(sp)
  40997c:	8fbe00a4 	lw	s8,164(sp)
  409980:	8fb7009c 	lw	s7,156(sp)
  409984:	8fb60098 	lw	s6,152(sp)
  409988:	8fb50094 	lw	s5,148(sp)
  40998c:	8fb40090 	lw	s4,144(sp)
  409990:	8fb3008c 	lw	s3,140(sp)
  409994:	8fb20088 	lw	s2,136(sp)
  409998:	8fb10084 	lw	s1,132(sp)
  40999c:	8fb00080 	lw	s0,128(sp)
  4099a0:	00801021 	move	v0,a0
  4099a4:	03e00008 	jr	ra
  4099a8:	27bd00b0 	addiu	sp,sp,176
  4099ac:	02c02021 	move	a0,s6
  4099b0:	24050020 	li	a1,32
  4099b4:	8f9901b4 	lw	t9,436(gp)
  4099b8:	00000000 	nop
  4099bc:	0320f809 	jalr	t9
  4099c0:	00000000 	nop
  4099c4:	8fbc0018 	lw	gp,24(sp)
  4099c8:	1000ffc8 	b	4098ec <_do_one_spec+0x290>
  4099cc:	00008021 	move	s0,zero
  4099d0:	0290a021 	addu	s4,s4,s0
  4099d4:	1000ffc0 	b	4098d8 <_do_one_spec+0x27c>
  4099d8:	00008021 	move	s0,zero
  4099dc:	1000ffb2 	b	4098a8 <_do_one_spec+0x24c>
  4099e0:	24840002 	addiu	a0,a0,2
  4099e4:	14400002 	bnez	v0,4099f0 <_do_one_spec+0x394>
  4099e8:	24020001 	li	v0,1
  4099ec:	2415000b 	li	s5,11
  4099f0:	10820005 	beq	a0,v0,409a08 <_do_one_spec+0x3ac>
  4099f4:	00000000 	nop
  4099f8:	1680ffa0 	bnez	s4,40987c <_do_one_spec+0x220>
  4099fc:	0274102b 	sltu	v0,s3,s4
  409a00:	1000ff9d 	b	409878 <_do_one_spec+0x21c>
  409a04:	00009821 	move	s3,zero
  409a08:	8f920008 	lw	s2,8(gp)
  409a0c:	00000000 	nop
  409a10:	2652e0e4 	addiu	s2,s2,-7964
  409a14:	24130005 	li	s3,5
  409a18:	1000ff97 	b	409878 <_do_one_spec+0x21c>
  409a1c:	0000a021 	move	s4,zero
  409a20:	1440ff91 	bnez	v0,409868 <_do_one_spec+0x20c>
  409a24:	00051600 	sll	v0,a1,0x18
  409a28:	00021603 	sra	v0,v0,0x18
  409a2c:	24030030 	li	v1,48
  409a30:	1443ff8c 	bne	v0,v1,409864 <_do_one_spec+0x208>
  409a34:	24d40040 	addiu	s4,a2,64
  409a38:	1000ff8a 	b	409864 <_do_one_spec+0x208>
  409a3c:	24140001 	li	s4,1
  409a40:	1000ff85 	b	409858 <_do_one_spec+0x1fc>
  409a44:	24150009 	li	s5,9
  409a48:	1000ff7a 	b	409834 <_do_one_spec+0x1d8>
  409a4c:	24140001 	li	s4,1
  409a50:	1040ff74 	beqz	v0,409824 <_do_one_spec+0x1c8>
  409a54:	27a20040 	addiu	v0,sp,64
  409a58:	1000ff72 	b	409824 <_do_one_spec+0x1c8>
  409a5c:	24150004 	li	s5,4
  409a60:	8e220010 	lw	v0,16(s1)
  409a64:	26520001 	addiu	s2,s2,1
  409a68:	34420002 	ori	v0,v0,0x2
  409a6c:	ae220010 	sw	v0,16(s1)
  409a70:	92450000 	lbu	a1,0(s2)
  409a74:	00401821 	move	v1,v0
  409a78:	1000ff69 	b	409820 <_do_one_spec+0x1c4>
  409a7c:	24150002 	li	s5,2
  409a80:	8e230010 	lw	v1,16(s1)
  409a84:	92450000 	lbu	a1,0(s2)
  409a88:	1000ff66 	b	409824 <_do_one_spec+0x1c8>
  409a8c:	27a20040 	addiu	v0,sp,64
  409a90:	823e0017 	lb	s8,23(s1)
  409a94:	1000ff3a 	b	409780 <_do_one_spec+0x124>
  409a98:	00000000 	nop
  409a9c:	1000ff34 	b	409770 <_do_one_spec+0x114>
  409aa0:	24150006 	li	s5,6
  409aa4:	1000ff32 	b	409770 <_do_one_spec+0x114>
  409aa8:	00108023 	negu	s0,s0
  409aac:	10400011 	beqz	v0,409af4 <_do_one_spec+0x498>
  409ab0:	2c620012 	sltiu	v0,v1,18
  409ab4:	8fa20020 	lw	v0,32(sp)
  409ab8:	02c02021 	move	a0,s6
  409abc:	8c460000 	lw	a2,0(v0)
  409ac0:	8c470004 	lw	a3,4(v0)
  409ac4:	26220004 	addiu	v0,s1,4
  409ac8:	afa20010 	sw	v0,16(sp)
  409acc:	8f9900e8 	lw	t9,232(gp)
  409ad0:	00000000 	nop
  409ad4:	0320f809 	jalr	t9
  409ad8:	00000000 	nop
  409adc:	8fbc0018 	lw	gp,24(sp)
  409ae0:	8ee30000 	lw	v1,0(s7)
  409ae4:	00002021 	move	a0,zero
  409ae8:	00621821 	addu	v1,v1,v0
  409aec:	1000ffa2 	b	409978 <_do_one_spec+0x31c>
  409af0:	aee30000 	sw	v1,0(s7)
  409af4:	1440ffa0 	bnez	v0,409978 <_do_one_spec+0x31c>
  409af8:	2404ffff 	li	a0,-1
  409afc:	2c620014 	sltiu	v0,v1,20
  409b00:	10400024 	beqz	v0,409b94 <_do_one_spec+0x538>
  409b04:	24020014 	li	v0,20
  409b08:	24020013 	li	v0,19
  409b0c:	10620008 	beq	v1,v0,409b30 <_do_one_spec+0x4d4>
  409b10:	27b20040 	addiu	s2,sp,64
  409b14:	8fa20020 	lw	v0,32(sp)
  409b18:	00000000 	nop
  409b1c:	90430003 	lbu	v1,3(v0)
  409b20:	24130001 	li	s3,1
  409b24:	a3a30040 	sb	v1,64(sp)
  409b28:	1000ff58 	b	40988c <_do_one_spec+0x230>
  409b2c:	a3a00041 	sb	zero,65(sp)
  409b30:	8fa20020 	lw	v0,32(sp)
  409b34:	00000000 	nop
  409b38:	8c520000 	lw	s2,0(v0)
  409b3c:	00000000 	nop
  409b40:	1240000f 	beqz	s2,409b80 <_do_one_spec+0x524>
  409b44:	00000000 	nop
  409b48:	8e220004 	lw	v0,4(s1)
  409b4c:	00000000 	nop
  409b50:	04400009 	bltz	v0,409b78 <_do_one_spec+0x51c>
  409b54:	00402821 	move	a1,v0
  409b58:	02402021 	move	a0,s2
  409b5c:	8f990264 	lw	t9,612(gp)
  409b60:	00000000 	nop
  409b64:	0320f809 	jalr	t9
  409b68:	00000000 	nop
  409b6c:	8fbc0018 	lw	gp,24(sp)
  409b70:	1000ff46 	b	40988c <_do_one_spec+0x230>
  409b74:	00409821 	move	s3,v0
  409b78:	1000fff7 	b	409b58 <_do_one_spec+0x4fc>
  409b7c:	2405ffff 	li	a1,-1
  409b80:	8f920008 	lw	s2,8(gp)
  409b84:	00000000 	nop
  409b88:	2652e0ec 	addiu	s2,s2,-7956
  409b8c:	1000ff3f 	b	40988c <_do_one_spec+0x230>
  409b90:	24130006 	li	s3,6
  409b94:	10620021 	beq	v1,v0,409c1c <_do_one_spec+0x5c0>
  409b98:	00000000 	nop
  409b9c:	8f9201e8 	lw	s2,488(gp)
  409ba0:	00000000 	nop
  409ba4:	8e520000 	lw	s2,0(s2)
  409ba8:	8e27000c 	lw	a3,12(s1)
  409bac:	2646000a 	addiu	a2,s2,10
  409bb0:	8f85007c 	lw	a1,124(gp)
  409bb4:	82420000 	lb	v0,0(s2)
  409bb8:	26520001 	addiu	s2,s2,1
  409bbc:	10470006 	beq	v0,a3,409bd8 <_do_one_spec+0x57c>
  409bc0:	0246182b 	sltu	v1,s2,a2
  409bc4:	24a50004 	addiu	a1,a1,4
  409bc8:	1060ff6b 	beqz	v1,409978 <_do_one_spec+0x31c>
  409bcc:	2404ffff 	li	a0,-1
  409bd0:	1000fff8 	b	409bb4 <_do_one_spec+0x558>
  409bd4:	00000000 	nop
  409bd8:	8ca20000 	lw	v0,0(a1)
  409bdc:	02c02021 	move	a0,s6
  409be0:	26250004 	addiu	a1,s1,4
  409be4:	27a60020 	addiu	a2,sp,32
  409be8:	0040c821 	move	t9,v0
  409bec:	0320f809 	jalr	t9
  409bf0:	00000000 	nop
  409bf4:	8fbc0018 	lw	gp,24(sp)
  409bf8:	04400006 	bltz	v0,409c14 <_do_one_spec+0x5b8>
  409bfc:	00401821 	move	v1,v0
  409c00:	8ee20000 	lw	v0,0(s7)
  409c04:	00002021 	move	a0,zero
  409c08:	00431021 	addu	v0,v0,v1
  409c0c:	1000ff5a 	b	409978 <_do_one_spec+0x31c>
  409c10:	aee20000 	sw	v0,0(s7)
  409c14:	1000ff58 	b	409978 <_do_one_spec+0x31c>
  409c18:	2404ffff 	li	a0,-1
  409c1c:	8f9900a8 	lw	t9,168(gp)
  409c20:	00000000 	nop
  409c24:	0320f809 	jalr	t9
  409c28:	00000000 	nop
  409c2c:	8fbc0018 	lw	gp,24(sp)
  409c30:	8c440000 	lw	a0,0(v0)
  409c34:	27a50040 	addiu	a1,sp,64
  409c38:	24060040 	li	a2,64
  409c3c:	8f99028c 	lw	t9,652(gp)
  409c40:	00000000 	nop
  409c44:	0320f809 	jalr	t9
  409c48:	00000000 	nop
  409c4c:	8fbc0018 	lw	gp,24(sp)
  409c50:	1000ffbd 	b	409b48 <_do_one_spec+0x4ec>
  409c54:	00409021 	move	s2,v0
  409c58:	8fa20020 	lw	v0,32(sp)
  409c5c:	8ee30000 	lw	v1,0(s7)
  409c60:	8e250010 	lw	a1,16(s1)
  409c64:	8c440000 	lw	a0,0(v0)
  409c68:	30a50f00 	andi	a1,a1,0xf00
  409c6c:	00603821 	move	a3,v1
  409c70:	000337c3 	sra	a2,v1,0x1f
  409c74:	8f990194 	lw	t9,404(gp)
  409c78:	00000000 	nop
  409c7c:	0320f809 	jalr	t9
  409c80:	00000000 	nop
  409c84:	8fbc0018 	lw	gp,24(sp)
  409c88:	1000ff3b 	b	409978 <_do_one_spec+0x31c>
  409c8c:	00002021 	move	a0,zero

00409c90 <_store_inttype>:
_store_inttype():
  409c90:	3c1c0000 	lui	gp,0x0
  409c94:	279c2eb0 	addiu	gp,gp,11952
  409c98:	0399e021 	addu	gp,gp,t9
  409c9c:	24020100 	li	v0,256
  409ca0:	10a2000c 	beq	a1,v0,409cd4 <_store_inttype+0x44>
  409ca4:	24020800 	li	v0,2048
  409ca8:	10a20007 	beq	a1,v0,409cc8 <_store_inttype+0x38>
  409cac:	24020200 	li	v0,512
  409cb0:	10a20003 	beq	a1,v0,409cc0 <_store_inttype+0x30>
  409cb4:	00000000 	nop
  409cb8:	03e00008 	jr	ra
  409cbc:	ac870000 	sw	a3,0(a0)
  409cc0:	03e00008 	jr	ra
  409cc4:	a4870000 	sh	a3,0(a0)
  409cc8:	ac860000 	sw	a2,0(a0)
  409ccc:	03e00008 	jr	ra
  409cd0:	ac870004 	sw	a3,4(a0)
  409cd4:	03e00008 	jr	ra
  409cd8:	a0870000 	sb	a3,0(a0)
  409cdc:	00000000 	nop

00409ce0 <_load_inttype>:
_load_inttype():
  409ce0:	3c1c0000 	lui	gp,0x0
  409ce4:	279c2e60 	addiu	gp,gp,11872
  409ce8:	0399e021 	addu	gp,gp,t9
  409cec:	04c00015 	bltz	a2,409d44 <_load_inttype+0x64>
  409cf0:	30820800 	andi	v0,a0,0x800
  409cf4:	1440000f 	bnez	v0,409d34 <_load_inttype+0x54>
  409cf8:	00000000 	nop
  409cfc:	24020100 	li	v0,256
  409d00:	8ca50000 	lw	a1,0(a1)
  409d04:	10820009 	beq	a0,v0,409d2c <_load_inttype+0x4c>
  409d08:	00000000 	nop
  409d0c:	24020200 	li	v0,512
  409d10:	10820004 	beq	a0,v0,409d24 <_load_inttype+0x44>
  409d14:	00000000 	nop
  409d18:	00a01821 	move	v1,a1
  409d1c:	03e00008 	jr	ra
  409d20:	00001021 	move	v0,zero
  409d24:	1000fffc 	b	409d18 <_load_inttype+0x38>
  409d28:	30a5ffff 	andi	a1,a1,0xffff
  409d2c:	1000fff7 	b	409d0c <_load_inttype+0x2c>
  409d30:	30a500ff 	andi	a1,a1,0xff
  409d34:	8ca20000 	lw	v0,0(a1)
  409d38:	8ca30004 	lw	v1,4(a1)
  409d3c:	03e00008 	jr	ra
  409d40:	00000000 	nop
  409d44:	1440fffb 	bnez	v0,409d34 <_load_inttype+0x54>
  409d48:	00000000 	nop
  409d4c:	24020100 	li	v0,256
  409d50:	8ca50000 	lw	a1,0(a1)
  409d54:	1082000a 	beq	a0,v0,409d80 <_load_inttype+0xa0>
  409d58:	00051600 	sll	v0,a1,0x18
  409d5c:	24020200 	li	v0,512
  409d60:	10820004 	beq	a0,v0,409d74 <_load_inttype+0x94>
  409d64:	00000000 	nop
  409d68:	00a01821 	move	v1,a1
  409d6c:	03e00008 	jr	ra
  409d70:	000517c3 	sra	v0,a1,0x1f
  409d74:	00051400 	sll	v0,a1,0x10
  409d78:	1000fffb 	b	409d68 <_load_inttype+0x88>
  409d7c:	00022c03 	sra	a1,v0,0x10
  409d80:	1000fff6 	b	409d5c <_load_inttype+0x7c>
  409d84:	00022e03 	sra	a1,v0,0x18
	...

00409d90 <_dtostr>:
_dtostr():
  409d90:	3c1c0000 	lui	gp,0x0
  409d94:	279c2db0 	addiu	gp,gp,11696
  409d98:	0399e021 	addu	gp,gp,t9
  409d9c:	27bdfec8 	addiu	sp,sp,-312
  409da0:	afbc0010 	sw	gp,16(sp)
  409da4:	8fa20148 	lw	v0,328(sp)
  409da8:	afb5011c 	sw	s5,284(sp)
  409dac:	afb40118 	sw	s4,280(sp)
  409db0:	afbf0130 	sw	ra,304(sp)
  409db4:	afbe012c 	sw	s8,300(sp)
  409db8:	afbc0128 	sw	gp,296(sp)
  409dbc:	afb70124 	sw	s7,292(sp)
  409dc0:	afb60120 	sw	s6,288(sp)
  409dc4:	afb30114 	sw	s3,276(sp)
  409dc8:	afb20110 	sw	s2,272(sp)
  409dcc:	afb1010c 	sw	s1,268(sp)
  409dd0:	afb00108 	sw	s0,264(sp)
  409dd4:	8057000b 	lb	s7,11(v0)
  409dd8:	afa40138 	sw	a0,312(sp)
  409ddc:	8c430000 	lw	v1,0(v0)
  409de0:	8c560004 	lw	s6,4(v0)
  409de4:	24020061 	li	v0,97
  409de8:	00c0a021 	move	s4,a2
  409dec:	00e0a821 	move	s5,a3
  409df0:	12e20254 	beq	s7,v0,40a744 <_dtostr+0x9b4>
  409df4:	afa30100 	sw	v1,256(sp)
  409df8:	24020041 	li	v0,65
  409dfc:	12e2024f 	beq	s7,v0,40a73c <_dtostr+0x9ac>
  409e00:	00000000 	nop
  409e04:	8fa20100 	lw	v0,256(sp)
  409e08:	00000000 	nop
  409e0c:	04400249 	bltz	v0,40a734 <_dtostr+0x9a4>
  409e10:	24030006 	li	v1,6
  409e14:	8fa20148 	lw	v0,328(sp)
  409e18:	00000000 	nop
  409e1c:	8c43000c 	lw	v1,12(v0)
  409e20:	00000000 	nop
  409e24:	30620002 	andi	v0,v1,0x2
  409e28:	1040023d 	beqz	v0,40a720 <_dtostr+0x990>
  409e2c:	a3a000f0 	sb	zero,240(sp)
  409e30:	2402002b 	li	v0,43
  409e34:	a3a200f0 	sb	v0,240(sp)
  409e38:	02802021 	move	a0,s4
  409e3c:	02a02821 	move	a1,s5
  409e40:	02803021 	move	a2,s4
  409e44:	02a03821 	move	a3,s5
  409e48:	a3a000f1 	sb	zero,241(sp)
  409e4c:	8f99012c 	lw	t9,300(gp)
  409e50:	00000000 	nop
  409e54:	0320f809 	jalr	t9
  409e58:	00000000 	nop
  409e5c:	8fbc0010 	lw	gp,16(sp)
  409e60:	10400069 	beqz	v0,40a008 <_dtostr+0x278>
  409e64:	02802021 	move	a0,s4
  409e68:	2ae20061 	slti	v0,s7,97
  409e6c:	2c420001 	sltiu	v0,v0,1
  409e70:	24030006 	li	v1,6
  409e74:	00621823 	subu	v1,v1,v0
  409e78:	24020003 	li	v0,3
  409e7c:	afa200a8 	sw	v0,168(sp)
  409e80:	8fa20148 	lw	v0,328(sp)
  409e84:	a3a300e9 	sb	v1,233(sp)
  409e88:	27b400ea 	addiu	s4,sp,234
  409e8c:	24030020 	li	v1,32
  409e90:	27b500a8 	addiu	s5,sp,168
  409e94:	ac430010 	sw	v1,16(v0)
  409e98:	27a500e8 	addiu	a1,sp,232
  409e9c:	02852023 	subu	a0,s4,a1
  409ea0:	24120001 	li	s2,1
  409ea4:	0244102a 	slt	v0,s2,a0
  409ea8:	10400007 	beqz	v0,409ec8 <_dtostr+0x138>
  409eac:	02a08821 	move	s1,s5
  409eb0:	2492ffff 	addiu	s2,a0,-1
  409eb4:	8e220000 	lw	v0,0(s1)
  409eb8:	2652ffff 	addiu	s2,s2,-1
  409ebc:	02c2b023 	subu	s6,s6,v0
  409ec0:	1640fffc 	bnez	s2,409eb4 <_dtostr+0x124>
  409ec4:	26310008 	addiu	s1,s1,8
  409ec8:	83a200f0 	lb	v0,240(sp)
  409ecc:	00000000 	nop
  409ed0:	10400002 	beqz	v0,409edc <_dtostr+0x14c>
  409ed4:	00009021 	move	s2,zero
  409ed8:	24120001 	li	s2,1
  409edc:	02d2b023 	subu	s6,s6,s2
  409ee0:	1ac00047 	blez	s6,40a000 <_dtostr+0x270>
  409ee4:	00000000 	nop
  409ee8:	8fa30148 	lw	v1,328(sp)
  409eec:	00000000 	nop
  409ef0:	8c62000c 	lw	v0,12(v1)
  409ef4:	00000000 	nop
  409ef8:	30420008 	andi	v0,v0,0x8
  409efc:	10400036 	beqz	v0,409fd8 <_dtostr+0x248>
  409f00:	24020007 	li	v0,7
  409f04:	a2820000 	sb	v0,0(s4)
  409f08:	24840001 	addiu	a0,a0,1
  409f0c:	ae360000 	sw	s6,0(s1)
  409f10:	8f820008 	lw	v0,8(gp)
  409f14:	00000000 	nop
  409f18:	2442e128 	addiu	v0,v0,-7896
  409f1c:	0000b021 	move	s6,zero
  409f20:	ae220004 	sw	v0,4(s1)
  409f24:	24030007 	li	v1,7
  409f28:	02d21021 	addu	v0,s6,s2
  409f2c:	a3a300e8 	sb	v1,232(sp)
  409f30:	27a300f0 	addiu	v1,sp,240
  409f34:	afa200a0 	sw	v0,160(sp)
  409f38:	afa300a4 	sw	v1,164(sp)
  409f3c:	00a0a021 	move	s4,a1
  409f40:	27b100a0 	addiu	s1,sp,160
  409f44:	18800017 	blez	a0,409fa4 <_dtostr+0x214>
  409f48:	00008021 	move	s0,zero
  409f4c:	00809021 	move	s2,a0
  409f50:	82820000 	lb	v0,0(s4)
  409f54:	8e260000 	lw	a2,0(s1)
  409f58:	00021080 	sll	v0,v0,0x2
  409f5c:	8e270004 	lw	a3,4(s1)
  409f60:	8f850008 	lw	a1,8(gp)
  409f64:	00000000 	nop
  409f68:	24a5e710 	addiu	a1,a1,-6384
  409f6c:	00a22821 	addu	a1,a1,v0
  409f70:	8ca50000 	lw	a1,0(a1)
  409f74:	8fa40138 	lw	a0,312(sp)
  409f78:	2652ffff 	addiu	s2,s2,-1
  409f7c:	8f990224 	lw	t9,548(gp)
  409f80:	00000000 	nop
  409f84:	0320f809 	jalr	t9
  409f88:	00000000 	nop
  409f8c:	8fbc0010 	lw	gp,16(sp)
  409f90:	8e230000 	lw	v1,0(s1)
  409f94:	26940001 	addiu	s4,s4,1
  409f98:	02038021 	addu	s0,s0,v1
  409f9c:	1640ffec 	bnez	s2,409f50 <_dtostr+0x1c0>
  409fa0:	26310008 	addiu	s1,s1,8
  409fa4:	02001021 	move	v0,s0
  409fa8:	8fbf0130 	lw	ra,304(sp)
  409fac:	8fbe012c 	lw	s8,300(sp)
  409fb0:	8fb70124 	lw	s7,292(sp)
  409fb4:	8fb60120 	lw	s6,288(sp)
  409fb8:	8fb5011c 	lw	s5,284(sp)
  409fbc:	8fb40118 	lw	s4,280(sp)
  409fc0:	8fb30114 	lw	s3,276(sp)
  409fc4:	8fb20110 	lw	s2,272(sp)
  409fc8:	8fb1010c 	lw	s1,268(sp)
  409fcc:	8fb00108 	lw	s0,264(sp)
  409fd0:	03e00008 	jr	ra
  409fd4:	27bd0138 	addiu	sp,sp,312
  409fd8:	8fa20148 	lw	v0,328(sp)
  409fdc:	00000000 	nop
  409fe0:	8c430010 	lw	v1,16(v0)
  409fe4:	24020030 	li	v0,48
  409fe8:	1462ffcf 	bne	v1,v0,409f28 <_dtostr+0x198>
  409fec:	24030007 	li	v1,7
  409ff0:	8fa200a8 	lw	v0,168(sp)
  409ff4:	00000000 	nop
  409ff8:	00561021 	addu	v0,v0,s6
  409ffc:	afa200a8 	sw	v0,168(sp)
  40a000:	1000ffc8 	b	409f24 <_dtostr+0x194>
  40a004:	0000b021 	move	s6,zero
  40a008:	00008021 	move	s0,zero
  40a00c:	00008821 	move	s1,zero
  40a010:	02a02821 	move	a1,s5
  40a014:	02003021 	move	a2,s0
  40a018:	02203821 	move	a3,s1
  40a01c:	8f990398 	lw	t9,920(gp)
  40a020:	00000000 	nop
  40a024:	0320f809 	jalr	t9
  40a028:	00000000 	nop
  40a02c:	8fbc0010 	lw	gp,16(sp)
  40a030:	2403ffff 	li	v1,-1
  40a034:	10400084 	beqz	v0,40a248 <_dtostr+0x4b8>
  40a038:	afa300f8 	sw	v1,248(sp)
  40a03c:	02003021 	move	a2,s0
  40a040:	02203821 	move	a3,s1
  40a044:	02802021 	move	a0,s4
  40a048:	02a02821 	move	a1,s5
  40a04c:	8f990310 	lw	t9,784(gp)
  40a050:	00000000 	nop
  40a054:	0320f809 	jalr	t9
  40a058:	00000000 	nop
  40a05c:	8fbc0010 	lw	gp,16(sp)
  40a060:	044001a4 	bltz	v0,40a6f4 <_dtostr+0x964>
  40a064:	02802021 	move	a0,s4
  40a068:	3c063fd0 	lui	a2,0x3fd0
  40a06c:	00003821 	move	a3,zero
  40a070:	02802021 	move	a0,s4
  40a074:	02a02821 	move	a1,s5
  40a078:	8f990198 	lw	t9,408(gp)
  40a07c:	00000000 	nop
  40a080:	0320f809 	jalr	t9
  40a084:	00000000 	nop
  40a088:	8fbc0010 	lw	gp,16(sp)
  40a08c:	00403021 	move	a2,v0
  40a090:	02802021 	move	a0,s4
  40a094:	02a02821 	move	a1,s5
  40a098:	00603821 	move	a3,v1
  40a09c:	8f990398 	lw	t9,920(gp)
  40a0a0:	00000000 	nop
  40a0a4:	0320f809 	jalr	t9
  40a0a8:	00000000 	nop
  40a0ac:	8fbc0010 	lw	gp,16(sp)
  40a0b0:	14400005 	bnez	v0,40a0c8 <_dtostr+0x338>
  40a0b4:	27b30018 	addiu	s3,sp,24
  40a0b8:	2ae20061 	slti	v0,s7,97
  40a0bc:	2c420001 	sltiu	v0,v0,1
  40a0c0:	1000ff6c 	b	409e74 <_dtostr+0xe4>
  40a0c4:	24030004 	li	v1,4
  40a0c8:	3c024024 	lui	v0,0x4024
  40a0cc:	00001821 	move	v1,zero
  40a0d0:	02608021 	move	s0,s3
  40a0d4:	2412000c 	li	s2,12
  40a0d8:	ae020000 	sw	v0,0(s0)
  40a0dc:	ae030004 	sw	v1,4(s0)
  40a0e0:	00402021 	move	a0,v0
  40a0e4:	00602821 	move	a1,v1
  40a0e8:	00403021 	move	a2,v0
  40a0ec:	00603821 	move	a3,v1
  40a0f0:	2652ffff 	addiu	s2,s2,-1
  40a0f4:	8f990198 	lw	t9,408(gp)
  40a0f8:	00000000 	nop
  40a0fc:	0320f809 	jalr	t9
  40a100:	00000000 	nop
  40a104:	8fbc0010 	lw	gp,16(sp)
  40a108:	0641fff3 	bgez	s2,40a0d8 <_dtostr+0x348>
  40a10c:	26100008 	addiu	s0,s0,8
  40a110:	8f810008 	lw	at,8(gp)
  40a114:	00000000 	nop
  40a118:	8c30e140 	lw	s0,-7872(at)
  40a11c:	8c31e144 	lw	s1,-7868(at)
  40a120:	02802021 	move	a0,s4
  40a124:	02a02821 	move	a1,s5
  40a128:	02003021 	move	a2,s0
  40a12c:	02203821 	move	a3,s1
  40a130:	8f990310 	lw	t9,784(gp)
  40a134:	00000000 	nop
  40a138:	0320f809 	jalr	t9
  40a13c:	00000000 	nop
  40a140:	8fbc0010 	lw	gp,16(sp)
  40a144:	04400168 	bltz	v0,40a6e8 <_dtostr+0x958>
  40a148:	afa000fc 	sw	zero,252(sp)
  40a14c:	24020008 	li	v0,8
  40a150:	26730060 	addiu	s3,s3,96
  40a154:	afa200f8 	sw	v0,248(sp)
  40a158:	241e1000 	li	s8,4096
  40a15c:	2412000c 	li	s2,12
  40a160:	8fa300fc 	lw	v1,252(sp)
  40a164:	02802021 	move	a0,s4
  40a168:	10600141 	beqz	v1,40a670 <_dtostr+0x8e0>
  40a16c:	02a02821 	move	a1,s5
  40a170:	8e660000 	lw	a2,0(s3)
  40a174:	8e670004 	lw	a3,4(s3)
  40a178:	8f990198 	lw	t9,408(gp)
  40a17c:	00000000 	nop
  40a180:	0320f809 	jalr	t9
  40a184:	00000000 	nop
  40a188:	8fbc0010 	lw	gp,16(sp)
  40a18c:	00000000 	nop
  40a190:	8f810008 	lw	at,8(gp)
  40a194:	00000000 	nop
  40a198:	8c26e148 	lw	a2,-7864(at)
  40a19c:	8c27e14c 	lw	a3,-7860(at)
  40a1a0:	00402021 	move	a0,v0
  40a1a4:	00602821 	move	a1,v1
  40a1a8:	00408021 	move	s0,v0
  40a1ac:	00608821 	move	s1,v1
  40a1b0:	8f990310 	lw	t9,784(gp)
  40a1b4:	00000000 	nop
  40a1b8:	0320f809 	jalr	t9
  40a1bc:	00000000 	nop
  40a1c0:	8fbc0010 	lw	gp,16(sp)
  40a1c4:	04400124 	bltz	v0,40a658 <_dtostr+0x8c8>
  40a1c8:	00000000 	nop
  40a1cc:	2652ffff 	addiu	s2,s2,-1
  40a1d0:	2402ffff 	li	v0,-1
  40a1d4:	001ef043 	sra	s8,s8,0x1
  40a1d8:	1642ffe1 	bne	s2,v0,40a160 <_dtostr+0x3d0>
  40a1dc:	2673fff8 	addiu	s3,s3,-8
  40a1e0:	8f810008 	lw	at,8(gp)
  40a1e4:	00000000 	nop
  40a1e8:	8c26e150 	lw	a2,-7856(at)
  40a1ec:	8c27e154 	lw	a3,-7852(at)
  40a1f0:	02802021 	move	a0,s4
  40a1f4:	02a02821 	move	a1,s5
  40a1f8:	8f990068 	lw	t9,104(gp)
  40a1fc:	00000000 	nop
  40a200:	0320f809 	jalr	t9
  40a204:	00000000 	nop
  40a208:	8fbc0010 	lw	gp,16(sp)
  40a20c:	0440000e 	bltz	v0,40a248 <_dtostr+0x4b8>
  40a210:	02802021 	move	a0,s4
  40a214:	3c064024 	lui	a2,0x4024
  40a218:	00003821 	move	a3,zero
  40a21c:	02a02821 	move	a1,s5
  40a220:	8f9901a4 	lw	t9,420(gp)
  40a224:	00000000 	nop
  40a228:	0320f809 	jalr	t9
  40a22c:	00000000 	nop
  40a230:	8fbc0010 	lw	gp,16(sp)
  40a234:	0040a021 	move	s4,v0
  40a238:	8fa200f8 	lw	v0,248(sp)
  40a23c:	0060a821 	move	s5,v1
  40a240:	24420001 	addiu	v0,v0,1
  40a244:	afa200f8 	sw	v0,248(sp)
  40a248:	27b30082 	addiu	s3,sp,130
  40a24c:	24120002 	li	s2,2
  40a250:	02a02821 	move	a1,s5
  40a254:	02802021 	move	a0,s4
  40a258:	8f990248 	lw	t9,584(gp)
  40a25c:	00000000 	nop
  40a260:	0320f809 	jalr	t9
  40a264:	00000000 	nop
  40a268:	8fbc0010 	lw	gp,16(sp)
  40a26c:	00402021 	move	a0,v0
  40a270:	00408021 	move	s0,v0
  40a274:	8f990318 	lw	t9,792(gp)
  40a278:	00000000 	nop
  40a27c:	0320f809 	jalr	t9
  40a280:	00000000 	nop
  40a284:	8fbc0010 	lw	gp,16(sp)
  40a288:	00403021 	move	a2,v0
  40a28c:	02802021 	move	a0,s4
  40a290:	02a02821 	move	a1,s5
  40a294:	00603821 	move	a3,v1
  40a298:	8f99003c 	lw	t9,60(gp)
  40a29c:	00000000 	nop
  40a2a0:	0320f809 	jalr	t9
  40a2a4:	00000000 	nop
  40a2a8:	8fbc0010 	lw	gp,16(sp)
  40a2ac:	00000000 	nop
  40a2b0:	8f810008 	lw	at,8(gp)
  40a2b4:	00000000 	nop
  40a2b8:	8c26e158 	lw	a2,-7848(at)
  40a2bc:	8c27e15c 	lw	a3,-7844(at)
  40a2c0:	00402021 	move	a0,v0
  40a2c4:	00602821 	move	a1,v1
  40a2c8:	8f990198 	lw	t9,408(gp)
  40a2cc:	00000000 	nop
  40a2d0:	0320f809 	jalr	t9
  40a2d4:	00000000 	nop
  40a2d8:	8fbc0010 	lw	gp,16(sp)
  40a2dc:	02602021 	move	a0,s3
  40a2e0:	02003821 	move	a3,s0
  40a2e4:	8f850008 	lw	a1,8(gp)
  40a2e8:	00000000 	nop
  40a2ec:	24a5e12c 	addiu	a1,a1,-7892
  40a2f0:	24060009 	li	a2,9
  40a2f4:	0040a021 	move	s4,v0
  40a2f8:	0060a821 	move	s5,v1
  40a2fc:	2652ffff 	addiu	s2,s2,-1
  40a300:	8f99011c 	lw	t9,284(gp)
  40a304:	00000000 	nop
  40a308:	0320f809 	jalr	t9
  40a30c:	00000000 	nop
  40a310:	8fbc0010 	lw	gp,16(sp)
  40a314:	0641ffce 	bgez	s2,40a250 <_dtostr+0x4c0>
  40a318:	02629821 	addu	s3,s3,v0
  40a31c:	24020065 	li	v0,101
  40a320:	2ae30061 	slti	v1,s7,97
  40a324:	10600006 	beqz	v1,40a340 <_dtostr+0x5b0>
  40a328:	a3a200e0 	sb	v0,224(sp)
  40a32c:	26e20020 	addiu	v0,s7,32
  40a330:	00021600 	sll	v0,v0,0x18
  40a334:	24030045 	li	v1,69
  40a338:	a3a300e0 	sb	v1,224(sp)
  40a33c:	0002be03 	sra	s7,v0,0x18
  40a340:	24020067 	li	v0,103
  40a344:	8fa70100 	lw	a3,256(sp)
  40a348:	12e200bf 	beq	s7,v0,40a648 <_dtostr+0x8b8>
  40a34c:	02e08021 	move	s0,s7
  40a350:	24020066 	li	v0,102
  40a354:	12e200aa 	beq	s7,v0,40a600 <_dtostr+0x870>
  40a358:	00000000 	nop
  40a35c:	24020030 	li	v0,48
  40a360:	28e30014 	slti	v1,a3,20
  40a364:	a3a20081 	sb	v0,129(sp)
  40a368:	a3a00080 	sb	zero,128(sp)
  40a36c:	27b30081 	addiu	s3,sp,129
  40a370:	00009021 	move	s2,zero
  40a374:	10600008 	beqz	v1,40a398 <_dtostr+0x608>
  40a378:	27a50096 	addiu	a1,sp,150
  40a37c:	02671821 	addu	v1,s3,a3
  40a380:	80620002 	lb	v0,2(v1)
  40a384:	00000000 	nop
  40a388:	28420035 	slti	v0,v0,53
  40a38c:	14400002 	bnez	v0,40a398 <_dtostr+0x608>
  40a390:	24650002 	addiu	a1,v1,2
  40a394:	24120001 	li	s2,1
  40a398:	24060030 	li	a2,48
  40a39c:	24a5ffff 	addiu	a1,a1,-1
  40a3a0:	90a30000 	lbu	v1,0(a1)
  40a3a4:	00000000 	nop
  40a3a8:	00721821 	addu	v1,v1,s2
  40a3ac:	00031600 	sll	v0,v1,0x18
  40a3b0:	00021603 	sra	v0,v0,0x18
  40a3b4:	2844003a 	slti	a0,v0,58
  40a3b8:	1046fff8 	beq	v0,a2,40a39c <_dtostr+0x60c>
  40a3bc:	a0a30000 	sb	v1,0(a1)
  40a3c0:	1080fff6 	beqz	a0,40a39c <_dtostr+0x60c>
  40a3c4:	0265102b 	sltu	v0,s3,a1
  40a3c8:	8fa400f8 	lw	a0,248(sp)
  40a3cc:	1440008a 	bnez	v0,40a5f8 <_dtostr+0x868>
  40a3d0:	00000000 	nop
  40a3d4:	24840001 	addiu	a0,a0,1
  40a3d8:	02602821 	move	a1,s3
  40a3dc:	24a50001 	addiu	a1,a1,1
  40a3e0:	24020067 	li	v0,103
  40a3e4:	12e2007c 	beq	s7,v0,40a5d8 <_dtostr+0x848>
  40a3e8:	a0a00000 	sb	zero,0(a1)
  40a3ec:	24020066 	li	v0,102
  40a3f0:	12e20002 	beq	s7,v0,40a3fc <_dtostr+0x66c>
  40a3f4:	afa400f8 	sw	a0,248(sp)
  40a3f8:	00002021 	move	a0,zero
  40a3fc:	04800073 	bltz	a0,40a5cc <_dtostr+0x83c>
  40a400:	24020030 	li	v0,48
  40a404:	24030001 	li	v1,1
  40a408:	a3a000e9 	sb	zero,233(sp)
  40a40c:	afa300a8 	sw	v1,168(sp)
  40a410:	82620000 	lb	v0,0(s3)
  40a414:	26730001 	addiu	s3,s3,1
  40a418:	2442ffd0 	addiu	v0,v0,-48
  40a41c:	afa200ac 	sw	v0,172(sp)
  40a420:	00b39023 	subu	s2,a1,s3
  40a424:	27b500a8 	addiu	s5,sp,168
  40a428:	27b400ea 	addiu	s4,sp,234
  40a42c:	04800012 	bltz	a0,40a478 <_dtostr+0x6e8>
  40a430:	27b100b0 	addiu	s1,sp,176
  40a434:	0092102a 	slt	v0,a0,s2
  40a438:	1440005a 	bnez	v0,40a5a4 <_dtostr+0x814>
  40a43c:	00000000 	nop
  40a440:	00922023 	subu	a0,a0,s2
  40a444:	afb200b0 	sw	s2,176(sp)
  40a448:	a3a300ea 	sb	v1,234(sp)
  40a44c:	afb300b4 	sw	s3,180(sp)
  40a450:	27b400eb 	addiu	s4,sp,235
  40a454:	27b100b8 	addiu	s1,sp,184
  40a458:	18800006 	blez	a0,40a474 <_dtostr+0x6e4>
  40a45c:	00009021 	move	s2,zero
  40a460:	27b400ec 	addiu	s4,sp,236
  40a464:	27b100c0 	addiu	s1,sp,192
  40a468:	afa400b8 	sw	a0,184(sp)
  40a46c:	a3a000eb 	sb	zero,235(sp)
  40a470:	afa000bc 	sw	zero,188(sp)
  40a474:	2404ffff 	li	a0,-1
  40a478:	8fa30148 	lw	v1,328(sp)
  40a47c:	00000000 	nop
  40a480:	8c62000c 	lw	v0,12(v1)
  40a484:	00000000 	nop
  40a488:	30420010 	andi	v0,v0,0x10
  40a48c:	1440000a 	bnez	v0,40a4b8 <_dtostr+0x728>
  40a490:	24020002 	li	v0,2
  40a494:	16400008 	bnez	s2,40a4b8 <_dtostr+0x728>
  40a498:	00000000 	nop
  40a49c:	24020067 	li	v0,103
  40a4a0:	1202000a 	beq	s0,v0,40a4cc <_dtostr+0x73c>
  40a4a4:	00000000 	nop
  40a4a8:	8fa20100 	lw	v0,256(sp)
  40a4ac:	00000000 	nop
  40a4b0:	18400006 	blez	v0,40a4cc <_dtostr+0x73c>
  40a4b4:	24020002 	li	v0,2
  40a4b8:	24030001 	li	v1,1
  40a4bc:	a2820000 	sb	v0,0(s4)
  40a4c0:	ae230000 	sw	v1,0(s1)
  40a4c4:	26940001 	addiu	s4,s4,1
  40a4c8:	26310008 	addiu	s1,s1,8
  40a4cc:	24840001 	addiu	a0,a0,1
  40a4d0:	0480002d 	bltz	a0,40a588 <_dtostr+0x7f8>
  40a4d4:	00041023 	negu	v0,a0
  40a4d8:	12400009 	beqz	s2,40a500 <_dtostr+0x770>
  40a4dc:	24020067 	li	v0,103
  40a4e0:	24020001 	li	v0,1
  40a4e4:	a2820000 	sb	v0,0(s4)
  40a4e8:	ae320000 	sw	s2,0(s1)
  40a4ec:	26310004 	addiu	s1,s1,4
  40a4f0:	ae330000 	sw	s3,0(s1)
  40a4f4:	26940001 	addiu	s4,s4,1
  40a4f8:	26310004 	addiu	s1,s1,4
  40a4fc:	24020067 	li	v0,103
  40a500:	1202000d 	beq	s0,v0,40a538 <_dtostr+0x7a8>
  40a504:	02449023 	subu	s2,s2,a0
  40a508:	8fa30100 	lw	v1,256(sp)
  40a50c:	00000000 	nop
  40a510:	0243102a 	slt	v0,s2,v1
  40a514:	10400009 	beqz	v0,40a53c <_dtostr+0x7ac>
  40a518:	24020066 	li	v0,102
  40a51c:	00729023 	subu	s2,v1,s2
  40a520:	a2800000 	sb	zero,0(s4)
  40a524:	ae320000 	sw	s2,0(s1)
  40a528:	26310004 	addiu	s1,s1,4
  40a52c:	ae200000 	sw	zero,0(s1)
  40a530:	26940001 	addiu	s4,s4,1
  40a534:	26310004 	addiu	s1,s1,4
  40a538:	24020066 	li	v0,102
  40a53c:	12e2fe56 	beq	s7,v0,409e98 <_dtostr+0x108>
  40a540:	24020001 	li	v0,1
  40a544:	a2820000 	sb	v0,0(s4)
  40a548:	27b000e0 	addiu	s0,sp,224
  40a54c:	83a600e0 	lb	a2,224(sp)
  40a550:	8fa700f8 	lw	a3,248(sp)
  40a554:	8f850008 	lw	a1,8(gp)
  40a558:	00000000 	nop
  40a55c:	24a5e134 	addiu	a1,a1,-7884
  40a560:	02002021 	move	a0,s0
  40a564:	8f99011c 	lw	t9,284(gp)
  40a568:	00000000 	nop
  40a56c:	0320f809 	jalr	t9
  40a570:	00000000 	nop
  40a574:	8fbc0010 	lw	gp,16(sp)
  40a578:	ae220000 	sw	v0,0(s1)
  40a57c:	ae300004 	sw	s0,4(s1)
  40a580:	1000fe45 	b	409e98 <_dtostr+0x108>
  40a584:	26940001 	addiu	s4,s4,1
  40a588:	a2800000 	sb	zero,0(s4)
  40a58c:	ae220000 	sw	v0,0(s1)
  40a590:	26310004 	addiu	s1,s1,4
  40a594:	ae200000 	sw	zero,0(s1)
  40a598:	26940001 	addiu	s4,s4,1
  40a59c:	1000ffce 	b	40a4d8 <_dtostr+0x748>
  40a5a0:	26310004 	addiu	s1,s1,4
  40a5a4:	1880ffb3 	blez	a0,40a474 <_dtostr+0x6e4>
  40a5a8:	00000000 	nop
  40a5ac:	afb300b4 	sw	s3,180(sp)
  40a5b0:	a3a300ea 	sb	v1,234(sp)
  40a5b4:	afa400b0 	sw	a0,176(sp)
  40a5b8:	02449023 	subu	s2,s2,a0
  40a5bc:	27b400eb 	addiu	s4,sp,235
  40a5c0:	27b100b8 	addiu	s1,sp,184
  40a5c4:	1000ffab 	b	40a474 <_dtostr+0x6e4>
  40a5c8:	02649821 	addu	s3,s3,a0
  40a5cc:	2673ffff 	addiu	s3,s3,-1
  40a5d0:	1000ff8c 	b	40a404 <_dtostr+0x674>
  40a5d4:	a2620000 	sb	v0,0(s3)
  40a5d8:	2882fffc 	slti	v0,a0,-4
  40a5dc:	1440ff84 	bnez	v0,40a3f0 <_dtostr+0x660>
  40a5e0:	24020066 	li	v0,102
  40a5e4:	00e4102a 	slt	v0,a3,a0
  40a5e8:	1440ff81 	bnez	v0,40a3f0 <_dtostr+0x660>
  40a5ec:	24020066 	li	v0,102
  40a5f0:	1000ff7f 	b	40a3f0 <_dtostr+0x660>
  40a5f4:	24170066 	li	s7,102
  40a5f8:	1000ff78 	b	40a3dc <_dtostr+0x64c>
  40a5fc:	26730001 	addiu	s3,s3,1
  40a600:	8fa300f8 	lw	v1,248(sp)
  40a604:	00000000 	nop
  40a608:	00e33821 	addu	a3,a3,v1
  40a60c:	28e2ffff 	slti	v0,a3,-1
  40a610:	1040ff53 	beqz	v0,40a360 <_dtostr+0x5d0>
  40a614:	24020030 	li	v0,48
  40a618:	27a40080 	addiu	a0,sp,128
  40a61c:	24050030 	li	a1,48
  40a620:	24060014 	li	a2,20
  40a624:	8f99017c 	lw	t9,380(gp)
  40a628:	00000000 	nop
  40a62c:	0320f809 	jalr	t9
  40a630:	00000000 	nop
  40a634:	8fbc0010 	lw	gp,16(sp)
  40a638:	2402ffff 	li	v0,-1
  40a63c:	afa200f8 	sw	v0,248(sp)
  40a640:	1000ff46 	b	40a35c <_dtostr+0x5cc>
  40a644:	2407ffff 	li	a3,-1
  40a648:	18e0ff42 	blez	a3,40a354 <_dtostr+0x5c4>
  40a64c:	24020066 	li	v0,102
  40a650:	1000ff40 	b	40a354 <_dtostr+0x5c4>
  40a654:	24e7ffff 	addiu	a3,a3,-1
  40a658:	8fa200f8 	lw	v0,248(sp)
  40a65c:	0200a021 	move	s4,s0
  40a660:	005e1023 	subu	v0,v0,s8
  40a664:	0220a821 	move	s5,s1
  40a668:	1000fed8 	b	40a1cc <_dtostr+0x43c>
  40a66c:	afa200f8 	sw	v0,248(sp)
  40a670:	8e660000 	lw	a2,0(s3)
  40a674:	8e670004 	lw	a3,4(s3)
  40a678:	02802021 	move	a0,s4
  40a67c:	8f9901a4 	lw	t9,420(gp)
  40a680:	00000000 	nop
  40a684:	0320f809 	jalr	t9
  40a688:	00000000 	nop
  40a68c:	8fbc0010 	lw	gp,16(sp)
  40a690:	00000000 	nop
  40a694:	8f810008 	lw	at,8(gp)
  40a698:	00000000 	nop
  40a69c:	8c26e160 	lw	a2,-7840(at)
  40a6a0:	8c27e164 	lw	a3,-7836(at)
  40a6a4:	00402021 	move	a0,v0
  40a6a8:	00602821 	move	a1,v1
  40a6ac:	00408021 	move	s0,v0
  40a6b0:	00608821 	move	s1,v1
  40a6b4:	8f990068 	lw	t9,104(gp)
  40a6b8:	00000000 	nop
  40a6bc:	0320f809 	jalr	t9
  40a6c0:	00000000 	nop
  40a6c4:	8fbc0010 	lw	gp,16(sp)
  40a6c8:	0440fec0 	bltz	v0,40a1cc <_dtostr+0x43c>
  40a6cc:	00000000 	nop
  40a6d0:	8fa300f8 	lw	v1,248(sp)
  40a6d4:	0200a021 	move	s4,s0
  40a6d8:	007e1821 	addu	v1,v1,s8
  40a6dc:	0220a821 	move	s5,s1
  40a6e0:	1000feba 	b	40a1cc <_dtostr+0x43c>
  40a6e4:	afa300f8 	sw	v1,248(sp)
  40a6e8:	24030001 	li	v1,1
  40a6ec:	1000fe97 	b	40a14c <_dtostr+0x3bc>
  40a6f0:	afa300fc 	sw	v1,252(sp)
  40a6f4:	02a02821 	move	a1,s5
  40a6f8:	2402002d 	li	v0,45
  40a6fc:	a3a200f0 	sb	v0,240(sp)
  40a700:	8f9901ac 	lw	t9,428(gp)
  40a704:	00000000 	nop
  40a708:	0320f809 	jalr	t9
  40a70c:	00000000 	nop
  40a710:	8fbc0010 	lw	gp,16(sp)
  40a714:	0040a021 	move	s4,v0
  40a718:	1000fe53 	b	40a068 <_dtostr+0x2d8>
  40a71c:	0060a821 	move	s5,v1
  40a720:	30620001 	andi	v0,v1,0x1
  40a724:	1040fdc5 	beqz	v0,409e3c <_dtostr+0xac>
  40a728:	02802021 	move	a0,s4
  40a72c:	1000fdc1 	b	409e34 <_dtostr+0xa4>
  40a730:	24020020 	li	v0,32
  40a734:	1000fdb7 	b	409e14 <_dtostr+0x84>
  40a738:	afa30100 	sw	v1,256(sp)
  40a73c:	1000fdb1 	b	409e04 <_dtostr+0x74>
  40a740:	24170047 	li	s7,71
  40a744:	1000fdac 	b	409df8 <_dtostr+0x68>
  40a748:	24170067 	li	s7,103
  40a74c:	00000000 	nop

0040a750 <mempcpy>:
__mempcpy():
  40a750:	3c1c0000 	lui	gp,0x0
  40a754:	279c23f0 	addiu	gp,gp,9200
  40a758:	0399e021 	addu	gp,gp,t9
  40a75c:	10c00007 	beqz	a2,40a77c <mempcpy+0x2c>
  40a760:	00000000 	nop
  40a764:	90a20000 	lbu	v0,0(a1)
  40a768:	24c6ffff 	addiu	a2,a2,-1
  40a76c:	a0820000 	sb	v0,0(a0)
  40a770:	24a50001 	addiu	a1,a1,1
  40a774:	14c0fffb 	bnez	a2,40a764 <mempcpy+0x14>
  40a778:	24840001 	addiu	a0,a0,1
  40a77c:	03e00008 	jr	ra
  40a780:	00801021 	move	v0,a0
	...

0040a790 <memset>:
memset():
  40a790:	3c1c0000 	lui	gp,0x0
  40a794:	279c23b0 	addiu	gp,gp,9136
  40a798:	0399e021 	addu	gp,gp,t9
  40a79c:	00801021 	move	v0,a0
  40a7a0:	10c00005 	beqz	a2,40a7b8 <memset+0x28>
  40a7a4:	00801821 	move	v1,a0
  40a7a8:	24c6ffff 	addiu	a2,a2,-1
  40a7ac:	a0650000 	sb	a1,0(v1)
  40a7b0:	14c0fffd 	bnez	a2,40a7a8 <memset+0x18>
  40a7b4:	24630001 	addiu	v1,v1,1
  40a7b8:	03e00008 	jr	ra
  40a7bc:	00000000 	nop

0040a7c0 <strcat>:
strcat():
  40a7c0:	3c1c0000 	lui	gp,0x0
  40a7c4:	279c2380 	addiu	gp,gp,9088
  40a7c8:	0399e021 	addu	gp,gp,t9
  40a7cc:	00801821 	move	v1,a0
  40a7d0:	90620000 	lbu	v0,0(v1)
  40a7d4:	00000000 	nop
  40a7d8:	1440fffd 	bnez	v0,40a7d0 <strcat+0x10>
  40a7dc:	24630001 	addiu	v1,v1,1
  40a7e0:	2463ffff 	addiu	v1,v1,-1
  40a7e4:	90a20000 	lbu	v0,0(a1)
  40a7e8:	24a50001 	addiu	a1,a1,1
  40a7ec:	a0620000 	sb	v0,0(v1)
  40a7f0:	1440fffc 	bnez	v0,40a7e4 <strcat+0x24>
  40a7f4:	24630001 	addiu	v1,v1,1
  40a7f8:	03e00008 	jr	ra
  40a7fc:	00801021 	move	v0,a0

0040a800 <strchr>:
strchr():
  40a800:	3c1c0000 	lui	gp,0x0
  40a804:	279c2340 	addiu	gp,gp,9024
  40a808:	0399e021 	addu	gp,gp,t9
  40a80c:	00052e00 	sll	a1,a1,0x18
  40a810:	00052e03 	sra	a1,a1,0x18
  40a814:	80830000 	lb	v1,0(a0)
  40a818:	00000000 	nop
  40a81c:	10650004 	beq	v1,a1,40a830 <strchr+0x30>
  40a820:	00801021 	move	v0,a0
  40a824:	1460fffb 	bnez	v1,40a814 <strchr+0x14>
  40a828:	24840001 	addiu	a0,a0,1
  40a82c:	00001021 	move	v0,zero
  40a830:	03e00008 	jr	ra
  40a834:	00000000 	nop
	...

0040a840 <strcpy>:
strcpy():
  40a840:	3c1c0000 	lui	gp,0x0
  40a844:	279c2300 	addiu	gp,gp,8960
  40a848:	0399e021 	addu	gp,gp,t9
  40a84c:	00801821 	move	v1,a0
  40a850:	90a20000 	lbu	v0,0(a1)
  40a854:	24a50001 	addiu	a1,a1,1
  40a858:	a0620000 	sb	v0,0(v1)
  40a85c:	1440fffc 	bnez	v0,40a850 <strcpy+0x10>
  40a860:	24630001 	addiu	v1,v1,1
  40a864:	03e00008 	jr	ra
  40a868:	00801021 	move	v0,a0
  40a86c:	00000000 	nop

0040a870 <strndup>:
strndup():
  40a870:	3c1c0000 	lui	gp,0x0
  40a874:	279c22d0 	addiu	gp,gp,8912
  40a878:	0399e021 	addu	gp,gp,t9
  40a87c:	27bdffd0 	addiu	sp,sp,-48
  40a880:	afbc0010 	sw	gp,16(sp)
  40a884:	afbf0028 	sw	ra,40(sp)
  40a888:	afb20020 	sw	s2,32(sp)
  40a88c:	afb1001c 	sw	s1,28(sp)
  40a890:	afb00018 	sw	s0,24(sp)
  40a894:	afbc0024 	sw	gp,36(sp)
  40a898:	00808021 	move	s0,a0
  40a89c:	8f990264 	lw	t9,612(gp)
  40a8a0:	00000000 	nop
  40a8a4:	0320f809 	jalr	t9
  40a8a8:	00000000 	nop
  40a8ac:	8fbc0010 	lw	gp,16(sp)
  40a8b0:	24440001 	addiu	a0,v0,1
  40a8b4:	00409021 	move	s2,v0
  40a8b8:	8f9902f4 	lw	t9,756(gp)
  40a8bc:	00000000 	nop
  40a8c0:	0320f809 	jalr	t9
  40a8c4:	00000000 	nop
  40a8c8:	8fbc0010 	lw	gp,16(sp)
  40a8cc:	00408821 	move	s1,v0
  40a8d0:	02002821 	move	a1,s0
  40a8d4:	00402021 	move	a0,v0
  40a8d8:	10400008 	beqz	v0,40a8fc <strndup+0x8c>
  40a8dc:	02403021 	move	a2,s2
  40a8e0:	8f990320 	lw	t9,800(gp)
  40a8e4:	00000000 	nop
  40a8e8:	0320f809 	jalr	t9
  40a8ec:	00000000 	nop
  40a8f0:	8fbc0010 	lw	gp,16(sp)
  40a8f4:	02321821 	addu	v1,s1,s2
  40a8f8:	a0600000 	sb	zero,0(v1)
  40a8fc:	02201021 	move	v0,s1
  40a900:	8fbf0028 	lw	ra,40(sp)
  40a904:	8fb20020 	lw	s2,32(sp)
  40a908:	8fb1001c 	lw	s1,28(sp)
  40a90c:	8fb00018 	lw	s0,24(sp)
  40a910:	03e00008 	jr	ra
  40a914:	27bd0030 	addiu	sp,sp,48
	...

0040a920 <strnlen>:
strnlen():
  40a920:	3c1c0000 	lui	gp,0x0
  40a924:	279c2220 	addiu	gp,gp,8736
  40a928:	0399e021 	addu	gp,gp,t9
  40a92c:	10a0000c 	beqz	a1,40a960 <strnlen+0x40>
  40a930:	00801821 	move	v1,a0
  40a934:	80820000 	lb	v0,0(a0)
  40a938:	00000000 	nop
  40a93c:	10400008 	beqz	v0,40a960 <strnlen+0x40>
  40a940:	00000000 	nop
  40a944:	24a5ffff 	addiu	a1,a1,-1
  40a948:	10a00005 	beqz	a1,40a960 <strnlen+0x40>
  40a94c:	24630001 	addiu	v1,v1,1
  40a950:	80620000 	lb	v0,0(v1)
  40a954:	00000000 	nop
  40a958:	1440fffa 	bnez	v0,40a944 <strnlen+0x24>
  40a95c:	00000000 	nop
  40a960:	03e00008 	jr	ra
  40a964:	00641023 	subu	v0,v1,a0
	...

0040a970 <_glibc_strerror_r>:
_glibc_strerror_r():
  40a970:	3c1c0000 	lui	gp,0x0
  40a974:	279c21d0 	addiu	gp,gp,8656
  40a978:	0399e021 	addu	gp,gp,t9
  40a97c:	27bdffd8 	addiu	sp,sp,-40
  40a980:	afbc0010 	sw	gp,16(sp)
  40a984:	afb00018 	sw	s0,24(sp)
  40a988:	00a08021 	move	s0,a1
  40a98c:	afbf0020 	sw	ra,32(sp)
  40a990:	afbc001c 	sw	gp,28(sp)
  40a994:	8f99013c 	lw	t9,316(gp)
  40a998:	00000000 	nop
  40a99c:	0320f809 	jalr	t9
  40a9a0:	00000000 	nop
  40a9a4:	8fbc0010 	lw	gp,16(sp)
  40a9a8:	02001021 	move	v0,s0
  40a9ac:	8fbf0020 	lw	ra,32(sp)
  40a9b0:	8fb00018 	lw	s0,24(sp)
  40a9b4:	03e00008 	jr	ra
  40a9b8:	27bd0028 	addiu	sp,sp,40
  40a9bc:	00000000 	nop

0040a9c0 <__libc_sigaction>:
sigaction():
  40a9c0:	3c1c0000 	lui	gp,0x0
  40a9c4:	279c2180 	addiu	gp,gp,8576
  40a9c8:	0399e021 	addu	gp,gp,t9
  40a9cc:	27bdff90 	addiu	sp,sp,-112
  40a9d0:	afbc0010 	sw	gp,16(sp)
  40a9d4:	afb00058 	sw	s0,88(sp)
  40a9d8:	00a08021 	move	s0,a1
  40a9dc:	afb20060 	sw	s2,96(sp)
  40a9e0:	afb1005c 	sw	s1,92(sp)
  40a9e4:	00809021 	move	s2,a0
  40a9e8:	00c08821 	move	s1,a2
  40a9ec:	afbf0068 	sw	ra,104(sp)
  40a9f0:	afbc0064 	sw	gp,100(sp)
  40a9f4:	24a50008 	addiu	a1,a1,8
  40a9f8:	24060010 	li	a2,16
  40a9fc:	12000031 	beqz	s0,40aac4 <__libc_sigaction+0x104>
  40aa00:	27a40020 	addiu	a0,sp,32
  40aa04:	8e020004 	lw	v0,4(s0)
  40aa08:	00000000 	nop
  40aa0c:	afa2001c 	sw	v0,28(sp)
  40aa10:	8f990320 	lw	t9,800(gp)
  40aa14:	00000000 	nop
  40aa18:	0320f809 	jalr	t9
  40aa1c:	00000000 	nop
  40aa20:	8fbc0010 	lw	gp,16(sp)
  40aa24:	8e030088 	lw	v1,136(s0)
  40aa28:	8e020000 	lw	v0,0(s0)
  40aa2c:	27a50018 	addiu	a1,sp,24
  40aa30:	afa20018 	sw	v0,24(sp)
  40aa34:	afa30030 	sw	v1,48(sp)
  40aa38:	12200020 	beqz	s1,40aabc <__libc_sigaction+0xfc>
  40aa3c:	27a60038 	addiu	a2,sp,56
  40aa40:	02402021 	move	a0,s2
  40aa44:	24070010 	li	a3,16
  40aa48:	8f9900dc 	lw	t9,220(gp)
  40aa4c:	00000000 	nop
  40aa50:	0320f809 	jalr	t9
  40aa54:	00000000 	nop
  40aa58:	8fbc0010 	lw	gp,16(sp)
  40aa5c:	12200010 	beqz	s1,40aaa0 <__libc_sigaction+0xe0>
  40aa60:	00408021 	move	s0,v0
  40aa64:	26240008 	addiu	a0,s1,8
  40aa68:	0440000d 	bltz	v0,40aaa0 <__libc_sigaction+0xe0>
  40aa6c:	24060080 	li	a2,128
  40aa70:	8fa2003c 	lw	v0,60(sp)
  40aa74:	27a50040 	addiu	a1,sp,64
  40aa78:	ae220004 	sw	v0,4(s1)
  40aa7c:	8f990320 	lw	t9,800(gp)
  40aa80:	00000000 	nop
  40aa84:	0320f809 	jalr	t9
  40aa88:	00000000 	nop
  40aa8c:	8fbc0010 	lw	gp,16(sp)
  40aa90:	8fa30050 	lw	v1,80(sp)
  40aa94:	8fa20038 	lw	v0,56(sp)
  40aa98:	ae230088 	sw	v1,136(s1)
  40aa9c:	ae220000 	sw	v0,0(s1)
  40aaa0:	02001021 	move	v0,s0
  40aaa4:	8fbf0068 	lw	ra,104(sp)
  40aaa8:	8fb20060 	lw	s2,96(sp)
  40aaac:	8fb1005c 	lw	s1,92(sp)
  40aab0:	8fb00058 	lw	s0,88(sp)
  40aab4:	03e00008 	jr	ra
  40aab8:	27bd0070 	addiu	sp,sp,112
  40aabc:	1000ffe0 	b	40aa40 <__libc_sigaction+0x80>
  40aac0:	00003021 	move	a2,zero
  40aac4:	1000ffdc 	b	40aa38 <__libc_sigaction+0x78>
  40aac8:	00002821 	move	a1,zero
  40aacc:	00000000 	nop

0040aad0 <getenv>:
getenv():
  40aad0:	3c1c0000 	lui	gp,0x0
  40aad4:	279c2070 	addiu	gp,gp,8304
  40aad8:	0399e021 	addu	gp,gp,t9
  40aadc:	27bdffc8 	addiu	sp,sp,-56
  40aae0:	afbc0010 	sw	gp,16(sp)
  40aae4:	afb00018 	sw	s0,24(sp)
  40aae8:	8f90029c 	lw	s0,668(gp)
  40aaec:	00000000 	nop
  40aaf0:	8e100000 	lw	s0,0(s0)
  40aaf4:	afb30024 	sw	s3,36(sp)
  40aaf8:	afbf0030 	sw	ra,48(sp)
  40aafc:	afbc002c 	sw	gp,44(sp)
  40ab00:	afb40028 	sw	s4,40(sp)
  40ab04:	afb20020 	sw	s2,32(sp)
  40ab08:	afb1001c 	sw	s1,28(sp)
  40ab0c:	00809821 	move	s3,a0
  40ab10:	1200001f 	beqz	s0,40ab90 <getenv+0xc0>
  40ab14:	00001021 	move	v0,zero
  40ab18:	8f990070 	lw	t9,112(gp)
  40ab1c:	00000000 	nop
  40ab20:	0320f809 	jalr	t9
  40ab24:	00000000 	nop
  40ab28:	8fbc0010 	lw	gp,16(sp)
  40ab2c:	8e110000 	lw	s1,0(s0)
  40ab30:	00000000 	nop
  40ab34:	12200015 	beqz	s1,40ab8c <getenv+0xbc>
  40ab38:	00409021 	move	s2,v0
  40ab3c:	2414003d 	li	s4,61
  40ab40:	8e050000 	lw	a1,0(s0)
  40ab44:	02602021 	move	a0,s3
  40ab48:	02403021 	move	a2,s2
  40ab4c:	8f9901a8 	lw	t9,424(gp)
  40ab50:	00000000 	nop
  40ab54:	0320f809 	jalr	t9
  40ab58:	00000000 	nop
  40ab5c:	8fbc0010 	lw	gp,16(sp)
  40ab60:	26100004 	addiu	s0,s0,4
  40ab64:	14400005 	bnez	v0,40ab7c <getenv+0xac>
  40ab68:	02321821 	addu	v1,s1,s2
  40ab6c:	80620000 	lb	v0,0(v1)
  40ab70:	00000000 	nop
  40ab74:	10540006 	beq	v0,s4,40ab90 <getenv+0xc0>
  40ab78:	24620001 	addiu	v0,v1,1
  40ab7c:	8e020000 	lw	v0,0(s0)
  40ab80:	00000000 	nop
  40ab84:	1440ffee 	bnez	v0,40ab40 <getenv+0x70>
  40ab88:	00408821 	move	s1,v0
  40ab8c:	00001021 	move	v0,zero
  40ab90:	8fbf0030 	lw	ra,48(sp)
  40ab94:	8fb40028 	lw	s4,40(sp)
  40ab98:	8fb30024 	lw	s3,36(sp)
  40ab9c:	8fb20020 	lw	s2,32(sp)
  40aba0:	8fb1001c 	lw	s1,28(sp)
  40aba4:	8fb00018 	lw	s0,24(sp)
  40aba8:	03e00008 	jr	ra
  40abac:	27bd0038 	addiu	sp,sp,56

0040abb0 <execve>:
execve():
  40abb0:	3c1c0000 	lui	gp,0x0
  40abb4:	279c1f90 	addiu	gp,gp,8080
  40abb8:	0399e021 	addu	gp,gp,t9
  40abbc:	27bdffd0 	addiu	sp,sp,-48
  40abc0:	afbc0010 	sw	gp,16(sp)
  40abc4:	afb1001c 	sw	s1,28(sp)
  40abc8:	afb00018 	sw	s0,24(sp)
  40abcc:	afbf0028 	sw	ra,40(sp)
  40abd0:	afbc0024 	sw	gp,36(sp)
  40abd4:	afb20020 	sw	s2,32(sp)
  40abd8:	00808821 	move	s1,a0
  40abdc:	00a08021 	move	s0,a1
  40abe0:	00c01821 	move	v1,a2
  40abe4:	02202021 	move	a0,s1
  40abe8:	02002821 	move	a1,s0
  40abec:	00603021 	move	a2,v1
  40abf0:	24020fab 	li	v0,4011
  40abf4:	0000000c 	syscall
  40abf8:	00408021 	move	s0,v0
  40abfc:	00e09021 	move	s2,a3
  40ac00:	12400008 	beqz	s2,40ac24 <execve+0x74>
  40ac04:	02001021 	move	v0,s0
  40ac08:	8f9900a8 	lw	t9,168(gp)
  40ac0c:	00000000 	nop
  40ac10:	0320f809 	jalr	t9
  40ac14:	00000000 	nop
  40ac18:	8fbc0010 	lw	gp,16(sp)
  40ac1c:	ac500000 	sw	s0,0(v0)
  40ac20:	2402ffff 	li	v0,-1
  40ac24:	8fbf0028 	lw	ra,40(sp)
  40ac28:	8fb20020 	lw	s2,32(sp)
  40ac2c:	8fb1001c 	lw	s1,28(sp)
  40ac30:	8fb00018 	lw	s0,24(sp)
  40ac34:	03e00008 	jr	ra
  40ac38:	27bd0030 	addiu	sp,sp,48
  40ac3c:	00000000 	nop

0040ac40 <__libc_nanosleep>:
nanosleep():
  40ac40:	3c1c0000 	lui	gp,0x0
  40ac44:	279c1f00 	addiu	gp,gp,7936
  40ac48:	0399e021 	addu	gp,gp,t9
  40ac4c:	27bdffd8 	addiu	sp,sp,-40
  40ac50:	afbc0010 	sw	gp,16(sp)
  40ac54:	afbf0024 	sw	ra,36(sp)
  40ac58:	afbc0020 	sw	gp,32(sp)
  40ac5c:	afb1001c 	sw	s1,28(sp)
  40ac60:	afb00018 	sw	s0,24(sp)
  40ac64:	00801821 	move	v1,a0
  40ac68:	00a03021 	move	a2,a1
  40ac6c:	00602021 	move	a0,v1
  40ac70:	00c02821 	move	a1,a2
  40ac74:	24021046 	li	v0,4166
  40ac78:	0000000c 	syscall
  40ac7c:	00408821 	move	s1,v0
  40ac80:	00e08021 	move	s0,a3
  40ac84:	12000008 	beqz	s0,40aca8 <__libc_nanosleep+0x68>
  40ac88:	02201021 	move	v0,s1
  40ac8c:	8f9900a8 	lw	t9,168(gp)
  40ac90:	00000000 	nop
  40ac94:	0320f809 	jalr	t9
  40ac98:	00000000 	nop
  40ac9c:	8fbc0010 	lw	gp,16(sp)
  40aca0:	ac510000 	sw	s1,0(v0)
  40aca4:	2402ffff 	li	v0,-1
  40aca8:	8fbf0024 	lw	ra,36(sp)
  40acac:	8fb1001c 	lw	s1,28(sp)
  40acb0:	8fb00018 	lw	s0,24(sp)
  40acb4:	03e00008 	jr	ra
  40acb8:	27bd0028 	addiu	sp,sp,40
  40acbc:	00000000 	nop

0040acc0 <__rt_sigaction>:
__rt_sigaction():
  40acc0:	3c1c0000 	lui	gp,0x0
  40acc4:	279c1e80 	addiu	gp,gp,7808
  40acc8:	0399e021 	addu	gp,gp,t9
  40accc:	27bdffd0 	addiu	sp,sp,-48
  40acd0:	afbc0010 	sw	gp,16(sp)
  40acd4:	afb20020 	sw	s2,32(sp)
  40acd8:	afb1001c 	sw	s1,28(sp)
  40acdc:	afb00018 	sw	s0,24(sp)
  40ace0:	afbf002c 	sw	ra,44(sp)
  40ace4:	afbc0028 	sw	gp,40(sp)
  40ace8:	afb30024 	sw	s3,36(sp)
  40acec:	00809021 	move	s2,a0
  40acf0:	00a08821 	move	s1,a1
  40acf4:	00c08021 	move	s0,a2
  40acf8:	00e01821 	move	v1,a3
  40acfc:	02402021 	move	a0,s2
  40ad00:	02202821 	move	a1,s1
  40ad04:	02003021 	move	a2,s0
  40ad08:	00603821 	move	a3,v1
  40ad0c:	24021062 	li	v0,4194
  40ad10:	0000000c 	syscall
  40ad14:	00408021 	move	s0,v0
  40ad18:	00e09821 	move	s3,a3
  40ad1c:	12600008 	beqz	s3,40ad40 <__rt_sigaction+0x80>
  40ad20:	02001021 	move	v0,s0
  40ad24:	8f9900a8 	lw	t9,168(gp)
  40ad28:	00000000 	nop
  40ad2c:	0320f809 	jalr	t9
  40ad30:	00000000 	nop
  40ad34:	8fbc0010 	lw	gp,16(sp)
  40ad38:	ac500000 	sw	s0,0(v0)
  40ad3c:	2402ffff 	li	v0,-1
  40ad40:	8fbf002c 	lw	ra,44(sp)
  40ad44:	8fb30024 	lw	s3,36(sp)
  40ad48:	8fb20020 	lw	s2,32(sp)
  40ad4c:	8fb1001c 	lw	s1,28(sp)
  40ad50:	8fb00018 	lw	s0,24(sp)
  40ad54:	03e00008 	jr	ra
  40ad58:	27bd0030 	addiu	sp,sp,48
  40ad5c:	00000000 	nop

0040ad60 <fputs>:
fputs():
  40ad60:	3c1c0000 	lui	gp,0x0
  40ad64:	279c1de0 	addiu	gp,gp,7648
  40ad68:	0399e021 	addu	gp,gp,t9
  40ad6c:	27bdffd8 	addiu	sp,sp,-40
  40ad70:	afbc0010 	sw	gp,16(sp)
  40ad74:	afb1001c 	sw	s1,28(sp)
  40ad78:	afb00018 	sw	s0,24(sp)
  40ad7c:	afbf0024 	sw	ra,36(sp)
  40ad80:	afbc0020 	sw	gp,32(sp)
  40ad84:	8ca30048 	lw	v1,72(a1)
  40ad88:	24a2004c 	addiu	v0,a1,76
  40ad8c:	00808821 	move	s1,a0
  40ad90:	00a08021 	move	s0,a1
  40ad94:	1060001a 	beqz	v1,40ae00 <fputs+0xa0>
  40ad98:	00402021 	move	a0,v0
  40ad9c:	02202021 	move	a0,s1
  40ada0:	02002821 	move	a1,s0
  40ada4:	8f990220 	lw	t9,544(gp)
  40ada8:	00000000 	nop
  40adac:	0320f809 	jalr	t9
  40adb0:	00000000 	nop
  40adb4:	8fbc0010 	lw	gp,16(sp)
  40adb8:	00408821 	move	s1,v0
  40adbc:	8e020048 	lw	v0,72(s0)
  40adc0:	00000000 	nop
  40adc4:	10400007 	beqz	v0,40ade4 <fputs+0x84>
  40adc8:	2604004c 	addiu	a0,s0,76
  40adcc:	02201021 	move	v0,s1
  40add0:	8fbf0024 	lw	ra,36(sp)
  40add4:	8fb1001c 	lw	s1,28(sp)
  40add8:	8fb00018 	lw	s0,24(sp)
  40addc:	03e00008 	jr	ra
  40ade0:	27bd0028 	addiu	sp,sp,40
  40ade4:	8f990134 	lw	t9,308(gp)
  40ade8:	00000000 	nop
  40adec:	0320f809 	jalr	t9
  40adf0:	00000000 	nop
  40adf4:	8fbc0010 	lw	gp,16(sp)
  40adf8:	1000fff5 	b	40add0 <fputs+0x70>
  40adfc:	02201021 	move	v0,s1
  40ae00:	8f9900b4 	lw	t9,180(gp)
  40ae04:	00000000 	nop
  40ae08:	0320f809 	jalr	t9
  40ae0c:	00000000 	nop
  40ae10:	8fbc0010 	lw	gp,16(sp)
  40ae14:	1000ffe2 	b	40ada0 <fputs+0x40>
  40ae18:	02202021 	move	a0,s1

0040ae1c <fputs_unlocked>:
fputs_unlocked():
  40ae1c:	3c1c0000 	lui	gp,0x0
  40ae20:	279c1d24 	addiu	gp,gp,7460
  40ae24:	0399e021 	addu	gp,gp,t9
  40ae28:	27bdffd0 	addiu	sp,sp,-48
  40ae2c:	afbc0010 	sw	gp,16(sp)
  40ae30:	afb20020 	sw	s2,32(sp)
  40ae34:	afb1001c 	sw	s1,28(sp)
  40ae38:	afb00018 	sw	s0,24(sp)
  40ae3c:	afbf0028 	sw	ra,40(sp)
  40ae40:	afbc0024 	sw	gp,36(sp)
  40ae44:	00a09021 	move	s2,a1
  40ae48:	00808021 	move	s0,a0
  40ae4c:	8f990070 	lw	t9,112(gp)
  40ae50:	00000000 	nop
  40ae54:	0320f809 	jalr	t9
  40ae58:	00000000 	nop
  40ae5c:	8fbc0010 	lw	gp,16(sp)
  40ae60:	00402821 	move	a1,v0
  40ae64:	02002021 	move	a0,s0
  40ae68:	02403821 	move	a3,s2
  40ae6c:	24060001 	li	a2,1
  40ae70:	00408821 	move	s1,v0
  40ae74:	8f9900cc 	lw	t9,204(gp)
  40ae78:	00000000 	nop
  40ae7c:	0320f809 	jalr	t9
  40ae80:	00000000 	nop
  40ae84:	8fbc0010 	lw	gp,16(sp)
  40ae88:	14400003 	bnez	v0,40ae98 <fputs_unlocked+0x7c>
  40ae8c:	02201021 	move	v0,s1
  40ae90:	2411ffff 	li	s1,-1
  40ae94:	02201021 	move	v0,s1
  40ae98:	8fbf0028 	lw	ra,40(sp)
  40ae9c:	8fb20020 	lw	s2,32(sp)
  40aea0:	8fb1001c 	lw	s1,28(sp)
  40aea4:	8fb00018 	lw	s0,24(sp)
  40aea8:	03e00008 	jr	ra
  40aeac:	27bd0030 	addiu	sp,sp,48

0040aeb0 <fwrite>:
fwrite():
  40aeb0:	3c1c0000 	lui	gp,0x0
  40aeb4:	279c1c90 	addiu	gp,gp,7312
  40aeb8:	0399e021 	addu	gp,gp,t9
  40aebc:	27bdffd0 	addiu	sp,sp,-48
  40aec0:	afbc0010 	sw	gp,16(sp)
  40aec4:	afb30024 	sw	s3,36(sp)
  40aec8:	afb20020 	sw	s2,32(sp)
  40aecc:	afb1001c 	sw	s1,28(sp)
  40aed0:	afb00018 	sw	s0,24(sp)
  40aed4:	afbf002c 	sw	ra,44(sp)
  40aed8:	afbc0028 	sw	gp,40(sp)
  40aedc:	8ce30048 	lw	v1,72(a3)
  40aee0:	24e2004c 	addiu	v0,a3,76
  40aee4:	00809821 	move	s3,a0
  40aee8:	00e08021 	move	s0,a3
  40aeec:	00402021 	move	a0,v0
  40aef0:	00a08821 	move	s1,a1
  40aef4:	1060001e 	beqz	v1,40af70 <fwrite+0xc0>
  40aef8:	00c09021 	move	s2,a2
  40aefc:	02602021 	move	a0,s3
  40af00:	02202821 	move	a1,s1
  40af04:	02403021 	move	a2,s2
  40af08:	02003821 	move	a3,s0
  40af0c:	8f9900d8 	lw	t9,216(gp)
  40af10:	00000000 	nop
  40af14:	0320f809 	jalr	t9
  40af18:	00000000 	nop
  40af1c:	8fbc0010 	lw	gp,16(sp)
  40af20:	00408821 	move	s1,v0
  40af24:	8e020048 	lw	v0,72(s0)
  40af28:	00000000 	nop
  40af2c:	10400009 	beqz	v0,40af54 <fwrite+0xa4>
  40af30:	2604004c 	addiu	a0,s0,76
  40af34:	02201021 	move	v0,s1
  40af38:	8fbf002c 	lw	ra,44(sp)
  40af3c:	8fb30024 	lw	s3,36(sp)
  40af40:	8fb20020 	lw	s2,32(sp)
  40af44:	8fb1001c 	lw	s1,28(sp)
  40af48:	8fb00018 	lw	s0,24(sp)
  40af4c:	03e00008 	jr	ra
  40af50:	27bd0030 	addiu	sp,sp,48
  40af54:	8f990134 	lw	t9,308(gp)
  40af58:	00000000 	nop
  40af5c:	0320f809 	jalr	t9
  40af60:	00000000 	nop
  40af64:	8fbc0010 	lw	gp,16(sp)
  40af68:	1000fff3 	b	40af38 <fwrite+0x88>
  40af6c:	02201021 	move	v0,s1
  40af70:	8f9900b4 	lw	t9,180(gp)
  40af74:	00000000 	nop
  40af78:	0320f809 	jalr	t9
  40af7c:	00000000 	nop
  40af80:	8fbc0010 	lw	gp,16(sp)
  40af84:	1000ffde 	b	40af00 <fwrite+0x50>
  40af88:	02602021 	move	a0,s3

0040af8c <fwrite_unlocked>:
fwrite_unlocked():
  40af8c:	3c1c0000 	lui	gp,0x0
  40af90:	279c1bb4 	addiu	gp,gp,7092
  40af94:	0399e021 	addu	gp,gp,t9
  40af98:	27bdffd8 	addiu	sp,sp,-40
  40af9c:	afbc0010 	sw	gp,16(sp)
  40afa0:	94e20000 	lhu	v0,0(a3)
  40afa4:	afb00018 	sw	s0,24(sp)
  40afa8:	34480080 	ori	t0,v0,0x80
  40afac:	34430008 	ori	v1,v0,0x8
  40afb0:	30420800 	andi	v0,v0,0x800
  40afb4:	00a08021 	move	s0,a1
  40afb8:	afbf0020 	sw	ra,32(sp)
  40afbc:	afbc001c 	sw	gp,28(sp)
  40afc0:	00004821 	move	t1,zero
  40afc4:	10400007 	beqz	v0,40afe4 <fwrite_unlocked+0x58>
  40afc8:	00c02821 	move	a1,a2
  40afcc:	a4e30000 	sh	v1,0(a3)
  40afd0:	8fbf0020 	lw	ra,32(sp)
  40afd4:	8fb00018 	lw	s0,24(sp)
  40afd8:	01201021 	move	v0,t1
  40afdc:	03e00008 	jr	ra
  40afe0:	27bd0028 	addiu	sp,sp,40
  40afe4:	00e03021 	move	a2,a3
  40afe8:	a4e80000 	sh	t0,0(a3)
  40afec:	16000003 	bnez	s0,40affc <fwrite_unlocked+0x70>
  40aff0:	00001021 	move	v0,zero
  40aff4:	1000fff6 	b	40afd0 <fwrite_unlocked+0x44>
  40aff8:	00404821 	move	t1,v0
  40affc:	00b00018 	mult	a1,s0
  40b000:	00002812 	mflo	a1
  40b004:	8f99037c 	lw	t9,892(gp)
  40b008:	00000000 	nop
  40b00c:	0320f809 	jalr	t9
  40b010:	00000000 	nop
  40b014:	8fbc0010 	lw	gp,16(sp)
  40b018:	16000002 	bnez	s0,40b024 <fwrite_unlocked+0x98>
  40b01c:	00000000 	nop
  40b020:	0007000d 	break	0x7
  40b024:	0050001b 	divu	zero,v0,s0
  40b028:	00001012 	mflo	v0
  40b02c:	1000ffe8 	b	40afd0 <fwrite_unlocked+0x44>
  40b030:	00404821 	move	t1,v0
	...

0040b040 <fseek>:
fseek():
  40b040:	3c1c0000 	lui	gp,0x0
  40b044:	279c1b00 	addiu	gp,gp,6912
  40b048:	0399e021 	addu	gp,gp,t9
  40b04c:	27bdffc8 	addiu	sp,sp,-56
  40b050:	afbc0010 	sw	gp,16(sp)
  40b054:	2cc20003 	sltiu	v0,a2,3
  40b058:	afb20028 	sw	s2,40(sp)
  40b05c:	afb10024 	sw	s1,36(sp)
  40b060:	afb00020 	sw	s0,32(sp)
  40b064:	afbf0030 	sw	ra,48(sp)
  40b068:	afbc002c 	sw	gp,44(sp)
  40b06c:	00c08821 	move	s1,a2
  40b070:	00808021 	move	s0,a0
  40b074:	14400010 	bnez	v0,40b0b8 <fseek+0x78>
  40b078:	00a09021 	move	s2,a1
  40b07c:	8f9900a8 	lw	t9,168(gp)
  40b080:	00000000 	nop
  40b084:	0320f809 	jalr	t9
  40b088:	00000000 	nop
  40b08c:	8fbc0010 	lw	gp,16(sp)
  40b090:	24030016 	li	v1,22
  40b094:	2404ffff 	li	a0,-1
  40b098:	ac430000 	sw	v1,0(v0)
  40b09c:	8fbf0030 	lw	ra,48(sp)
  40b0a0:	8fb20028 	lw	s2,40(sp)
  40b0a4:	8fb10024 	lw	s1,36(sp)
  40b0a8:	8fb00020 	lw	s0,32(sp)
  40b0ac:	00801021 	move	v0,a0
  40b0b0:	03e00008 	jr	ra
  40b0b4:	27bd0038 	addiu	sp,sp,56
  40b0b8:	8c820048 	lw	v0,72(a0)
  40b0bc:	00000000 	nop
  40b0c0:	1040003e 	beqz	v0,40b1bc <fseek+0x17c>
  40b0c4:	00000000 	nop
  40b0c8:	96020000 	lhu	v0,0(s0)
  40b0cc:	afb20018 	sw	s2,24(sp)
  40b0d0:	30422000 	andi	v0,v0,0x2000
  40b0d4:	1440002f 	bnez	v0,40b194 <fseek+0x154>
  40b0d8:	2412ffff 	li	s2,-1
  40b0dc:	24020001 	li	v0,1
  40b0e0:	12220022 	beq	s1,v0,40b16c <fseek+0x12c>
  40b0e4:	02002021 	move	a0,s0
  40b0e8:	02203021 	move	a2,s1
  40b0ec:	02002021 	move	a0,s0
  40b0f0:	27a50018 	addiu	a1,sp,24
  40b0f4:	8f99030c 	lw	t9,780(gp)
  40b0f8:	00000000 	nop
  40b0fc:	0320f809 	jalr	t9
  40b100:	00000000 	nop
  40b104:	8fbc0010 	lw	gp,16(sp)
  40b108:	0440000a 	bltz	v0,40b134 <fseek+0xf4>
  40b10c:	00000000 	nop
  40b110:	96020000 	lhu	v0,0(s0)
  40b114:	8e030014 	lw	v1,20(s0)
  40b118:	3042cff8 	andi	v0,v0,0xcff8
  40b11c:	ae030024 	sw	v1,36(s0)
  40b120:	a6020000 	sh	v0,0(s0)
  40b124:	ae030020 	sw	v1,32(s0)
  40b128:	ae03001c 	sw	v1,28(s0)
  40b12c:	ae000040 	sw	zero,64(s0)
  40b130:	00009021 	move	s2,zero
  40b134:	8e020048 	lw	v0,72(s0)
  40b138:	00000000 	nop
  40b13c:	10400003 	beqz	v0,40b14c <fseek+0x10c>
  40b140:	00000000 	nop
  40b144:	1000ffd5 	b	40b09c <fseek+0x5c>
  40b148:	02402021 	move	a0,s2
  40b14c:	2604004c 	addiu	a0,s0,76
  40b150:	8f990134 	lw	t9,308(gp)
  40b154:	00000000 	nop
  40b158:	0320f809 	jalr	t9
  40b15c:	00000000 	nop
  40b160:	8fbc0010 	lw	gp,16(sp)
  40b164:	1000ffcd 	b	40b09c <fseek+0x5c>
  40b168:	02402021 	move	a0,s2
  40b16c:	27a50018 	addiu	a1,sp,24
  40b170:	8f990300 	lw	t9,768(gp)
  40b174:	00000000 	nop
  40b178:	0320f809 	jalr	t9
  40b17c:	00000000 	nop
  40b180:	8fbc0010 	lw	gp,16(sp)
  40b184:	0441ffd9 	bgez	v0,40b0ec <fseek+0xac>
  40b188:	02203021 	move	a2,s1
  40b18c:	1000ffe9 	b	40b134 <fseek+0xf4>
  40b190:	00000000 	nop
  40b194:	02002021 	move	a0,s0
  40b198:	8f9900e0 	lw	t9,224(gp)
  40b19c:	00000000 	nop
  40b1a0:	0320f809 	jalr	t9
  40b1a4:	00000000 	nop
  40b1a8:	8fbc0010 	lw	gp,16(sp)
  40b1ac:	1440ffe1 	bnez	v0,40b134 <fseek+0xf4>
  40b1b0:	24020001 	li	v0,1
  40b1b4:	1000ffca 	b	40b0e0 <fseek+0xa0>
  40b1b8:	00000000 	nop
  40b1bc:	2484004c 	addiu	a0,a0,76
  40b1c0:	8f9900b4 	lw	t9,180(gp)
  40b1c4:	00000000 	nop
  40b1c8:	0320f809 	jalr	t9
  40b1cc:	00000000 	nop
  40b1d0:	8fbc0010 	lw	gp,16(sp)
  40b1d4:	1000ffbc 	b	40b0c8 <fseek+0x88>
  40b1d8:	00000000 	nop
  40b1dc:	00000000 	nop

0040b1e0 <_stdio_adjpos>:
_stdio_adjpos():
  40b1e0:	3c1c0000 	lui	gp,0x0
  40b1e4:	279c1960 	addiu	gp,gp,6496
  40b1e8:	0399e021 	addu	gp,gp,t9
  40b1ec:	94870000 	lhu	a3,0(a0)
  40b1f0:	00000000 	nop
  40b1f4:	30e60003 	andi	a2,a3,0x3
  40b1f8:	10c00010 	beqz	a2,40b23c <_stdio_adjpos+0x5c>
  40b1fc:	30e22000 	andi	v0,a3,0x2000
  40b200:	30e20800 	andi	v0,a3,0x800
  40b204:	1040000d 	beqz	v0,40b23c <_stdio_adjpos+0x5c>
  40b208:	30e22000 	andi	v0,a3,0x2000
  40b20c:	90820002 	lbu	v0,2(a0)
  40b210:	2cc30002 	sltiu	v1,a2,2
  40b214:	00c21021 	addu	v0,a2,v0
  40b218:	10600005 	beqz	v1,40b230 <_stdio_adjpos+0x50>
  40b21c:	2446ffff 	addiu	a2,v0,-1
  40b220:	8c820008 	lw	v0,8(a0)
  40b224:	00000000 	nop
  40b228:	10400003 	beqz	v0,40b238 <_stdio_adjpos+0x58>
  40b22c:	00000000 	nop
  40b230:	03e00008 	jr	ra
  40b234:	2402ffff 	li	v0,-1
  40b238:	30e22000 	andi	v0,a3,0x2000
  40b23c:	10400007 	beqz	v0,40b25c <_stdio_adjpos+0x7c>
  40b240:	30e21000 	andi	v0,a3,0x1000
  40b244:	8c82001c 	lw	v0,28(a0)
  40b248:	8c830014 	lw	v1,20(a0)
  40b24c:	00000000 	nop
  40b250:	00431023 	subu	v0,v0,v1
  40b254:	00c23023 	subu	a2,a2,v0
  40b258:	30e21000 	andi	v0,a3,0x1000
  40b25c:	10400006 	beqz	v0,40b278 <_stdio_adjpos+0x98>
  40b260:	00000000 	nop
  40b264:	8c83001c 	lw	v1,28(a0)
  40b268:	8c820020 	lw	v0,32(a0)
  40b26c:	00000000 	nop
  40b270:	00431023 	subu	v0,v0,v1
  40b274:	00c23021 	addu	a2,a2,v0
  40b278:	8ca20000 	lw	v0,0(a1)
  40b27c:	00062023 	negu	a0,a2
  40b280:	00461823 	subu	v1,v0,a2
  40b284:	0043102a 	slt	v0,v0,v1
  40b288:	14400002 	bnez	v0,40b294 <_stdio_adjpos+0xb4>
  40b28c:	aca30000 	sw	v1,0(a1)
  40b290:	00c02021 	move	a0,a2
  40b294:	03e00008 	jr	ra
  40b298:	00801021 	move	v0,a0
  40b29c:	00000000 	nop

0040b2a0 <_stdio_lseek>:
_stdio_lseek():
  40b2a0:	3c1c0000 	lui	gp,0x0
  40b2a4:	279c18a0 	addiu	gp,gp,6304
  40b2a8:	0399e021 	addu	gp,gp,t9
  40b2ac:	27bdffd8 	addiu	sp,sp,-40
  40b2b0:	afbc0010 	sw	gp,16(sp)
  40b2b4:	afb00018 	sw	s0,24(sp)
  40b2b8:	afbf0020 	sw	ra,32(sp)
  40b2bc:	afbc001c 	sw	gp,28(sp)
  40b2c0:	8c83002c 	lw	v1,44(a0)
  40b2c4:	2482000c 	addiu	v0,a0,12
  40b2c8:	10620013 	beq	v1,v0,40b318 <_stdio_lseek+0x78>
  40b2cc:	00a08021 	move	s0,a1
  40b2d0:	8c820038 	lw	v0,56(a0)
  40b2d4:	00000000 	nop
  40b2d8:	14400007 	bnez	v0,40b2f8 <_stdio_lseek+0x58>
  40b2dc:	00602021 	move	a0,v1
  40b2e0:	2403ffff 	li	v1,-1
  40b2e4:	8fbf0020 	lw	ra,32(sp)
  40b2e8:	8fb00018 	lw	s0,24(sp)
  40b2ec:	00601021 	move	v0,v1
  40b2f0:	03e00008 	jr	ra
  40b2f4:	27bd0028 	addiu	sp,sp,40
  40b2f8:	0040c821 	move	t9,v0
  40b2fc:	0320f809 	jalr	t9
  40b300:	00000000 	nop
  40b304:	8fbc0010 	lw	gp,16(sp)
  40b308:	0441fff6 	bgez	v0,40b2e4 <_stdio_lseek+0x44>
  40b30c:	00001821 	move	v1,zero
  40b310:	1000fff4 	b	40b2e4 <_stdio_lseek+0x44>
  40b314:	2403ffff 	li	v1,-1
  40b318:	8c84000c 	lw	a0,12(a0)
  40b31c:	8ca50000 	lw	a1,0(a1)
  40b320:	8f9902a4 	lw	t9,676(gp)
  40b324:	00000000 	nop
  40b328:	0320f809 	jalr	t9
  40b32c:	00000000 	nop
  40b330:	8fbc0010 	lw	gp,16(sp)
  40b334:	0440ffea 	bltz	v0,40b2e0 <_stdio_lseek+0x40>
  40b338:	00001821 	move	v1,zero
  40b33c:	1000ffe9 	b	40b2e4 <_stdio_lseek+0x44>
  40b340:	ae020000 	sw	v0,0(s0)
	...

0040b350 <__libc_lseek>:
__libc_lseek():
  40b350:	3c1c0000 	lui	gp,0x0
  40b354:	279c17f0 	addiu	gp,gp,6128
  40b358:	0399e021 	addu	gp,gp,t9
  40b35c:	27bdffd0 	addiu	sp,sp,-48
  40b360:	afbc0010 	sw	gp,16(sp)
  40b364:	afb1001c 	sw	s1,28(sp)
  40b368:	afb00018 	sw	s0,24(sp)
  40b36c:	afbf0028 	sw	ra,40(sp)
  40b370:	afbc0024 	sw	gp,36(sp)
  40b374:	afb20020 	sw	s2,32(sp)
  40b378:	00808821 	move	s1,a0
  40b37c:	00a08021 	move	s0,a1
  40b380:	00c01821 	move	v1,a2
  40b384:	02202021 	move	a0,s1
  40b388:	02002821 	move	a1,s0
  40b38c:	00603021 	move	a2,v1
  40b390:	24020fb3 	li	v0,4019
  40b394:	0000000c 	syscall
  40b398:	00408021 	move	s0,v0
  40b39c:	00e09021 	move	s2,a3
  40b3a0:	12400008 	beqz	s2,40b3c4 <__libc_lseek+0x74>
  40b3a4:	02001021 	move	v0,s0
  40b3a8:	8f9900a8 	lw	t9,168(gp)
  40b3ac:	00000000 	nop
  40b3b0:	0320f809 	jalr	t9
  40b3b4:	00000000 	nop
  40b3b8:	8fbc0010 	lw	gp,16(sp)
  40b3bc:	ac500000 	sw	s0,0(v0)
  40b3c0:	2402ffff 	li	v0,-1
  40b3c4:	8fbf0028 	lw	ra,40(sp)
  40b3c8:	8fb20020 	lw	s2,32(sp)
  40b3cc:	8fb1001c 	lw	s1,28(sp)
  40b3d0:	8fb00018 	lw	s0,24(sp)
  40b3d4:	03e00008 	jr	ra
  40b3d8:	27bd0030 	addiu	sp,sp,48
  40b3dc:	00000000 	nop

0040b3e0 <_fpadd_parts>:
_fpadd_parts():
/home/mips/toolchain-mips/build/gcc-final/gcc/dp-bit.c:405
  40b3e0:	3c1c0000 	lui	gp,0x0
  40b3e4:	279c1760 	addiu	gp,gp,5984
  40b3e8:	0399e021 	addu	gp,gp,t9
  40b3ec:	00803821 	move	a3,a0
/home/mips/toolchain-mips/build/gcc-final/gcc/dp-bit.c:152
  40b3f0:	8c840000 	lw	a0,0(a0)
/home/mips/toolchain-mips/build/gcc-final/gcc/dp-bit.c:405
  40b3f4:	00c07021 	move	t6,a2
/home/mips/toolchain-mips/build/gcc-final/gcc/dp-bit.c:152
  40b3f8:	2c820002 	sltiu	v0,a0,2
/home/mips/toolchain-mips/build/gcc-final/gcc/dp-bit.c:405
  40b3fc:	00a04021 	move	t0,a1
/home/mips/toolchain-mips/build/gcc-final/gcc/dp-bit.c:151
  40b400:	14400010 	bnez	v0,40b444 <_fpadd_parts+0x64>
  40b404:	00e03021 	move	a2,a3
/home/mips/toolchain-mips/build/gcc-final/gcc/dp-bit.c:152
  40b408:	8ca30000 	lw	v1,0(a1)
  40b40c:	00000000 	nop
  40b410:	2c620002 	sltiu	v0,v1,2
/home/mips/toolchain-mips/build/gcc-final/gcc/dp-bit.c:151
  40b414:	1440000b 	bnez	v0,40b444 <_fpadd_parts+0x64>
  40b418:	00a03021 	move	a2,a1
/home/mips/toolchain-mips/build/gcc-final/gcc/dp-bit.c:159
  40b41c:	38820004 	xori	v0,a0,0x4
/home/mips/toolchain-mips/build/gcc-final/gcc/dp-bit.c:158
  40b420:	1440000c 	bnez	v0,40b454 <_fpadd_parts+0x74>
  40b424:	38620004 	xori	v0,v1,0x4
  40b428:	14400006 	bnez	v0,40b444 <_fpadd_parts+0x64>
  40b42c:	00e03021 	move	a2,a3
  40b430:	8ca30004 	lw	v1,4(a1)
  40b434:	8ce20004 	lw	v0,4(a3)
  40b438:	8f860148 	lw	a2,328(gp)
/home/mips/toolchain-mips/build/gcc-final/gcc/dp-bit.c:139
  40b43c:	10430003 	beq	v0,v1,40b44c <_fpadd_parts+0x6c>
  40b440:	00000000 	nop
/home/mips/toolchain-mips/build/gcc-final/gcc/dp-bit.c:539
  40b444:	03e00008 	jr	ra
  40b448:	00c01021 	move	v0,a2
/home/mips/toolchain-mips/build/gcc-final/gcc/dp-bit.c:441
  40b44c:	1000fffd 	b	40b444 <_fpadd_parts+0x64>
  40b450:	00e03021 	move	a2,a3
/home/mips/toolchain-mips/build/gcc-final/gcc/dp-bit.c:158
  40b454:	1040fffb 	beqz	v0,40b444 <_fpadd_parts+0x64>
  40b458:	00a03021 	move	a2,a1
/home/mips/toolchain-mips/build/gcc-final/gcc/dp-bit.c:168
  40b45c:	38620002 	xori	v0,v1,0x2
/home/mips/toolchain-mips/build/gcc-final/gcc/dp-bit.c:167
  40b460:	14400019 	bnez	v0,40b4c8 <_fpadd_parts+0xe8>
  40b464:	38820002 	xori	v0,a0,0x2
  40b468:	1440fff8 	bnez	v0,40b44c <_fpadd_parts+0x6c>
  40b46c:	00000000 	nop
/home/mips/toolchain-mips/build/gcc-final/gcc/dp-bit.c:437
  40b470:	adc40000 	sw	a0,0(t6)
  40b474:	8ce30004 	lw	v1,4(a3)
/home/mips/toolchain-mips/build/gcc-final/gcc/dp-bit.c:439
  40b478:	01c03021 	move	a2,t6
/home/mips/toolchain-mips/build/gcc-final/gcc/dp-bit.c:437
  40b47c:	adc30004 	sw	v1,4(t6)
  40b480:	8ce20008 	lw	v0,8(a3)
  40b484:	00000000 	nop
  40b488:	adc20008 	sw	v0,8(t6)
  40b48c:	8ce3000c 	lw	v1,12(a3)
  40b490:	00000000 	nop
  40b494:	adc3000c 	sw	v1,12(t6)
  40b498:	8ce20010 	lw	v0,16(a3)
  40b49c:	00000000 	nop
  40b4a0:	adc20010 	sw	v0,16(t6)
  40b4a4:	8ce30014 	lw	v1,20(a3)
  40b4a8:	00000000 	nop
  40b4ac:	adc30014 	sw	v1,20(t6)
/home/mips/toolchain-mips/build/gcc-final/gcc/dp-bit.c:438
  40b4b0:	8ce20004 	lw	v0,4(a3)
  40b4b4:	8ca30004 	lw	v1,4(a1)
  40b4b8:	00000000 	nop
  40b4bc:	00431024 	and	v0,v0,v1
/home/mips/toolchain-mips/build/gcc-final/gcc/dp-bit.c:439
  40b4c0:	1000ffe0 	b	40b444 <_fpadd_parts+0x64>
  40b4c4:	adc20004 	sw	v0,4(t6)
/home/mips/toolchain-mips/build/gcc-final/gcc/dp-bit.c:167
  40b4c8:	1040ffde 	beqz	v0,40b444 <_fpadd_parts+0x64>
  40b4cc:	00a03021 	move	a2,a1
/home/mips/toolchain-mips/build/gcc-final/gcc/dp-bit.c:453
  40b4d0:	8cef0008 	lw	t7,8(a3)
/home/mips/toolchain-mips/build/gcc-final/gcc/dp-bit.c:454
  40b4d4:	8ca90008 	lw	t1,8(a1)
/home/mips/toolchain-mips/build/gcc-final/gcc/dp-bit.c:455
  40b4d8:	8cec0010 	lw	t4,16(a3)
  40b4dc:	8ced0014 	lw	t5,20(a3)
/home/mips/toolchain-mips/build/gcc-final/gcc/dp-bit.c:458
  40b4e0:	01e91023 	subu	v0,t7,t1
/home/mips/toolchain-mips/build/gcc-final/gcc/dp-bit.c:460
  40b4e4:	04410002 	bgez	v0,40b4f0 <_fpadd_parts+0x110>
  40b4e8:	00000000 	nop
  40b4ec:	00021023 	negu	v0,v0
/home/mips/toolchain-mips/build/gcc-final/gcc/dp-bit.c:462
  40b4f0:	28420040 	slti	v0,v0,64
/home/mips/toolchain-mips/build/gcc-final/gcc/dp-bit.c:456
  40b4f4:	8caa0010 	lw	t2,16(a1)
  40b4f8:	8cab0014 	lw	t3,20(a1)
/home/mips/toolchain-mips/build/gcc-final/gcc/dp-bit.c:462
  40b4fc:	10400088 	beqz	v0,40b720 <_fpadd_parts+0x340>
  40b500:	012f102a 	slt	v0,t1,t7
/home/mips/toolchain-mips/build/gcc-final/gcc/dp-bit.c:465
  40b504:	10400010 	beqz	v0,40b548 <_fpadd_parts+0x168>
  40b508:	01e9102a 	slt	v0,t7,t1
  40b50c:	24180000 	li	t8,0
  40b510:	24190001 	li	t9,1
  40b514:	01e94823 	subu	t1,t7,t1
/home/mips/toolchain-mips/build/gcc-final/gcc/dp-bit.c:468
  40b518:	000b2842 	srl	a1,t3,0x1
  40b51c:	000a37c0 	sll	a2,t2,0x1f
  40b520:	00a62825 	or	a1,a1,a2
  40b524:	000a2042 	srl	a0,t2,0x1
  40b528:	01581024 	and	v0,t2,t8
  40b52c:	01791824 	and	v1,t3,t9
/home/mips/toolchain-mips/build/gcc-final/gcc/dp-bit.c:467
  40b530:	2529ffff 	addiu	t1,t1,-1
/home/mips/toolchain-mips/build/gcc-final/gcc/dp-bit.c:468
  40b534:	00445025 	or	t2,v0,a0
  40b538:	1520fff7 	bnez	t1,40b518 <_fpadd_parts+0x138>
  40b53c:	00655825 	or	t3,v1,a1
  40b540:	01e04821 	move	t1,t7
/home/mips/toolchain-mips/build/gcc-final/gcc/dp-bit.c:470
  40b544:	01e9102a 	slt	v0,t7,t1
  40b548:	1040000e 	beqz	v0,40b584 <_fpadd_parts+0x1a4>
  40b54c:	00000000 	nop
  40b550:	24180000 	li	t8,0
  40b554:	24190001 	li	t9,1
/home/mips/toolchain-mips/build/gcc-final/gcc/dp-bit.c:473
  40b558:	000c37c0 	sll	a2,t4,0x1f
  40b55c:	000d2842 	srl	a1,t5,0x1
/home/mips/toolchain-mips/build/gcc-final/gcc/dp-bit.c:472
  40b560:	25ef0001 	addiu	t7,t7,1
/home/mips/toolchain-mips/build/gcc-final/gcc/dp-bit.c:473
  40b564:	00a62825 	or	a1,a1,a2
  40b568:	000c2042 	srl	a0,t4,0x1
  40b56c:	01981024 	and	v0,t4,t8
  40b570:	01b91824 	and	v1,t5,t9
  40b574:	01e9302a 	slt	a2,t7,t1
  40b578:	00446025 	or	t4,v0,a0
  40b57c:	14c0fff6 	bnez	a2,40b558 <_fpadd_parts+0x178>
  40b580:	00656825 	or	t5,v1,a1
/home/mips/toolchain-mips/build/gcc-final/gcc/dp-bit.c:492
  40b584:	8ce60004 	lw	a2,4(a3)
  40b588:	8d020004 	lw	v0,4(t0)
  40b58c:	00000000 	nop
  40b590:	10c2005a 	beq	a2,v0,40b6fc <_fpadd_parts+0x31c>
  40b594:	016d102b 	sltu	v0,t3,t5
/home/mips/toolchain-mips/build/gcc-final/gcc/dp-bit.c:494
  40b598:	014c2023 	subu	a0,t2,t4
  40b59c:	016d2823 	subu	a1,t3,t5
  40b5a0:	14c00005 	bnez	a2,40b5b8 <_fpadd_parts+0x1d8>
  40b5a4:	00822023 	subu	a0,a0,v0
/home/mips/toolchain-mips/build/gcc-final/gcc/dp-bit.c:500
  40b5a8:	01ab102b 	sltu	v0,t5,t3
  40b5ac:	018a2023 	subu	a0,t4,t2
  40b5b0:	01ab2823 	subu	a1,t5,t3
  40b5b4:	00822023 	subu	a0,a0,v0
/home/mips/toolchain-mips/build/gcc-final/gcc/dp-bit.c:502
  40b5b8:	04800047 	bltz	a0,40b6d8 <_fpadd_parts+0x2f8>
  40b5bc:	24020001 	li	v0,1
/home/mips/toolchain-mips/build/gcc-final/gcc/dp-bit.c:505
  40b5c0:	adcf0008 	sw	t7,8(t6)
/home/mips/toolchain-mips/build/gcc-final/gcc/dp-bit.c:506
  40b5c4:	adc40010 	sw	a0,16(t6)
  40b5c8:	adc50014 	sw	a1,20(t6)
/home/mips/toolchain-mips/build/gcc-final/gcc/dp-bit.c:504
  40b5cc:	adc00004 	sw	zero,4(t6)
/home/mips/toolchain-mips/build/gcc-final/gcc/dp-bit.c:516
  40b5d0:	8dc80010 	lw	t0,16(t6)
  40b5d4:	8dc90014 	lw	t1,20(t6)
  40b5d8:	3c030fff 	lui	v1,0xfff
  40b5dc:	2525ffff 	addiu	a1,t1,-1
  40b5e0:	2ca2ffff 	sltiu	v0,a1,-1
  40b5e4:	2504ffff 	addiu	a0,t0,-1
  40b5e8:	00822021 	addu	a0,a0,v0
  40b5ec:	3463ffff 	ori	v1,v1,0xffff
  40b5f0:	0064102b 	sltu	v0,v1,a0
  40b5f4:	1440001a 	bnez	v0,40b660 <_fpadd_parts+0x280>
  40b5f8:	00000000 	nop
  40b5fc:	10830032 	beq	a0,v1,40b6c8 <_fpadd_parts+0x2e8>
  40b600:	2ca2ffff 	sltiu	v0,a1,-1
/home/mips/toolchain-mips/build/gcc-final/gcc/dp-bit.c:518
  40b604:	000917c2 	srl	v0,t1,0x1f
  40b608:	00083040 	sll	a2,t0,0x1
  40b60c:	00c23025 	or	a2,a2,v0
  40b610:	00093840 	sll	a3,t1,0x1
/home/mips/toolchain-mips/build/gcc-final/gcc/dp-bit.c:519
  40b614:	8dc30008 	lw	v1,8(t6)
  40b618:	3c0a0fff 	lui	t2,0xfff
  40b61c:	24e5ffff 	addiu	a1,a3,-1
  40b620:	2ca2ffff 	sltiu	v0,a1,-1
  40b624:	24c4ffff 	addiu	a0,a2,-1
  40b628:	00822021 	addu	a0,a0,v0
  40b62c:	354affff 	ori	t2,t2,0xffff
  40b630:	2463ffff 	addiu	v1,v1,-1
  40b634:	0144102b 	sltu	v0,t2,a0
  40b638:	adc30008 	sw	v1,8(t6)
/home/mips/toolchain-mips/build/gcc-final/gcc/dp-bit.c:518
  40b63c:	adc60010 	sw	a2,16(t6)
  40b640:	adc70014 	sw	a3,20(t6)
/home/mips/toolchain-mips/build/gcc-final/gcc/dp-bit.c:519
  40b644:	14400006 	bnez	v0,40b660 <_fpadd_parts+0x280>
  40b648:	2cabffff 	sltiu	t3,a1,-1
  40b64c:	00c04021 	move	t0,a2
  40b650:	148affec 	bne	a0,t2,40b604 <_fpadd_parts+0x224>
  40b654:	00e04821 	move	t1,a3
  40b658:	1560ffeb 	bnez	t3,40b608 <_fpadd_parts+0x228>
  40b65c:	000917c2 	srl	v0,t1,0x1f
/home/mips/toolchain-mips/build/gcc-final/gcc/dp-bit.c:532
  40b660:	8dc20010 	lw	v0,16(t6)
  40b664:	3c031fff 	lui	v1,0x1fff
  40b668:	3463ffff 	ori	v1,v1,0xffff
/home/mips/toolchain-mips/build/gcc-final/gcc/dp-bit.c:528
  40b66c:	24040003 	li	a0,3
/home/mips/toolchain-mips/build/gcc-final/gcc/dp-bit.c:532
  40b670:	0062182b 	sltu	v1,v1,v0
  40b674:	10600012 	beqz	v1,40b6c0 <_fpadd_parts+0x2e0>
  40b678:	adc40000 	sw	a0,0(t6)
/home/mips/toolchain-mips/build/gcc-final/gcc/dp-bit.c:534
  40b67c:	8dc40010 	lw	a0,16(t6)
  40b680:	8dc50014 	lw	a1,20(t6)
  40b684:	24020000 	li	v0,0
  40b688:	24030001 	li	v1,1
/home/mips/toolchain-mips/build/gcc-final/gcc/dp-bit.c:535
  40b68c:	8dc60008 	lw	a2,8(t6)
/home/mips/toolchain-mips/build/gcc-final/gcc/dp-bit.c:534
  40b690:	00a31824 	and	v1,a1,v1
  40b694:	00043fc0 	sll	a3,a0,0x1f
  40b698:	00052842 	srl	a1,a1,0x1
  40b69c:	00821024 	and	v0,a0,v0
  40b6a0:	00a72825 	or	a1,a1,a3
  40b6a4:	00042042 	srl	a0,a0,0x1
  40b6a8:	00441025 	or	v0,v0,a0
  40b6ac:	00651825 	or	v1,v1,a1
/home/mips/toolchain-mips/build/gcc-final/gcc/dp-bit.c:535
  40b6b0:	24c60001 	addiu	a2,a2,1
/home/mips/toolchain-mips/build/gcc-final/gcc/dp-bit.c:534
  40b6b4:	adc20010 	sw	v0,16(t6)
  40b6b8:	adc30014 	sw	v1,20(t6)
/home/mips/toolchain-mips/build/gcc-final/gcc/dp-bit.c:535
  40b6bc:	adc60008 	sw	a2,8(t6)
/home/mips/toolchain-mips/build/gcc-final/gcc/dp-bit.c:537
  40b6c0:	1000ff60 	b	40b444 <_fpadd_parts+0x64>
  40b6c4:	01c03021 	move	a2,t6
  40b6c8:	1440ffcf 	bnez	v0,40b608 <_fpadd_parts+0x228>
  40b6cc:	000917c2 	srl	v0,t1,0x1f
  40b6d0:	1000ffe3 	b	40b660 <_fpadd_parts+0x280>
  40b6d4:	00000000 	nop
/home/mips/toolchain-mips/build/gcc-final/gcc/dp-bit.c:512
  40b6d8:	00052823 	negu	a1,a1
  40b6dc:	00042023 	negu	a0,a0
  40b6e0:	0005182b 	sltu	v1,zero,a1
  40b6e4:	00832023 	subu	a0,a0,v1
/home/mips/toolchain-mips/build/gcc-final/gcc/dp-bit.c:510
  40b6e8:	adc20004 	sw	v0,4(t6)
/home/mips/toolchain-mips/build/gcc-final/gcc/dp-bit.c:511
  40b6ec:	adcf0008 	sw	t7,8(t6)
/home/mips/toolchain-mips/build/gcc-final/gcc/dp-bit.c:512
  40b6f0:	adc40010 	sw	a0,16(t6)
  40b6f4:	1000ffb6 	b	40b5d0 <_fpadd_parts+0x1f0>
  40b6f8:	adc50014 	sw	a1,20(t6)
/home/mips/toolchain-mips/build/gcc-final/gcc/dp-bit.c:526
  40b6fc:	01ab1821 	addu	v1,t5,t3
  40b700:	006b202b 	sltu	a0,v1,t3
  40b704:	018a1021 	addu	v0,t4,t2
  40b708:	00441021 	addu	v0,v0,a0
/home/mips/toolchain-mips/build/gcc-final/gcc/dp-bit.c:524
  40b70c:	adc60004 	sw	a2,4(t6)
/home/mips/toolchain-mips/build/gcc-final/gcc/dp-bit.c:525
  40b710:	adcf0008 	sw	t7,8(t6)
/home/mips/toolchain-mips/build/gcc-final/gcc/dp-bit.c:526
  40b714:	adc20010 	sw	v0,16(t6)
  40b718:	1000ffd1 	b	40b660 <_fpadd_parts+0x280>
  40b71c:	adc30014 	sw	v1,20(t6)
/home/mips/toolchain-mips/build/gcc-final/gcc/dp-bit.c:479
  40b720:	10400004 	beqz	v0,40b734 <_fpadd_parts+0x354>
  40b724:	00000000 	nop
/home/mips/toolchain-mips/build/gcc-final/gcc/dp-bit.c:482
  40b728:	00005021 	move	t2,zero
  40b72c:	1000ff95 	b	40b584 <_fpadd_parts+0x1a4>
  40b730:	00005821 	move	t3,zero
/home/mips/toolchain-mips/build/gcc-final/gcc/dp-bit.c:487
  40b734:	00006021 	move	t4,zero
  40b738:	00006821 	move	t5,zero
  40b73c:	1000ff91 	b	40b584 <_fpadd_parts+0x1a4>
  40b740:	01207821 	move	t7,t1

0040b744 <__adddf3>:
__adddf3():
/home/mips/toolchain-mips/build/gcc-final/gcc/dp-bit.c:543
  40b744:	3c1c0000 	lui	gp,0x0
  40b748:	279c13fc 	addiu	gp,gp,5116
  40b74c:	0399e021 	addu	gp,gp,t9
  40b750:	27bdff80 	addiu	sp,sp,-128
  40b754:	afbc0010 	sw	gp,16(sp)
  40b758:	afb00070 	sw	s0,112(sp)
/home/mips/toolchain-mips/build/gcc-final/gcc/dp-bit.c:553
  40b75c:	27a40060 	addiu	a0,sp,96
/home/mips/toolchain-mips/build/gcc-final/gcc/dp-bit.c:554
  40b760:	27b00030 	addiu	s0,sp,48
/home/mips/toolchain-mips/build/gcc-final/gcc/dp-bit.c:553
  40b764:	27a50018 	addiu	a1,sp,24
/home/mips/toolchain-mips/build/gcc-final/gcc/dp-bit.c:543
  40b768:	afbf0078 	sw	ra,120(sp)
/home/mips/toolchain-mips/build/gcc-final/gcc/dp-bit.c:550
  40b76c:	e7ad0060 	swc1	$f13,96(sp)
  40b770:	e7ac0064 	swc1	$f12,100(sp)
/home/mips/toolchain-mips/build/gcc-final/gcc/dp-bit.c:551
  40b774:	e7af0068 	swc1	$f15,104(sp)
  40b778:	e7ae006c 	swc1	$f14,108(sp)
/home/mips/toolchain-mips/build/gcc-final/gcc/dp-bit.c:543
  40b77c:	afbc0074 	sw	gp,116(sp)
/home/mips/toolchain-mips/build/gcc-final/gcc/dp-bit.c:553
  40b780:	8f9902b8 	lw	t9,696(gp)
  40b784:	00000000 	nop
  40b788:	0320f809 	jalr	t9
  40b78c:	00000000 	nop
  40b790:	8fbc0010 	lw	gp,16(sp)
/home/mips/toolchain-mips/build/gcc-final/gcc/dp-bit.c:554
  40b794:	27a40068 	addiu	a0,sp,104
  40b798:	02002821 	move	a1,s0
  40b79c:	8f9902b8 	lw	t9,696(gp)
  40b7a0:	00000000 	nop
  40b7a4:	0320f809 	jalr	t9
  40b7a8:	00000000 	nop
  40b7ac:	8fbc0010 	lw	gp,16(sp)
/home/mips/toolchain-mips/build/gcc-final/gcc/dp-bit.c:556
  40b7b0:	02002821 	move	a1,s0
  40b7b4:	27a60048 	addiu	a2,sp,72
  40b7b8:	27a40018 	addiu	a0,sp,24
  40b7bc:	8f990008 	lw	t9,8(gp)
  40b7c0:	00000000 	nop
  40b7c4:	2739b3e0 	addiu	t9,t9,-19488
  40b7c8:	00000000 	nop
  40b7cc:	0320f809 	jalr	t9
  40b7d0:	00000000 	nop
  40b7d4:	8fbc0010 	lw	gp,16(sp)
/home/mips/toolchain-mips/build/gcc-final/gcc/dp-bit.c:558
  40b7d8:	00402021 	move	a0,v0
  40b7dc:	8f990028 	lw	t9,40(gp)
  40b7e0:	00000000 	nop
  40b7e4:	0320f809 	jalr	t9
  40b7e8:	00000000 	nop
  40b7ec:	8fbc0010 	lw	gp,16(sp)
  40b7f0:	8fbf0078 	lw	ra,120(sp)
  40b7f4:	8fb00070 	lw	s0,112(sp)
  40b7f8:	03e00008 	jr	ra
  40b7fc:	27bd0080 	addiu	sp,sp,128

0040b800 <__subdf3>:
__subdf3():
/home/mips/toolchain-mips/build/gcc-final/gcc/dp-bit.c:563
  40b800:	3c1c0000 	lui	gp,0x0
  40b804:	279c1340 	addiu	gp,gp,4928
  40b808:	0399e021 	addu	gp,gp,t9
  40b80c:	27bdff80 	addiu	sp,sp,-128
  40b810:	afbc0010 	sw	gp,16(sp)
  40b814:	afb00070 	sw	s0,112(sp)
/home/mips/toolchain-mips/build/gcc-final/gcc/dp-bit.c:573
  40b818:	27a40060 	addiu	a0,sp,96
/home/mips/toolchain-mips/build/gcc-final/gcc/dp-bit.c:574
  40b81c:	27b00030 	addiu	s0,sp,48
/home/mips/toolchain-mips/build/gcc-final/gcc/dp-bit.c:573
  40b820:	27a50018 	addiu	a1,sp,24
/home/mips/toolchain-mips/build/gcc-final/gcc/dp-bit.c:563
  40b824:	afbf0078 	sw	ra,120(sp)
/home/mips/toolchain-mips/build/gcc-final/gcc/dp-bit.c:570
  40b828:	e7ad0060 	swc1	$f13,96(sp)
  40b82c:	e7ac0064 	swc1	$f12,100(sp)
/home/mips/toolchain-mips/build/gcc-final/gcc/dp-bit.c:571
  40b830:	e7af0068 	swc1	$f15,104(sp)
  40b834:	e7ae006c 	swc1	$f14,108(sp)
/home/mips/toolchain-mips/build/gcc-final/gcc/dp-bit.c:563
  40b838:	afbc0074 	sw	gp,116(sp)
/home/mips/toolchain-mips/build/gcc-final/gcc/dp-bit.c:573
  40b83c:	8f9902b8 	lw	t9,696(gp)
  40b840:	00000000 	nop
  40b844:	0320f809 	jalr	t9
  40b848:	00000000 	nop
  40b84c:	8fbc0010 	lw	gp,16(sp)
/home/mips/toolchain-mips/build/gcc-final/gcc/dp-bit.c:574
  40b850:	27a40068 	addiu	a0,sp,104
  40b854:	02002821 	move	a1,s0
  40b858:	8f9902b8 	lw	t9,696(gp)
  40b85c:	00000000 	nop
  40b860:	0320f809 	jalr	t9
  40b864:	00000000 	nop
  40b868:	8fbc0010 	lw	gp,16(sp)
/home/mips/toolchain-mips/build/gcc-final/gcc/dp-bit.c:576
  40b86c:	8fa20034 	lw	v0,52(sp)
/home/mips/toolchain-mips/build/gcc-final/gcc/dp-bit.c:578
  40b870:	02002821 	move	a1,s0
  40b874:	27a60048 	addiu	a2,sp,72
  40b878:	27a40018 	addiu	a0,sp,24
/home/mips/toolchain-mips/build/gcc-final/gcc/dp-bit.c:576
  40b87c:	38420001 	xori	v0,v0,0x1
  40b880:	afa20034 	sw	v0,52(sp)
/home/mips/toolchain-mips/build/gcc-final/gcc/dp-bit.c:578
  40b884:	8f990008 	lw	t9,8(gp)
  40b888:	00000000 	nop
  40b88c:	2739b3e0 	addiu	t9,t9,-19488
  40b890:	00000000 	nop
  40b894:	0320f809 	jalr	t9
  40b898:	00000000 	nop
  40b89c:	8fbc0010 	lw	gp,16(sp)
/home/mips/toolchain-mips/build/gcc-final/gcc/dp-bit.c:580
  40b8a0:	00402021 	move	a0,v0
  40b8a4:	8f990028 	lw	t9,40(gp)
  40b8a8:	00000000 	nop
  40b8ac:	0320f809 	jalr	t9
  40b8b0:	00000000 	nop
  40b8b4:	8fbc0010 	lw	gp,16(sp)
  40b8b8:	8fbf0078 	lw	ra,120(sp)
  40b8bc:	8fb00070 	lw	s0,112(sp)
  40b8c0:	03e00008 	jr	ra
  40b8c4:	27bd0080 	addiu	sp,sp,128
	...

0040b8d0 <__muldf3>:
__muldf3():
/home/mips/toolchain-mips/build/gcc-final/gcc/dp-bit.c:757
  40b8d0:	3c1c0000 	lui	gp,0x0
  40b8d4:	279c1270 	addiu	gp,gp,4720
  40b8d8:	0399e021 	addu	gp,gp,t9
  40b8dc:	27bdff80 	addiu	sp,sp,-128
  40b8e0:	afbc0010 	sw	gp,16(sp)
  40b8e4:	afb00070 	sw	s0,112(sp)
/home/mips/toolchain-mips/build/gcc-final/gcc/dp-bit.c:767
  40b8e8:	27a40060 	addiu	a0,sp,96
/home/mips/toolchain-mips/build/gcc-final/gcc/dp-bit.c:768
  40b8ec:	27b00030 	addiu	s0,sp,48
/home/mips/toolchain-mips/build/gcc-final/gcc/dp-bit.c:767
  40b8f0:	27a50018 	addiu	a1,sp,24
/home/mips/toolchain-mips/build/gcc-final/gcc/dp-bit.c:757
  40b8f4:	afbf0078 	sw	ra,120(sp)
/home/mips/toolchain-mips/build/gcc-final/gcc/dp-bit.c:764
  40b8f8:	e7ad0060 	swc1	$f13,96(sp)
  40b8fc:	e7ac0064 	swc1	$f12,100(sp)
/home/mips/toolchain-mips/build/gcc-final/gcc/dp-bit.c:765
  40b900:	e7af0068 	swc1	$f15,104(sp)
  40b904:	e7ae006c 	swc1	$f14,108(sp)
/home/mips/toolchain-mips/build/gcc-final/gcc/dp-bit.c:757
  40b908:	afbc0074 	sw	gp,116(sp)
/home/mips/toolchain-mips/build/gcc-final/gcc/dp-bit.c:767
  40b90c:	8f9902b8 	lw	t9,696(gp)
  40b910:	00000000 	nop
  40b914:	0320f809 	jalr	t9
  40b918:	00000000 	nop
  40b91c:	8fbc0010 	lw	gp,16(sp)
/home/mips/toolchain-mips/build/gcc-final/gcc/dp-bit.c:768
  40b920:	27a40068 	addiu	a0,sp,104
  40b924:	02002821 	move	a1,s0
  40b928:	8f9902b8 	lw	t9,696(gp)
  40b92c:	00000000 	nop
  40b930:	0320f809 	jalr	t9
  40b934:	00000000 	nop
  40b938:	8fbc0010 	lw	gp,16(sp)
/home/mips/toolchain-mips/build/gcc-final/gcc/dp-bit.c:770
  40b93c:	02002821 	move	a1,s0
  40b940:	27a60048 	addiu	a2,sp,72
  40b944:	27a40018 	addiu	a0,sp,24
  40b948:	8f990008 	lw	t9,8(gp)
  40b94c:	00000000 	nop
  40b950:	2739b98c 	addiu	t9,t9,-18036
  40b954:	00000000 	nop
  40b958:	0320f809 	jalr	t9
  40b95c:	00000000 	nop
  40b960:	8fbc0010 	lw	gp,16(sp)
/home/mips/toolchain-mips/build/gcc-final/gcc/dp-bit.c:772
  40b964:	00402021 	move	a0,v0
  40b968:	8f990028 	lw	t9,40(gp)
  40b96c:	00000000 	nop
  40b970:	0320f809 	jalr	t9
  40b974:	00000000 	nop
  40b978:	8fbc0010 	lw	gp,16(sp)
  40b97c:	8fbf0078 	lw	ra,120(sp)
  40b980:	8fb00070 	lw	s0,112(sp)
  40b984:	03e00008 	jr	ra
  40b988:	27bd0080 	addiu	sp,sp,128

0040b98c <_fpmul_parts>:
/home/mips/toolchain-mips/build/gcc-final/gcc/dp-bit.c:589
  40b98c:	3c1c0000 	lui	gp,0x0
  40b990:	279c11b4 	addiu	gp,gp,4532
  40b994:	0399e021 	addu	gp,gp,t9
  40b998:	27bdffe0 	addiu	sp,sp,-32
  40b99c:	afbc0000 	sw	gp,0(sp)
  40b9a0:	afbc0018 	sw	gp,24(sp)
  40b9a4:	afb30014 	sw	s3,20(sp)
  40b9a8:	afb20010 	sw	s2,16(sp)
  40b9ac:	afb1000c 	sw	s1,12(sp)
  40b9b0:	afb00008 	sw	s0,8(sp)
/home/mips/toolchain-mips/build/gcc-final/gcc/dp-bit.c:152
  40b9b4:	8c830000 	lw	v1,0(a0)
/home/mips/toolchain-mips/build/gcc-final/gcc/dp-bit.c:589
  40b9b8:	00805021 	move	t2,a0
/home/mips/toolchain-mips/build/gcc-final/gcc/dp-bit.c:152
  40b9bc:	2c620002 	sltiu	v0,v1,2
/home/mips/toolchain-mips/build/gcc-final/gcc/dp-bit.c:589
  40b9c0:	00a05821 	move	t3,a1
/home/mips/toolchain-mips/build/gcc-final/gcc/dp-bit.c:151
  40b9c4:	1440000c 	bnez	v0,40b9f8 <_fpmul_parts+0x6c>
  40b9c8:	00c07021 	move	t6,a2
/home/mips/toolchain-mips/build/gcc-final/gcc/dp-bit.c:152
  40b9cc:	8ca40000 	lw	a0,0(a1)
  40b9d0:	00000000 	nop
  40b9d4:	2c820002 	sltiu	v0,a0,2
/home/mips/toolchain-mips/build/gcc-final/gcc/dp-bit.c:151
  40b9d8:	14400019 	bnez	v0,40ba40 <_fpmul_parts+0xb4>
  40b9dc:	38620004 	xori	v0,v1,0x4
/home/mips/toolchain-mips/build/gcc-final/gcc/dp-bit.c:158
  40b9e0:	14400012 	bnez	v0,40ba2c <_fpmul_parts+0xa0>
  40b9e4:	38820004 	xori	v0,a0,0x4
/home/mips/toolchain-mips/build/gcc-final/gcc/dp-bit.c:168
  40b9e8:	38820002 	xori	v0,a0,0x2
/home/mips/toolchain-mips/build/gcc-final/gcc/dp-bit.c:167
  40b9ec:	8f860148 	lw	a2,328(gp)
/home/mips/toolchain-mips/build/gcc-final/gcc/dp-bit.c:139
  40b9f0:	10400007 	beqz	v0,40ba10 <_fpmul_parts+0x84>
  40b9f4:	00000000 	nop
/home/mips/toolchain-mips/build/gcc-final/gcc/dp-bit.c:621
  40b9f8:	8d630004 	lw	v1,4(t3)
  40b9fc:	8d420004 	lw	v0,4(t2)
/home/mips/toolchain-mips/build/gcc-final/gcc/dp-bit.c:622
  40ba00:	01403021 	move	a2,t2
/home/mips/toolchain-mips/build/gcc-final/gcc/dp-bit.c:621
  40ba04:	00431026 	xor	v0,v0,v1
  40ba08:	0002102b 	sltu	v0,zero,v0
  40ba0c:	ad420004 	sw	v0,4(t2)
/home/mips/toolchain-mips/build/gcc-final/gcc/dp-bit.c:753
  40ba10:	8fb30014 	lw	s3,20(sp)
  40ba14:	8fb20010 	lw	s2,16(sp)
  40ba18:	8fb1000c 	lw	s1,12(sp)
  40ba1c:	8fb00008 	lw	s0,8(sp)
  40ba20:	00c01021 	move	v0,a2
  40ba24:	03e00008 	jr	ra
  40ba28:	27bd0020 	addiu	sp,sp,32
/home/mips/toolchain-mips/build/gcc-final/gcc/dp-bit.c:158
  40ba2c:	1440000b 	bnez	v0,40ba5c <_fpmul_parts+0xd0>
  40ba30:	38620002 	xori	v0,v1,0x2
/home/mips/toolchain-mips/build/gcc-final/gcc/dp-bit.c:167
  40ba34:	8f860148 	lw	a2,328(gp)
/home/mips/toolchain-mips/build/gcc-final/gcc/dp-bit.c:139
  40ba38:	1040fff5 	beqz	v0,40ba10 <_fpmul_parts+0x84>
  40ba3c:	00000000 	nop
/home/mips/toolchain-mips/build/gcc-final/gcc/dp-bit.c:626
  40ba40:	8d420004 	lw	v0,4(t2)
  40ba44:	8d630004 	lw	v1,4(t3)
/home/mips/toolchain-mips/build/gcc-final/gcc/dp-bit.c:627
  40ba48:	01603021 	move	a2,t3
/home/mips/toolchain-mips/build/gcc-final/gcc/dp-bit.c:626
  40ba4c:	00431026 	xor	v0,v0,v1
  40ba50:	0002102b 	sltu	v0,zero,v0
/home/mips/toolchain-mips/build/gcc-final/gcc/dp-bit.c:627
  40ba54:	1000ffee 	b	40ba10 <_fpmul_parts+0x84>
  40ba58:	ad620004 	sw	v0,4(t3)
/home/mips/toolchain-mips/build/gcc-final/gcc/dp-bit.c:167
  40ba5c:	1040ffe6 	beqz	v0,40b9f8 <_fpmul_parts+0x6c>
  40ba60:	38820002 	xori	v0,a0,0x2
  40ba64:	1040fff6 	beqz	v0,40ba40 <_fpmul_parts+0xb4>
  40ba68:	00000000 	nop
/home/mips/toolchain-mips/build/gcc-final/gcc/dp-bit.c:674
  40ba6c:	8ca70014 	lw	a3,20(a1)
/home/mips/toolchain-mips/build/gcc-final/gcc/dp-bit.c:673
  40ba70:	8d460010 	lw	a2,16(t2)
/home/mips/toolchain-mips/build/gcc-final/gcc/dp-bit.c:672
  40ba74:	8d480014 	lw	t0,20(t2)
/home/mips/toolchain-mips/build/gcc-final/gcc/dp-bit.c:678
  40ba78:	00e60019 	multu	a3,a2
/home/mips/toolchain-mips/build/gcc-final/gcc/dp-bit.c:675
  40ba7c:	8ca50010 	lw	a1,16(a1)
/home/mips/toolchain-mips/build/gcc-final/gcc/dp-bit.c:680
  40ba80:	00008021 	move	s0,zero
  40ba84:	00008821 	move	s1,zero
/home/mips/toolchain-mips/build/gcc-final/gcc/dp-bit.c:678
  40ba88:	00001010 	mfhi	v0
  40ba8c:	00001812 	mflo	v1
	...
/home/mips/toolchain-mips/build/gcc-final/gcc/dp-bit.c:677
  40ba98:	00a80019 	multu	a1,t0
  40ba9c:	00006010 	mfhi	t4
  40baa0:	00006812 	mflo	t5
/home/mips/toolchain-mips/build/gcc-final/gcc/dp-bit.c:682
  40baa4:	01a3c821 	addu	t9,t5,v1
  40baa8:	0323482b 	sltu	t1,t9,v1
/home/mips/toolchain-mips/build/gcc-final/gcc/dp-bit.c:679
  40baac:	00a60019 	multu	a1,a2
/home/mips/toolchain-mips/build/gcc-final/gcc/dp-bit.c:682
  40bab0:	0182c021 	addu	t8,t4,v0
  40bab4:	0309c021 	addu	t8,t8,t1
/home/mips/toolchain-mips/build/gcc-final/gcc/dp-bit.c:683
  40bab8:	030c202b 	sltu	a0,t8,t4
/home/mips/toolchain-mips/build/gcc-final/gcc/dp-bit.c:679
  40babc:	00009010 	mfhi	s2
  40bac0:	00009812 	mflo	s3
	...
/home/mips/toolchain-mips/build/gcc-final/gcc/dp-bit.c:676
  40bacc:	00e80019 	multu	a3,t0
  40bad0:	00003010 	mfhi	a2
  40bad4:	00003812 	mflo	a3
/home/mips/toolchain-mips/build/gcc-final/gcc/dp-bit.c:683
  40bad8:	14800083 	bnez	a0,40bce8 <_fpmul_parts+0x35c>
  40badc:	00000000 	nop
  40bae0:	1198007f 	beq	t4,t8,40bce0 <_fpmul_parts+0x354>
  40bae4:	032d102b 	sltu	v0,t9,t5
/home/mips/toolchain-mips/build/gcc-final/gcc/dp-bit.c:685
  40bae8:	00006821 	move	t5,zero
  40baec:	00196000 	sll	t4,t9,0x0
/home/mips/toolchain-mips/build/gcc-final/gcc/dp-bit.c:686
  40baf0:	00ed1821 	addu	v1,a3,t5
  40baf4:	006d282b 	sltu	a1,v1,t5
  40baf8:	00cc1021 	addu	v0,a2,t4
  40bafc:	00451021 	addu	v0,v0,a1
  40bb00:	00406021 	move	t4,v0
/home/mips/toolchain-mips/build/gcc-final/gcc/dp-bit.c:687
  40bb04:	0046102b 	sltu	v0,v0,a2
  40bb08:	14400071 	bnez	v0,40bcd0 <_fpmul_parts+0x344>
  40bb0c:	00606821 	move	t5,v1
  40bb10:	10cc006d 	beq	a2,t4,40bcc8 <_fpmul_parts+0x33c>
  40bb14:	0067102b 	sltu	v0,v1,a3
/home/mips/toolchain-mips/build/gcc-final/gcc/dp-bit.c:689
  40bb18:	00181802 	srl	v1,t8,0x0
  40bb1c:	00731821 	addu	v1,v1,s3
  40bb20:	00001021 	move	v0,zero
  40bb24:	0073482b 	sltu	t1,v1,s3
  40bb28:	00521021 	addu	v0,v0,s2
/home/mips/toolchain-mips/build/gcc-final/gcc/dp-bit.c:696
  40bb2c:	8d670008 	lw	a3,8(t3)
/home/mips/toolchain-mips/build/gcc-final/gcc/dp-bit.c:697
  40bb30:	8d460004 	lw	a2,4(t2)
  40bb34:	8d680004 	lw	t0,4(t3)
/home/mips/toolchain-mips/build/gcc-final/gcc/dp-bit.c:696
  40bb38:	8d440008 	lw	a0,8(t2)
/home/mips/toolchain-mips/build/gcc-final/gcc/dp-bit.c:689
  40bb3c:	00491021 	addu	v0,v0,t1
/home/mips/toolchain-mips/build/gcc-final/gcc/dp-bit.c:690
  40bb40:	02235821 	addu	t3,s1,v1
/home/mips/toolchain-mips/build/gcc-final/gcc/dp-bit.c:703
  40bb44:	3c051fff 	lui	a1,0x1fff
/home/mips/toolchain-mips/build/gcc-final/gcc/dp-bit.c:690
  40bb48:	0163482b 	sltu	t1,t3,v1
  40bb4c:	02025021 	addu	t2,s0,v0
/home/mips/toolchain-mips/build/gcc-final/gcc/dp-bit.c:696
  40bb50:	00872021 	addu	a0,a0,a3
/home/mips/toolchain-mips/build/gcc-final/gcc/dp-bit.c:690
  40bb54:	01495021 	addu	t2,t2,t1
/home/mips/toolchain-mips/build/gcc-final/gcc/dp-bit.c:697
  40bb58:	00c83026 	xor	a2,a2,t0
/home/mips/toolchain-mips/build/gcc-final/gcc/dp-bit.c:703
  40bb5c:	34a5ffff 	ori	a1,a1,0xffff
/home/mips/toolchain-mips/build/gcc-final/gcc/dp-bit.c:697
  40bb60:	0006302b 	sltu	a2,zero,a2
/home/mips/toolchain-mips/build/gcc-final/gcc/dp-bit.c:701
  40bb64:	24840004 	addiu	a0,a0,4
/home/mips/toolchain-mips/build/gcc-final/gcc/dp-bit.c:703
  40bb68:	00aa282b 	sltu	a1,a1,t2
/home/mips/toolchain-mips/build/gcc-final/gcc/dp-bit.c:697
  40bb6c:	adc60004 	sw	a2,4(t6)
/home/mips/toolchain-mips/build/gcc-final/gcc/dp-bit.c:701
  40bb70:	adc40008 	sw	a0,8(t6)
/home/mips/toolchain-mips/build/gcc-final/gcc/dp-bit.c:691
  40bb74:	01803021 	move	a2,t4
/home/mips/toolchain-mips/build/gcc-final/gcc/dp-bit.c:703
  40bb78:	10a00019 	beqz	a1,40bbe0 <_fpmul_parts+0x254>
  40bb7c:	01a03821 	move	a3,t5
  40bb80:	3c0c1fff 	lui	t4,0x1fff
  40bb84:	24080000 	li	t0,0
  40bb88:	24090001 	li	t1,1
  40bb8c:	3c188000 	lui	t8,0x8000
  40bb90:	24190000 	li	t9,0
  40bb94:	358cffff 	ori	t4,t4,0xffff
/home/mips/toolchain-mips/build/gcc-final/gcc/dp-bit.c:705
  40bb98:	8dc20008 	lw	v0,8(t6)
/home/mips/toolchain-mips/build/gcc-final/gcc/dp-bit.c:706
  40bb9c:	000a1fc0 	sll	v1,t2,0x1f
  40bba0:	01692824 	and	a1,t3,t1
  40bba4:	000a5042 	srl	t2,t2,0x1
  40bba8:	000b5842 	srl	t3,t3,0x1
/home/mips/toolchain-mips/build/gcc-final/gcc/dp-bit.c:705
  40bbac:	24420001 	addiu	v0,v0,1
/home/mips/toolchain-mips/build/gcc-final/gcc/dp-bit.c:706
  40bbb0:	01635825 	or	t3,t3,v1
/home/mips/toolchain-mips/build/gcc-final/gcc/dp-bit.c:705
  40bbb4:	adc20008 	sw	v0,8(t6)
/home/mips/toolchain-mips/build/gcc-final/gcc/dp-bit.c:706
  40bbb8:	10a00007 	beqz	a1,40bbd8 <_fpmul_parts+0x24c>
  40bbbc:	018a182b 	sltu	v1,t4,t2
/home/mips/toolchain-mips/build/gcc-final/gcc/dp-bit.c:708
  40bbc0:	000617c0 	sll	v0,a2,0x1f
  40bbc4:	00073842 	srl	a3,a3,0x1
  40bbc8:	00e23825 	or	a3,a3,v0
  40bbcc:	00063042 	srl	a2,a2,0x1
/home/mips/toolchain-mips/build/gcc-final/gcc/dp-bit.c:709
  40bbd0:	00d83025 	or	a2,a2,t8
  40bbd4:	00f93825 	or	a3,a3,t9
/home/mips/toolchain-mips/build/gcc-final/gcc/dp-bit.c:711
  40bbd8:	1460ffef 	bnez	v1,40bb98 <_fpmul_parts+0x20c>
  40bbdc:	00000000 	nop
/home/mips/toolchain-mips/build/gcc-final/gcc/dp-bit.c:713
  40bbe0:	3c020fff 	lui	v0,0xfff
  40bbe4:	3442ffff 	ori	v0,v0,0xffff
  40bbe8:	004a102b 	sltu	v0,v0,t2
  40bbec:	1440001b 	bnez	v0,40bc5c <_fpmul_parts+0x2d0>
  40bbf0:	00000000 	nop
  40bbf4:	3c0c0fff 	lui	t4,0xfff
  40bbf8:	3c088000 	lui	t0,0x8000
  40bbfc:	24090000 	li	t1,0
  40bc00:	24100000 	li	s0,0
  40bc04:	24110001 	li	s1,1
  40bc08:	358cffff 	ori	t4,t4,0xffff
/home/mips/toolchain-mips/build/gcc-final/gcc/dp-bit.c:715
  40bc0c:	8dc40008 	lw	a0,8(t6)
/home/mips/toolchain-mips/build/gcc-final/gcc/dp-bit.c:718
  40bc10:	00072fc2 	srl	a1,a3,0x1f
  40bc14:	00c81024 	and	v0,a2,t0
  40bc18:	00e91824 	and	v1,a3,t1
  40bc1c:	00063040 	sll	a2,a2,0x1
/home/mips/toolchain-mips/build/gcc-final/gcc/dp-bit.c:715
  40bc20:	2484ffff 	addiu	a0,a0,-1
/home/mips/toolchain-mips/build/gcc-final/gcc/dp-bit.c:718
  40bc24:	00c53025 	or	a2,a2,a1
/home/mips/toolchain-mips/build/gcc-final/gcc/dp-bit.c:717
  40bc28:	000a5040 	sll	t2,t2,0x1
  40bc2c:	000b2fc2 	srl	a1,t3,0x1f
/home/mips/toolchain-mips/build/gcc-final/gcc/dp-bit.c:718
  40bc30:	00431025 	or	v0,v0,v1
  40bc34:	00073840 	sll	a3,a3,0x1
/home/mips/toolchain-mips/build/gcc-final/gcc/dp-bit.c:715
  40bc38:	adc40008 	sw	a0,8(t6)
/home/mips/toolchain-mips/build/gcc-final/gcc/dp-bit.c:717
  40bc3c:	01455025 	or	t2,t2,a1
/home/mips/toolchain-mips/build/gcc-final/gcc/dp-bit.c:718
  40bc40:	10400003 	beqz	v0,40bc50 <_fpmul_parts+0x2c4>
  40bc44:	000b5840 	sll	t3,t3,0x1
/home/mips/toolchain-mips/build/gcc-final/gcc/dp-bit.c:719
  40bc48:	01505025 	or	t2,t2,s0
  40bc4c:	01715825 	or	t3,t3,s1
/home/mips/toolchain-mips/build/gcc-final/gcc/dp-bit.c:720
  40bc50:	018a102b 	sltu	v0,t4,t2
  40bc54:	1040ffed 	beqz	v0,40bc0c <_fpmul_parts+0x280>
  40bc58:	00000000 	nop
/home/mips/toolchain-mips/build/gcc-final/gcc/dp-bit.c:737
  40bc5c:	24020000 	li	v0,0
  40bc60:	240300ff 	li	v1,255
  40bc64:	01422024 	and	a0,t2,v0
  40bc68:	14800004 	bnez	a0,40bc7c <_fpmul_parts+0x2f0>
  40bc6c:	01632824 	and	a1,t3,v1
  40bc70:	24020080 	li	v0,128
  40bc74:	10a20007 	beq	a1,v0,40bc94 <_fpmul_parts+0x308>
  40bc78:	00000000 	nop
/home/mips/toolchain-mips/build/gcc-final/gcc/dp-bit.c:751
  40bc7c:	24020003 	li	v0,3
/home/mips/toolchain-mips/build/gcc-final/gcc/dp-bit.c:750
  40bc80:	adca0010 	sw	t2,16(t6)
  40bc84:	adcb0014 	sw	t3,20(t6)
/home/mips/toolchain-mips/build/gcc-final/gcc/dp-bit.c:751
  40bc88:	adc20000 	sw	v0,0(t6)
/home/mips/toolchain-mips/build/gcc-final/gcc/dp-bit.c:752
  40bc8c:	1000ff60 	b	40ba10 <_fpmul_parts+0x84>
  40bc90:	01c03021 	move	a2,t6
/home/mips/toolchain-mips/build/gcc-final/gcc/dp-bit.c:739
  40bc94:	24020000 	li	v0,0
  40bc98:	24030100 	li	v1,256
  40bc9c:	01421024 	and	v0,t2,v0
  40bca0:	01631824 	and	v1,t3,v1
  40bca4:	00431025 	or	v0,v0,v1
  40bca8:	14400003 	bnez	v0,40bcb8 <_fpmul_parts+0x32c>
  40bcac:	00c71025 	or	v0,a2,a3
/home/mips/toolchain-mips/build/gcc-final/gcc/dp-bit.c:744
  40bcb0:	1040fff3 	beqz	v0,40bc80 <_fpmul_parts+0x2f4>
  40bcb4:	24020003 	li	v0,3
/home/mips/toolchain-mips/build/gcc-final/gcc/dp-bit.c:747
  40bcb8:	256b0080 	addiu	t3,t3,128
  40bcbc:	2d620080 	sltiu	v0,t3,128
  40bcc0:	1000ffee 	b	40bc7c <_fpmul_parts+0x2f0>
  40bcc4:	01425021 	addu	t2,t2,v0
  40bcc8:	1040ff94 	beqz	v0,40bb1c <_fpmul_parts+0x190>
  40bccc:	00181802 	srl	v1,t8,0x0
/home/mips/toolchain-mips/build/gcc-final/gcc/dp-bit.c:688
  40bcd0:	26310001 	addiu	s1,s1,1
  40bcd4:	2e220001 	sltiu	v0,s1,1
  40bcd8:	1000ff8f 	b	40bb18 <_fpmul_parts+0x18c>
  40bcdc:	02028021 	addu	s0,s0,v0
  40bce0:	1040ff81 	beqz	v0,40bae8 <_fpmul_parts+0x15c>
  40bce4:	00000000 	nop
/home/mips/toolchain-mips/build/gcc-final/gcc/dp-bit.c:684
  40bce8:	24100001 	li	s0,1
  40bcec:	24110000 	li	s1,0
  40bcf0:	1000ff7e 	b	40baec <_fpmul_parts+0x160>
  40bcf4:	00006821 	move	t5,zero
	...

0040bd00 <__divdf3>:
__divdf3():
/home/mips/toolchain-mips/build/gcc-final/gcc/dp-bit.c:868
  40bd00:	3c1c0000 	lui	gp,0x0
  40bd04:	279c0e40 	addiu	gp,gp,3648
  40bd08:	0399e021 	addu	gp,gp,t9
  40bd0c:	27bdff98 	addiu	sp,sp,-104
  40bd10:	afbc0010 	sw	gp,16(sp)
  40bd14:	afb00058 	sw	s0,88(sp)
/home/mips/toolchain-mips/build/gcc-final/gcc/dp-bit.c:877
  40bd18:	27a40048 	addiu	a0,sp,72
/home/mips/toolchain-mips/build/gcc-final/gcc/dp-bit.c:878
  40bd1c:	27b00030 	addiu	s0,sp,48
/home/mips/toolchain-mips/build/gcc-final/gcc/dp-bit.c:877
  40bd20:	27a50018 	addiu	a1,sp,24
/home/mips/toolchain-mips/build/gcc-final/gcc/dp-bit.c:868
  40bd24:	afbf0060 	sw	ra,96(sp)
/home/mips/toolchain-mips/build/gcc-final/gcc/dp-bit.c:874
  40bd28:	e7ad0048 	swc1	$f13,72(sp)
  40bd2c:	e7ac004c 	swc1	$f12,76(sp)
/home/mips/toolchain-mips/build/gcc-final/gcc/dp-bit.c:875
  40bd30:	e7af0050 	swc1	$f15,80(sp)
  40bd34:	e7ae0054 	swc1	$f14,84(sp)
/home/mips/toolchain-mips/build/gcc-final/gcc/dp-bit.c:868
  40bd38:	afbc005c 	sw	gp,92(sp)
/home/mips/toolchain-mips/build/gcc-final/gcc/dp-bit.c:877
  40bd3c:	8f9902b8 	lw	t9,696(gp)
  40bd40:	00000000 	nop
  40bd44:	0320f809 	jalr	t9
  40bd48:	00000000 	nop
  40bd4c:	8fbc0010 	lw	gp,16(sp)
/home/mips/toolchain-mips/build/gcc-final/gcc/dp-bit.c:878
  40bd50:	27a40050 	addiu	a0,sp,80
  40bd54:	02002821 	move	a1,s0
  40bd58:	8f9902b8 	lw	t9,696(gp)
  40bd5c:	00000000 	nop
  40bd60:	0320f809 	jalr	t9
  40bd64:	00000000 	nop
  40bd68:	8fbc0010 	lw	gp,16(sp)
/home/mips/toolchain-mips/build/gcc-final/gcc/dp-bit.c:880
  40bd6c:	02002821 	move	a1,s0
  40bd70:	27a40018 	addiu	a0,sp,24
  40bd74:	8f990008 	lw	t9,8(gp)
  40bd78:	00000000 	nop
  40bd7c:	2739bdb8 	addiu	t9,t9,-16968
  40bd80:	00000000 	nop
  40bd84:	0320f809 	jalr	t9
  40bd88:	00000000 	nop
  40bd8c:	8fbc0010 	lw	gp,16(sp)
/home/mips/toolchain-mips/build/gcc-final/gcc/dp-bit.c:882
  40bd90:	00402021 	move	a0,v0
  40bd94:	8f990028 	lw	t9,40(gp)
  40bd98:	00000000 	nop
  40bd9c:	0320f809 	jalr	t9
  40bda0:	00000000 	nop
  40bda4:	8fbc0010 	lw	gp,16(sp)
  40bda8:	8fbf0060 	lw	ra,96(sp)
  40bdac:	8fb00058 	lw	s0,88(sp)
  40bdb0:	03e00008 	jr	ra
  40bdb4:	27bd0068 	addiu	sp,sp,104

0040bdb8 <_fpdiv_parts>:
/home/mips/toolchain-mips/build/gcc-final/gcc/dp-bit.c:780
  40bdb8:	3c1c0000 	lui	gp,0x0
  40bdbc:	279c0d88 	addiu	gp,gp,3464
  40bdc0:	0399e021 	addu	gp,gp,t9
/home/mips/toolchain-mips/build/gcc-final/gcc/dp-bit.c:152
  40bdc4:	8c860000 	lw	a2,0(a0)
/home/mips/toolchain-mips/build/gcc-final/gcc/dp-bit.c:780
  40bdc8:	00804021 	move	t0,a0
/home/mips/toolchain-mips/build/gcc-final/gcc/dp-bit.c:152
  40bdcc:	2cc20002 	sltiu	v0,a2,2
/home/mips/toolchain-mips/build/gcc-final/gcc/dp-bit.c:151
  40bdd0:	14400013 	bnez	v0,40be20 <_fpdiv_parts+0x68>
  40bdd4:	00801821 	move	v1,a0
/home/mips/toolchain-mips/build/gcc-final/gcc/dp-bit.c:152
  40bdd8:	8ca70000 	lw	a3,0(a1)
  40bddc:	00000000 	nop
  40bde0:	2ce20002 	sltiu	v0,a3,2
/home/mips/toolchain-mips/build/gcc-final/gcc/dp-bit.c:151
  40bde4:	1440000e 	bnez	v0,40be20 <_fpdiv_parts+0x68>
  40bde8:	00a01821 	move	v1,a1
/home/mips/toolchain-mips/build/gcc-final/gcc/dp-bit.c:795
  40bdec:	8c820004 	lw	v0,4(a0)
  40bdf0:	8ca30004 	lw	v1,4(a1)
/home/mips/toolchain-mips/build/gcc-final/gcc/dp-bit.c:159
  40bdf4:	38c40004 	xori	a0,a2,0x4
/home/mips/toolchain-mips/build/gcc-final/gcc/dp-bit.c:795
  40bdf8:	00431026 	xor	v0,v0,v1
/home/mips/toolchain-mips/build/gcc-final/gcc/dp-bit.c:158
  40bdfc:	10800004 	beqz	a0,40be10 <_fpdiv_parts+0x58>
  40be00:	ad020004 	sw	v0,4(t0)
/home/mips/toolchain-mips/build/gcc-final/gcc/dp-bit.c:168
  40be04:	38c20002 	xori	v0,a2,0x2
/home/mips/toolchain-mips/build/gcc-final/gcc/dp-bit.c:167
  40be08:	14400007 	bnez	v0,40be28 <_fpdiv_parts+0x70>
  40be0c:	38e20004 	xori	v0,a3,0x4
/home/mips/toolchain-mips/build/gcc-final/gcc/dp-bit.c:799
  40be10:	8f830148 	lw	v1,328(gp)
/home/mips/toolchain-mips/build/gcc-final/gcc/dp-bit.c:139
  40be14:	10c70002 	beq	a2,a3,40be20 <_fpdiv_parts+0x68>
  40be18:	00000000 	nop
/home/mips/toolchain-mips/build/gcc-final/gcc/dp-bit.c:862
  40be1c:	01001821 	move	v1,t0
/home/mips/toolchain-mips/build/gcc-final/gcc/dp-bit.c:864
  40be20:	03e00008 	jr	ra
  40be24:	00601021 	move	v0,v1
/home/mips/toolchain-mips/build/gcc-final/gcc/dp-bit.c:158
  40be28:	14400007 	bnez	v0,40be48 <_fpdiv_parts+0x90>
  40be2c:	01001821 	move	v1,t0
/home/mips/toolchain-mips/build/gcc-final/gcc/dp-bit.c:806
  40be30:	00002021 	move	a0,zero
  40be34:	00002821 	move	a1,zero
  40be38:	ad040010 	sw	a0,16(t0)
  40be3c:	ad050014 	sw	a1,20(t0)
/home/mips/toolchain-mips/build/gcc-final/gcc/dp-bit.c:808
  40be40:	1000fff7 	b	40be20 <_fpdiv_parts+0x68>
  40be44:	ad000008 	sw	zero,8(t0)
/home/mips/toolchain-mips/build/gcc-final/gcc/dp-bit.c:168
  40be48:	38e20002 	xori	v0,a3,0x2
/home/mips/toolchain-mips/build/gcc-final/gcc/dp-bit.c:167
  40be4c:	14400004 	bnez	v0,40be60 <_fpdiv_parts+0xa8>
  40be50:	24020004 	li	v0,4
/home/mips/toolchain-mips/build/gcc-final/gcc/dp-bit.c:813
  40be54:	01001821 	move	v1,t0
  40be58:	1000fff1 	b	40be20 <_fpdiv_parts+0x68>
  40be5c:	ad020000 	sw	v0,0(t0)
/home/mips/toolchain-mips/build/gcc-final/gcc/dp-bit.c:823
  40be60:	8d030008 	lw	v1,8(t0)
  40be64:	8ca20008 	lw	v0,8(a1)
/home/mips/toolchain-mips/build/gcc-final/gcc/dp-bit.c:825
  40be68:	8cac0010 	lw	t4,16(a1)
  40be6c:	8cad0014 	lw	t5,20(a1)
/home/mips/toolchain-mips/build/gcc-final/gcc/dp-bit.c:824
  40be70:	8d060010 	lw	a2,16(t0)
  40be74:	8d070014 	lw	a3,20(t0)
/home/mips/toolchain-mips/build/gcc-final/gcc/dp-bit.c:823
  40be78:	00621823 	subu	v1,v1,v0
/home/mips/toolchain-mips/build/gcc-final/gcc/dp-bit.c:827
  40be7c:	00cc482b 	sltu	t1,a2,t4
  40be80:	1520003e 	bnez	t1,40bf7c <_fpdiv_parts+0x1c4>
  40be84:	ad030008 	sw	v1,8(t0)
  40be88:	1186003a 	beq	t4,a2,40bf74 <_fpdiv_parts+0x1bc>
  40be8c:	00ed102b 	sltu	v0,a3,t5
/home/mips/toolchain-mips/build/gcc-final/gcc/dp-bit.c:833
  40be90:	3c0a1000 	lui	t2,0x1000
  40be94:	240b0000 	li	t3,0
/home/mips/toolchain-mips/build/gcc-final/gcc/dp-bit.c:834
  40be98:	00007021 	move	t6,zero
  40be9c:	00007821 	move	t7,zero
/home/mips/toolchain-mips/build/gcc-final/gcc/dp-bit.c:838
  40bea0:	1520000a 	bnez	t1,40becc <_fpdiv_parts+0x114>
  40bea4:	000a17c0 	sll	v0,t2,0x1f
  40bea8:	1186002e 	beq	t4,a2,40bf64 <_fpdiv_parts+0x1ac>
  40beac:	00ed102b 	sltu	v0,a3,t5
/home/mips/toolchain-mips/build/gcc-final/gcc/dp-bit.c:841
  40beb0:	00ed102b 	sltu	v0,a3,t5
  40beb4:	00cc3023 	subu	a2,a2,t4
  40beb8:	00ed3823 	subu	a3,a3,t5
  40bebc:	00c23023 	subu	a2,a2,v0
/home/mips/toolchain-mips/build/gcc-final/gcc/dp-bit.c:840
  40bec0:	01ca7025 	or	t6,t6,t2
  40bec4:	01eb7825 	or	t7,t7,t3
/home/mips/toolchain-mips/build/gcc-final/gcc/dp-bit.c:843
  40bec8:	000a17c0 	sll	v0,t2,0x1f
  40becc:	000b5842 	srl	t3,t3,0x1
/home/mips/toolchain-mips/build/gcc-final/gcc/dp-bit.c:844
  40bed0:	00062040 	sll	a0,a2,0x1
  40bed4:	00071fc2 	srl	v1,a3,0x1f
/home/mips/toolchain-mips/build/gcc-final/gcc/dp-bit.c:843
  40bed8:	01625825 	or	t3,t3,v0
  40bedc:	000a5042 	srl	t2,t2,0x1
/home/mips/toolchain-mips/build/gcc-final/gcc/dp-bit.c:844
  40bee0:	00832025 	or	a0,a0,v1
  40bee4:	00072840 	sll	a1,a3,0x1
  40bee8:	014b1025 	or	v0,t2,t3
  40beec:	008c482b 	sltu	t1,a0,t4
  40bef0:	00803021 	move	a2,a0
  40bef4:	1440ffea 	bnez	v0,40bea0 <_fpdiv_parts+0xe8>
  40bef8:	00a03821 	move	a3,a1
/home/mips/toolchain-mips/build/gcc-final/gcc/dp-bit.c:847
  40befc:	24020000 	li	v0,0
  40bf00:	240300ff 	li	v1,255
  40bf04:	01c23024 	and	a2,t6,v0
  40bf08:	14c00004 	bnez	a2,40bf1c <_fpdiv_parts+0x164>
  40bf0c:	01e33824 	and	a3,t7,v1
  40bf10:	24020080 	li	v0,128
  40bf14:	10e20005 	beq	a3,v0,40bf2c <_fpdiv_parts+0x174>
  40bf18:	00000000 	nop
/home/mips/toolchain-mips/build/gcc-final/gcc/dp-bit.c:861
  40bf1c:	ad0e0010 	sw	t6,16(t0)
  40bf20:	ad0f0014 	sw	t7,20(t0)
  40bf24:	1000ffbe 	b	40be20 <_fpdiv_parts+0x68>
  40bf28:	01001821 	move	v1,t0
/home/mips/toolchain-mips/build/gcc-final/gcc/dp-bit.c:849
  40bf2c:	24020000 	li	v0,0
  40bf30:	24030100 	li	v1,256
  40bf34:	01c21024 	and	v0,t6,v0
  40bf38:	01e31824 	and	v1,t7,v1
  40bf3c:	00431025 	or	v0,v0,v1
  40bf40:	14400004 	bnez	v0,40bf54 <_fpdiv_parts+0x19c>
  40bf44:	00000000 	nop
/home/mips/toolchain-mips/build/gcc-final/gcc/dp-bit.c:854
  40bf48:	00851025 	or	v0,a0,a1
  40bf4c:	1040fff3 	beqz	v0,40bf1c <_fpdiv_parts+0x164>
  40bf50:	00000000 	nop
/home/mips/toolchain-mips/build/gcc-final/gcc/dp-bit.c:857
  40bf54:	25ef0080 	addiu	t7,t7,128
  40bf58:	2de20080 	sltiu	v0,t7,128
  40bf5c:	1000ffef 	b	40bf1c <_fpdiv_parts+0x164>
  40bf60:	01c27021 	addu	t6,t6,v0
  40bf64:	1440ffd8 	bnez	v0,40bec8 <_fpdiv_parts+0x110>
  40bf68:	00ed102b 	sltu	v0,a3,t5
  40bf6c:	1000ffd2 	b	40beb8 <_fpdiv_parts+0x100>
  40bf70:	00cc3023 	subu	a2,a2,t4
  40bf74:	1040ffc6 	beqz	v0,40be90 <_fpdiv_parts+0xd8>
  40bf78:	00000000 	nop
/home/mips/toolchain-mips/build/gcc-final/gcc/dp-bit.c:831
  40bf7c:	2462ffff 	addiu	v0,v1,-1
/home/mips/toolchain-mips/build/gcc-final/gcc/dp-bit.c:830
  40bf80:	00063040 	sll	a2,a2,0x1
  40bf84:	00071fc2 	srl	v1,a3,0x1f
  40bf88:	00c33025 	or	a2,a2,v1
  40bf8c:	00073840 	sll	a3,a3,0x1
/home/mips/toolchain-mips/build/gcc-final/gcc/dp-bit.c:831
  40bf90:	ad020008 	sw	v0,8(t0)
  40bf94:	1000ffbe 	b	40be90 <_fpdiv_parts+0xd8>
  40bf98:	00cc482b 	sltu	t1,a2,t4
  40bf9c:	00000000 	nop

0040bfa0 <__eqdf2>:
__eqdf2():
/home/mips/toolchain-mips/build/gcc-final/gcc/dp-bit.c:996
  40bfa0:	3c1c0000 	lui	gp,0x0
  40bfa4:	279c0ba0 	addiu	gp,gp,2976
  40bfa8:	0399e021 	addu	gp,gp,t9
  40bfac:	27bdff98 	addiu	sp,sp,-104
  40bfb0:	afbc0010 	sw	gp,16(sp)
  40bfb4:	afb00058 	sw	s0,88(sp)
/home/mips/toolchain-mips/build/gcc-final/gcc/dp-bit.c:1004
  40bfb8:	27a40048 	addiu	a0,sp,72
  40bfbc:	27a50018 	addiu	a1,sp,24
/home/mips/toolchain-mips/build/gcc-final/gcc/dp-bit.c:1005
  40bfc0:	27b00030 	addiu	s0,sp,48
/home/mips/toolchain-mips/build/gcc-final/gcc/dp-bit.c:996
  40bfc4:	afbf0060 	sw	ra,96(sp)
/home/mips/toolchain-mips/build/gcc-final/gcc/dp-bit.c:1001
  40bfc8:	e7ad0048 	swc1	$f13,72(sp)
  40bfcc:	e7ac004c 	swc1	$f12,76(sp)
/home/mips/toolchain-mips/build/gcc-final/gcc/dp-bit.c:1002
  40bfd0:	e7af0050 	swc1	$f15,80(sp)
  40bfd4:	e7ae0054 	swc1	$f14,84(sp)
/home/mips/toolchain-mips/build/gcc-final/gcc/dp-bit.c:996
  40bfd8:	afbc005c 	sw	gp,92(sp)
/home/mips/toolchain-mips/build/gcc-final/gcc/dp-bit.c:1004
  40bfdc:	8f9902b8 	lw	t9,696(gp)
  40bfe0:	00000000 	nop
  40bfe4:	0320f809 	jalr	t9
  40bfe8:	00000000 	nop
  40bfec:	8fbc0010 	lw	gp,16(sp)
/home/mips/toolchain-mips/build/gcc-final/gcc/dp-bit.c:1005
  40bff0:	27a40050 	addiu	a0,sp,80
  40bff4:	02002821 	move	a1,s0
  40bff8:	8f9902b8 	lw	t9,696(gp)
  40bffc:	00000000 	nop
  40c000:	0320f809 	jalr	t9
  40c004:	00000000 	nop
  40c008:	8fbc0010 	lw	gp,16(sp)
/home/mips/toolchain-mips/build/gcc-final/gcc/dp-bit.c:152
  40c00c:	8fa20018 	lw	v0,24(sp)
  40c010:	00000000 	nop
  40c014:	2c420002 	sltiu	v0,v0,2
/home/mips/toolchain-mips/build/gcc-final/gcc/dp-bit.c:151
  40c018:	14400006 	bnez	v0,40c034 <__eqdf2+0x94>
  40c01c:	24030001 	li	v1,1
/home/mips/toolchain-mips/build/gcc-final/gcc/dp-bit.c:152
  40c020:	8fa20030 	lw	v0,48(sp)
  40c024:	27a40018 	addiu	a0,sp,24
  40c028:	2c420002 	sltiu	v0,v0,2
/home/mips/toolchain-mips/build/gcc-final/gcc/dp-bit.c:151
  40c02c:	10400006 	beqz	v0,40c048 <__eqdf2+0xa8>
  40c030:	02002821 	move	a1,s0
/home/mips/toolchain-mips/build/gcc-final/gcc/dp-bit.c:1011
  40c034:	8fbf0060 	lw	ra,96(sp)
  40c038:	8fb00058 	lw	s0,88(sp)
  40c03c:	00601021 	move	v0,v1
  40c040:	03e00008 	jr	ra
  40c044:	27bd0068 	addiu	sp,sp,104
/home/mips/toolchain-mips/build/gcc-final/gcc/dp-bit.c:1010
  40c048:	8f9901c0 	lw	t9,448(gp)
  40c04c:	00000000 	nop
  40c050:	0320f809 	jalr	t9
  40c054:	00000000 	nop
  40c058:	8fbc0010 	lw	gp,16(sp)
  40c05c:	1000fff5 	b	40c034 <__eqdf2+0x94>
  40c060:	00401821 	move	v1,v0
	...

0040c070 <__nedf2>:
__nedf2():
/home/mips/toolchain-mips/build/gcc-final/gcc/dp-bit.c:1017
  40c070:	3c1c0000 	lui	gp,0x0
  40c074:	279c0ad0 	addiu	gp,gp,2768
  40c078:	0399e021 	addu	gp,gp,t9
  40c07c:	27bdff98 	addiu	sp,sp,-104
  40c080:	afbc0010 	sw	gp,16(sp)
  40c084:	afb00058 	sw	s0,88(sp)
/home/mips/toolchain-mips/build/gcc-final/gcc/dp-bit.c:1025
  40c088:	27a40048 	addiu	a0,sp,72
  40c08c:	27a50018 	addiu	a1,sp,24
/home/mips/toolchain-mips/build/gcc-final/gcc/dp-bit.c:1026
  40c090:	27b00030 	addiu	s0,sp,48
/home/mips/toolchain-mips/build/gcc-final/gcc/dp-bit.c:1017
  40c094:	afbf0060 	sw	ra,96(sp)
/home/mips/toolchain-mips/build/gcc-final/gcc/dp-bit.c:1022
  40c098:	e7ad0048 	swc1	$f13,72(sp)
  40c09c:	e7ac004c 	swc1	$f12,76(sp)
/home/mips/toolchain-mips/build/gcc-final/gcc/dp-bit.c:1023
  40c0a0:	e7af0050 	swc1	$f15,80(sp)
  40c0a4:	e7ae0054 	swc1	$f14,84(sp)
/home/mips/toolchain-mips/build/gcc-final/gcc/dp-bit.c:1017
  40c0a8:	afbc005c 	sw	gp,92(sp)
/home/mips/toolchain-mips/build/gcc-final/gcc/dp-bit.c:1025
  40c0ac:	8f9902b8 	lw	t9,696(gp)
  40c0b0:	00000000 	nop
  40c0b4:	0320f809 	jalr	t9
  40c0b8:	00000000 	nop
  40c0bc:	8fbc0010 	lw	gp,16(sp)
/home/mips/toolchain-mips/build/gcc-final/gcc/dp-bit.c:1026
  40c0c0:	27a40050 	addiu	a0,sp,80
  40c0c4:	02002821 	move	a1,s0
  40c0c8:	8f9902b8 	lw	t9,696(gp)
  40c0cc:	00000000 	nop
  40c0d0:	0320f809 	jalr	t9
  40c0d4:	00000000 	nop
  40c0d8:	8fbc0010 	lw	gp,16(sp)
/home/mips/toolchain-mips/build/gcc-final/gcc/dp-bit.c:152
  40c0dc:	8fa20018 	lw	v0,24(sp)
  40c0e0:	00000000 	nop
  40c0e4:	2c420002 	sltiu	v0,v0,2
/home/mips/toolchain-mips/build/gcc-final/gcc/dp-bit.c:151
  40c0e8:	14400006 	bnez	v0,40c104 <__nedf2+0x94>
  40c0ec:	24030001 	li	v1,1
/home/mips/toolchain-mips/build/gcc-final/gcc/dp-bit.c:152
  40c0f0:	8fa20030 	lw	v0,48(sp)
  40c0f4:	27a40018 	addiu	a0,sp,24
  40c0f8:	2c420002 	sltiu	v0,v0,2
/home/mips/toolchain-mips/build/gcc-final/gcc/dp-bit.c:151
  40c0fc:	10400006 	beqz	v0,40c118 <__nedf2+0xa8>
  40c100:	02002821 	move	a1,s0
/home/mips/toolchain-mips/build/gcc-final/gcc/dp-bit.c:1032
  40c104:	8fbf0060 	lw	ra,96(sp)
  40c108:	8fb00058 	lw	s0,88(sp)
  40c10c:	00601021 	move	v0,v1
  40c110:	03e00008 	jr	ra
  40c114:	27bd0068 	addiu	sp,sp,104
/home/mips/toolchain-mips/build/gcc-final/gcc/dp-bit.c:1031
  40c118:	8f9901c0 	lw	t9,448(gp)
  40c11c:	00000000 	nop
  40c120:	0320f809 	jalr	t9
  40c124:	00000000 	nop
  40c128:	8fbc0010 	lw	gp,16(sp)
  40c12c:	1000fff5 	b	40c104 <__nedf2+0x94>
  40c130:	00401821 	move	v1,v0
	...

0040c140 <__gedf2>:
__gedf2():
/home/mips/toolchain-mips/build/gcc-final/gcc/dp-bit.c:1059
  40c140:	3c1c0000 	lui	gp,0x0
  40c144:	279c0a00 	addiu	gp,gp,2560
  40c148:	0399e021 	addu	gp,gp,t9
  40c14c:	27bdff98 	addiu	sp,sp,-104
  40c150:	afbc0010 	sw	gp,16(sp)
  40c154:	afb00058 	sw	s0,88(sp)
/home/mips/toolchain-mips/build/gcc-final/gcc/dp-bit.c:1067
  40c158:	27a40048 	addiu	a0,sp,72
  40c15c:	27a50018 	addiu	a1,sp,24
/home/mips/toolchain-mips/build/gcc-final/gcc/dp-bit.c:1068
  40c160:	27b00030 	addiu	s0,sp,48
/home/mips/toolchain-mips/build/gcc-final/gcc/dp-bit.c:1059
  40c164:	afbf0060 	sw	ra,96(sp)
/home/mips/toolchain-mips/build/gcc-final/gcc/dp-bit.c:1064
  40c168:	e7ad0048 	swc1	$f13,72(sp)
  40c16c:	e7ac004c 	swc1	$f12,76(sp)
/home/mips/toolchain-mips/build/gcc-final/gcc/dp-bit.c:1065
  40c170:	e7af0050 	swc1	$f15,80(sp)
  40c174:	e7ae0054 	swc1	$f14,84(sp)
/home/mips/toolchain-mips/build/gcc-final/gcc/dp-bit.c:1059
  40c178:	afbc005c 	sw	gp,92(sp)
/home/mips/toolchain-mips/build/gcc-final/gcc/dp-bit.c:1067
  40c17c:	8f9902b8 	lw	t9,696(gp)
  40c180:	00000000 	nop
  40c184:	0320f809 	jalr	t9
  40c188:	00000000 	nop
  40c18c:	8fbc0010 	lw	gp,16(sp)
/home/mips/toolchain-mips/build/gcc-final/gcc/dp-bit.c:1068
  40c190:	27a40050 	addiu	a0,sp,80
  40c194:	02002821 	move	a1,s0
  40c198:	8f9902b8 	lw	t9,696(gp)
  40c19c:	00000000 	nop
  40c1a0:	0320f809 	jalr	t9
  40c1a4:	00000000 	nop
  40c1a8:	8fbc0010 	lw	gp,16(sp)
/home/mips/toolchain-mips/build/gcc-final/gcc/dp-bit.c:152
  40c1ac:	8fa20018 	lw	v0,24(sp)
  40c1b0:	00000000 	nop
  40c1b4:	2c420002 	sltiu	v0,v0,2
/home/mips/toolchain-mips/build/gcc-final/gcc/dp-bit.c:151
  40c1b8:	14400006 	bnez	v0,40c1d4 <__gedf2+0x94>
  40c1bc:	2403ffff 	li	v1,-1
/home/mips/toolchain-mips/build/gcc-final/gcc/dp-bit.c:152
  40c1c0:	8fa20030 	lw	v0,48(sp)
  40c1c4:	27a40018 	addiu	a0,sp,24
  40c1c8:	2c420002 	sltiu	v0,v0,2
/home/mips/toolchain-mips/build/gcc-final/gcc/dp-bit.c:151
  40c1cc:	10400006 	beqz	v0,40c1e8 <__gedf2+0xa8>
  40c1d0:	02002821 	move	a1,s0
/home/mips/toolchain-mips/build/gcc-final/gcc/dp-bit.c:1073
  40c1d4:	8fbf0060 	lw	ra,96(sp)
  40c1d8:	8fb00058 	lw	s0,88(sp)
  40c1dc:	00601021 	move	v0,v1
  40c1e0:	03e00008 	jr	ra
  40c1e4:	27bd0068 	addiu	sp,sp,104
/home/mips/toolchain-mips/build/gcc-final/gcc/dp-bit.c:1072
  40c1e8:	8f9901c0 	lw	t9,448(gp)
  40c1ec:	00000000 	nop
  40c1f0:	0320f809 	jalr	t9
  40c1f4:	00000000 	nop
  40c1f8:	8fbc0010 	lw	gp,16(sp)
  40c1fc:	1000fff5 	b	40c1d4 <__gedf2+0x94>
  40c200:	00401821 	move	v1,v0
	...

0040c210 <__ltdf2>:
__ltdf2():
/home/mips/toolchain-mips/build/gcc-final/gcc/dp-bit.c:1079
  40c210:	3c1c0000 	lui	gp,0x0
  40c214:	279c0930 	addiu	gp,gp,2352
  40c218:	0399e021 	addu	gp,gp,t9
  40c21c:	27bdff98 	addiu	sp,sp,-104
  40c220:	afbc0010 	sw	gp,16(sp)
  40c224:	afb00058 	sw	s0,88(sp)
/home/mips/toolchain-mips/build/gcc-final/gcc/dp-bit.c:1087
  40c228:	27a40048 	addiu	a0,sp,72
  40c22c:	27a50018 	addiu	a1,sp,24
/home/mips/toolchain-mips/build/gcc-final/gcc/dp-bit.c:1088
  40c230:	27b00030 	addiu	s0,sp,48
/home/mips/toolchain-mips/build/gcc-final/gcc/dp-bit.c:1079
  40c234:	afbf0060 	sw	ra,96(sp)
/home/mips/toolchain-mips/build/gcc-final/gcc/dp-bit.c:1084
  40c238:	e7ad0048 	swc1	$f13,72(sp)
  40c23c:	e7ac004c 	swc1	$f12,76(sp)
/home/mips/toolchain-mips/build/gcc-final/gcc/dp-bit.c:1085
  40c240:	e7af0050 	swc1	$f15,80(sp)
  40c244:	e7ae0054 	swc1	$f14,84(sp)
/home/mips/toolchain-mips/build/gcc-final/gcc/dp-bit.c:1079
  40c248:	afbc005c 	sw	gp,92(sp)
/home/mips/toolchain-mips/build/gcc-final/gcc/dp-bit.c:1087
  40c24c:	8f9902b8 	lw	t9,696(gp)
  40c250:	00000000 	nop
  40c254:	0320f809 	jalr	t9
  40c258:	00000000 	nop
  40c25c:	8fbc0010 	lw	gp,16(sp)
/home/mips/toolchain-mips/build/gcc-final/gcc/dp-bit.c:1088
  40c260:	27a40050 	addiu	a0,sp,80
  40c264:	02002821 	move	a1,s0
  40c268:	8f9902b8 	lw	t9,696(gp)
  40c26c:	00000000 	nop
  40c270:	0320f809 	jalr	t9
  40c274:	00000000 	nop
  40c278:	8fbc0010 	lw	gp,16(sp)
/home/mips/toolchain-mips/build/gcc-final/gcc/dp-bit.c:152
  40c27c:	8fa20018 	lw	v0,24(sp)
  40c280:	00000000 	nop
  40c284:	2c420002 	sltiu	v0,v0,2
/home/mips/toolchain-mips/build/gcc-final/gcc/dp-bit.c:151
  40c288:	14400006 	bnez	v0,40c2a4 <__ltdf2+0x94>
  40c28c:	24030001 	li	v1,1
/home/mips/toolchain-mips/build/gcc-final/gcc/dp-bit.c:152
  40c290:	8fa20030 	lw	v0,48(sp)
  40c294:	27a40018 	addiu	a0,sp,24
  40c298:	2c420002 	sltiu	v0,v0,2
/home/mips/toolchain-mips/build/gcc-final/gcc/dp-bit.c:151
  40c29c:	10400006 	beqz	v0,40c2b8 <__ltdf2+0xa8>
  40c2a0:	02002821 	move	a1,s0
/home/mips/toolchain-mips/build/gcc-final/gcc/dp-bit.c:1094
  40c2a4:	8fbf0060 	lw	ra,96(sp)
  40c2a8:	8fb00058 	lw	s0,88(sp)
  40c2ac:	00601021 	move	v0,v1
  40c2b0:	03e00008 	jr	ra
  40c2b4:	27bd0068 	addiu	sp,sp,104
/home/mips/toolchain-mips/build/gcc-final/gcc/dp-bit.c:1093
  40c2b8:	8f9901c0 	lw	t9,448(gp)
  40c2bc:	00000000 	nop
  40c2c0:	0320f809 	jalr	t9
  40c2c4:	00000000 	nop
  40c2c8:	8fbc0010 	lw	gp,16(sp)
  40c2cc:	1000fff5 	b	40c2a4 <__ltdf2+0x94>
  40c2d0:	00401821 	move	v1,v0
	...

0040c2e0 <__floatsidf>:
__floatsidf():
/home/mips/toolchain-mips/build/gcc-final/gcc/dp-bit.c:1141
  40c2e0:	3c1c0000 	lui	gp,0x0
  40c2e4:	279c0860 	addiu	gp,gp,2144
  40c2e8:	0399e021 	addu	gp,gp,t9
  40c2ec:	27bdffc8 	addiu	sp,sp,-56
  40c2f0:	afbc0010 	sw	gp,16(sp)
/home/mips/toolchain-mips/build/gcc-final/gcc/dp-bit.c:1145
  40c2f4:	00041fc2 	srl	v1,a0,0x1f
/home/mips/toolchain-mips/build/gcc-final/gcc/dp-bit.c:1144
  40c2f8:	24020003 	li	v0,3
/home/mips/toolchain-mips/build/gcc-final/gcc/dp-bit.c:1141
  40c2fc:	afbf0034 	sw	ra,52(sp)
  40c300:	afbc0030 	sw	gp,48(sp)
/home/mips/toolchain-mips/build/gcc-final/gcc/dp-bit.c:1144
  40c304:	afa20018 	sw	v0,24(sp)
/home/mips/toolchain-mips/build/gcc-final/gcc/dp-bit.c:1146
  40c308:	1480000d 	bnez	a0,40c340 <__floatsidf+0x60>
  40c30c:	afa3001c 	sw	v1,28(sp)
/home/mips/toolchain-mips/build/gcc-final/gcc/dp-bit.c:1148
  40c310:	24020002 	li	v0,2
  40c314:	afa20018 	sw	v0,24(sp)
/home/mips/toolchain-mips/build/gcc-final/gcc/dp-bit.c:1172
  40c318:	27a40018 	addiu	a0,sp,24
  40c31c:	8f990028 	lw	t9,40(gp)
  40c320:	00000000 	nop
  40c324:	0320f809 	jalr	t9
  40c328:	00000000 	nop
  40c32c:	8fbc0010 	lw	gp,16(sp)
/home/mips/toolchain-mips/build/gcc-final/gcc/dp-bit.c:1173
  40c330:	8fbf0034 	lw	ra,52(sp)
  40c334:	00000000 	nop
  40c338:	03e00008 	jr	ra
  40c33c:	27bd0038 	addiu	sp,sp,56
/home/mips/toolchain-mips/build/gcc-final/gcc/dp-bit.c:1152
  40c340:	2402003c 	li	v0,60
/home/mips/toolchain-mips/build/gcc-final/gcc/dp-bit.c:1153
  40c344:	10600023 	beqz	v1,40c3d4 <__floatsidf+0xf4>
  40c348:	afa20020 	sw	v0,32(sp)
/home/mips/toolchain-mips/build/gcc-final/gcc/dp-bit.c:1157
  40c34c:	3c028000 	lui	v0,0x8000
  40c350:	3c01c1e0 	lui	at,0xc1e0
  40c354:	44810800 	mtc1	at,$f1
  40c358:	44800000 	mtc1	zero,$f0
  40c35c:	1082fff4 	beq	a0,v0,40c330 <__floatsidf+0x50>
  40c360:	00041023 	negu	v0,a0
/home/mips/toolchain-mips/build/gcc-final/gcc/dp-bit.c:1161
  40c364:	00401821 	move	v1,v0
  40c368:	000217c3 	sra	v0,v0,0x1f
  40c36c:	afa20028 	sw	v0,40(sp)
  40c370:	afa3002c 	sw	v1,44(sp)
/home/mips/toolchain-mips/build/gcc-final/gcc/dp-bit.c:1166
  40c374:	8fa30028 	lw	v1,40(sp)
  40c378:	3c020fff 	lui	v0,0xfff
  40c37c:	3442ffff 	ori	v0,v0,0xffff
  40c380:	0043102b 	sltu	v0,v0,v1
  40c384:	1440ffe4 	bnez	v0,40c318 <__floatsidf+0x38>
  40c388:	3c060fff 	lui	a2,0xfff
  40c38c:	8fa50020 	lw	a1,32(sp)
  40c390:	34c6ffff 	ori	a2,a2,0xffff
/home/mips/toolchain-mips/build/gcc-final/gcc/dp-bit.c:1168
  40c394:	8fa20028 	lw	v0,40(sp)
  40c398:	8fa3002c 	lw	v1,44(sp)
  40c39c:	00000000 	nop
  40c3a0:	000327c2 	srl	a0,v1,0x1f
  40c3a4:	00021040 	sll	v0,v0,0x1
  40c3a8:	00441025 	or	v0,v0,a0
  40c3ac:	00031840 	sll	v1,v1,0x1
  40c3b0:	afa20028 	sw	v0,40(sp)
  40c3b4:	afa3002c 	sw	v1,44(sp)
/home/mips/toolchain-mips/build/gcc-final/gcc/dp-bit.c:1169
  40c3b8:	8fa40028 	lw	a0,40(sp)
  40c3bc:	00000000 	nop
  40c3c0:	00c4202b 	sltu	a0,a2,a0
  40c3c4:	1080fff3 	beqz	a0,40c394 <__floatsidf+0xb4>
  40c3c8:	24a5ffff 	addiu	a1,a1,-1
  40c3cc:	1000ffd2 	b	40c318 <__floatsidf+0x38>
  40c3d0:	afa50020 	sw	a1,32(sp)
/home/mips/toolchain-mips/build/gcc-final/gcc/dp-bit.c:1164
  40c3d4:	00801821 	move	v1,a0
  40c3d8:	1000ffe4 	b	40c36c <__floatsidf+0x8c>
  40c3dc:	000417c3 	sra	v0,a0,0x1f

0040c3e0 <__fixdfsi>:
__fixdfsi():
/home/mips/toolchain-mips/build/gcc-final/gcc/dp-bit.c:1211
  40c3e0:	3c1c0000 	lui	gp,0x0
  40c3e4:	279c0760 	addiu	gp,gp,1888
  40c3e8:	0399e021 	addu	gp,gp,t9
  40c3ec:	27bdffc0 	addiu	sp,sp,-64
  40c3f0:	afbc0010 	sw	gp,16(sp)
/home/mips/toolchain-mips/build/gcc-final/gcc/dp-bit.c:1217
  40c3f4:	27a40030 	addiu	a0,sp,48
  40c3f8:	27a50018 	addiu	a1,sp,24
/home/mips/toolchain-mips/build/gcc-final/gcc/dp-bit.c:1211
  40c3fc:	afbf003c 	sw	ra,60(sp)
  40c400:	afbc0038 	sw	gp,56(sp)
/home/mips/toolchain-mips/build/gcc-final/gcc/dp-bit.c:1216
  40c404:	e7ad0030 	swc1	$f13,48(sp)
  40c408:	e7ac0034 	swc1	$f12,52(sp)
/home/mips/toolchain-mips/build/gcc-final/gcc/dp-bit.c:1217
  40c40c:	8f9902b8 	lw	t9,696(gp)
  40c410:	00000000 	nop
  40c414:	0320f809 	jalr	t9
  40c418:	00000000 	nop
  40c41c:	8fbc0010 	lw	gp,16(sp)
/home/mips/toolchain-mips/build/gcc-final/gcc/dp-bit.c:168
  40c420:	8fa60018 	lw	a2,24(sp)
  40c424:	00000000 	nop
  40c428:	38c20002 	xori	v0,a2,0x2
/home/mips/toolchain-mips/build/gcc-final/gcc/dp-bit.c:167
  40c42c:	10400010 	beqz	v0,40c470 <__fixdfsi+0x90>
  40c430:	00001821 	move	v1,zero
/home/mips/toolchain-mips/build/gcc-final/gcc/dp-bit.c:152
  40c434:	2cc20002 	sltiu	v0,a2,2
/home/mips/toolchain-mips/build/gcc-final/gcc/dp-bit.c:151
  40c438:	1440000d 	bnez	v0,40c470 <__fixdfsi+0x90>
  40c43c:	38c20004 	xori	v0,a2,0x4
/home/mips/toolchain-mips/build/gcc-final/gcc/dp-bit.c:158
  40c440:	10400007 	beqz	v0,40c460 <__fixdfsi+0x80>
  40c444:	00000000 	nop
/home/mips/toolchain-mips/build/gcc-final/gcc/dp-bit.c:1227
  40c448:	8fa40020 	lw	a0,32(sp)
  40c44c:	00000000 	nop
  40c450:	04800007 	bltz	a0,40c470 <__fixdfsi+0x90>
  40c454:	2882001f 	slti	v0,a0,31
/home/mips/toolchain-mips/build/gcc-final/gcc/dp-bit.c:1229
  40c458:	14400009 	bnez	v0,40c480 <__fixdfsi+0xa0>
  40c45c:	2406003c 	li	a2,60
/home/mips/toolchain-mips/build/gcc-final/gcc/dp-bit.c:1230
  40c460:	8fa2001c 	lw	v0,28(sp)
  40c464:	3c038000 	lui	v1,0x8000
  40c468:	2c420001 	sltiu	v0,v0,1
  40c46c:	00621823 	subu	v1,v1,v0
/home/mips/toolchain-mips/build/gcc-final/gcc/dp-bit.c:1233
  40c470:	8fbf003c 	lw	ra,60(sp)
  40c474:	00601021 	move	v0,v1
  40c478:	03e00008 	jr	ra
  40c47c:	27bd0040 	addiu	sp,sp,64
/home/mips/toolchain-mips/build/gcc-final/gcc/dp-bit.c:1231
  40c480:	8fa20028 	lw	v0,40(sp)
  40c484:	8fa3002c 	lw	v1,44(sp)
  40c488:	00c43023 	subu	a2,a2,a0
  40c48c:	00063e80 	sll	a3,a2,0x1a
  40c490:	04e10004 	bgez	a3,40c4a4 <__fixdfsi+0xc4>
  40c494:	00000000 	nop
  40c498:	00c22806 	srlv	a1,v0,a2
  40c49c:	10000007 	b	40c4bc <__fixdfsi+0xdc>
  40c4a0:	00002021 	move	a0,zero
  40c4a4:	10e00004 	beqz	a3,40c4b8 <__fixdfsi+0xd8>
  40c4a8:	00c32806 	srlv	a1,v1,a2
  40c4ac:	00063823 	negu	a3,a2
  40c4b0:	00e23804 	sllv	a3,v0,a3
  40c4b4:	00a72825 	or	a1,a1,a3
  40c4b8:	00c22006 	srlv	a0,v0,a2
/home/mips/toolchain-mips/build/gcc-final/gcc/dp-bit.c:1232
  40c4bc:	8fa2001c 	lw	v0,28(sp)
  40c4c0:	00000000 	nop
  40c4c4:	1040ffea 	beqz	v0,40c470 <__fixdfsi+0x90>
  40c4c8:	00a01821 	move	v1,a1
  40c4cc:	1000ffe8 	b	40c470 <__fixdfsi+0x90>
  40c4d0:	00051823 	negu	v1,a1
	...

0040c4e0 <__negdf2>:
__negdf2():
/home/mips/toolchain-mips/build/gcc-final/gcc/dp-bit.c:1279
  40c4e0:	3c1c0000 	lui	gp,0x0
  40c4e4:	279c0660 	addiu	gp,gp,1632
  40c4e8:	0399e021 	addu	gp,gp,t9
  40c4ec:	27bdffc0 	addiu	sp,sp,-64
  40c4f0:	afbc0010 	sw	gp,16(sp)
/home/mips/toolchain-mips/build/gcc-final/gcc/dp-bit.c:1284
  40c4f4:	27a40030 	addiu	a0,sp,48
  40c4f8:	27a50018 	addiu	a1,sp,24
/home/mips/toolchain-mips/build/gcc-final/gcc/dp-bit.c:1279
  40c4fc:	afbf003c 	sw	ra,60(sp)
/home/mips/toolchain-mips/build/gcc-final/gcc/dp-bit.c:1283
  40c500:	e7ad0030 	swc1	$f13,48(sp)
  40c504:	e7ac0034 	swc1	$f12,52(sp)
/home/mips/toolchain-mips/build/gcc-final/gcc/dp-bit.c:1279
  40c508:	afbc0038 	sw	gp,56(sp)
/home/mips/toolchain-mips/build/gcc-final/gcc/dp-bit.c:1284
  40c50c:	8f9902b8 	lw	t9,696(gp)
  40c510:	00000000 	nop
  40c514:	0320f809 	jalr	t9
  40c518:	00000000 	nop
  40c51c:	8fbc0010 	lw	gp,16(sp)
/home/mips/toolchain-mips/build/gcc-final/gcc/dp-bit.c:175
  40c520:	8fa2001c 	lw	v0,28(sp)
/home/mips/toolchain-mips/build/gcc-final/gcc/dp-bit.c:1287
  40c524:	27a40018 	addiu	a0,sp,24
/home/mips/toolchain-mips/build/gcc-final/gcc/dp-bit.c:175
  40c528:	2c420001 	sltiu	v0,v0,1
  40c52c:	afa2001c 	sw	v0,28(sp)
/home/mips/toolchain-mips/build/gcc-final/gcc/dp-bit.c:1287
  40c530:	8f990028 	lw	t9,40(gp)
  40c534:	00000000 	nop
  40c538:	0320f809 	jalr	t9
  40c53c:	00000000 	nop
  40c540:	8fbc0010 	lw	gp,16(sp)
  40c544:	8fbf003c 	lw	ra,60(sp)
  40c548:	00000000 	nop
  40c54c:	03e00008 	jr	ra
  40c550:	27bd0040 	addiu	sp,sp,64
	...

0040c560 <__pack_d>:
__pack_d():
/home/mips/toolchain-mips/build/gcc-final/gcc/dp-bit.c:183
  40c560:	3c1c0000 	lui	gp,0x0
  40c564:	279c05e0 	addiu	gp,gp,1504
  40c568:	0399e021 	addu	gp,gp,t9
/home/mips/toolchain-mips/build/gcc-final/gcc/dp-bit.c:152
  40c56c:	8c830000 	lw	v1,0(a0)
/home/mips/toolchain-mips/build/gcc-final/gcc/dp-bit.c:185
  40c570:	8c8a0010 	lw	t2,16(a0)
  40c574:	8c8b0014 	lw	t3,20(a0)
/home/mips/toolchain-mips/build/gcc-final/gcc/dp-bit.c:152
  40c578:	2c620002 	sltiu	v0,v1,2
/home/mips/toolchain-mips/build/gcc-final/gcc/dp-bit.c:186
  40c57c:	8c880004 	lw	t0,4(a0)
/home/mips/toolchain-mips/build/gcc-final/gcc/dp-bit.c:151
  40c580:	10400019 	beqz	v0,40c5e8 <__pack_d+0x88>
  40c584:	00004821 	move	t1,zero
/home/mips/toolchain-mips/build/gcc-final/gcc/dp-bit.c:194
  40c588:	3c020008 	lui	v0,0x8
  40c58c:	24030000 	li	v1,0
  40c590:	01425025 	or	t2,t2,v0
  40c594:	01635825 	or	t3,t3,v1
/home/mips/toolchain-mips/build/gcc-final/gcc/dp-bit.c:191
  40c598:	240907ff 	li	t1,2047
/home/mips/toolchain-mips/build/gcc-final/gcc/dp-bit.c:290
  40c59c:	312207ff 	andi	v0,t1,0x7ff
/home/mips/toolchain-mips/build/gcc-final/gcc/dp-bit.c:289
  40c5a0:	3c06000f 	lui	a2,0xf
  40c5a4:	34c6ffff 	ori	a2,a2,0xffff
  40c5a8:	2407ffff 	li	a3,-1
/home/mips/toolchain-mips/build/gcc-final/gcc/dp-bit.c:290
  40c5ac:	00022500 	sll	a0,v0,0x14
/home/mips/toolchain-mips/build/gcc-final/gcc/dp-bit.c:291
  40c5b0:	31080001 	andi	t0,t0,0x1
/home/mips/toolchain-mips/build/gcc-final/gcc/dp-bit.c:289
  40c5b4:	01463024 	and	a2,t2,a2
  40c5b8:	01673824 	and	a3,t3,a3
/home/mips/toolchain-mips/build/gcc-final/gcc/dp-bit.c:290
  40c5bc:	00002821 	move	a1,zero
  40c5c0:	00c43025 	or	a2,a2,a0
  40c5c4:	00e53825 	or	a3,a3,a1
/home/mips/toolchain-mips/build/gcc-final/gcc/dp-bit.c:291
  40c5c8:	000817c0 	sll	v0,t0,0x1f
  40c5cc:	00001821 	move	v1,zero
/home/mips/toolchain-mips/build/gcc-final/gcc/dp-bit.c:302
  40c5d0:	00c22025 	or	a0,a2,v0
  40c5d4:	00e32825 	or	a1,a3,v1
/home/mips/toolchain-mips/build/gcc-final/gcc/dp-bit.c:303
  40c5d8:	44850000 	mtc1	a1,$f0
  40c5dc:	44840800 	mtc1	a0,$f1
  40c5e0:	03e00008 	jr	ra
  40c5e4:	00000000 	nop
/home/mips/toolchain-mips/build/gcc-final/gcc/dp-bit.c:159
  40c5e8:	38620004 	xori	v0,v1,0x4
/home/mips/toolchain-mips/build/gcc-final/gcc/dp-bit.c:158
  40c5ec:	1040005d 	beqz	v0,40c764 <__pack_d+0x204>
  40c5f0:	00000000 	nop
/home/mips/toolchain-mips/build/gcc-final/gcc/dp-bit.c:168
  40c5f4:	38620002 	xori	v0,v1,0x2
/home/mips/toolchain-mips/build/gcc-final/gcc/dp-bit.c:167
  40c5f8:	1040005b 	beqz	v0,40c768 <__pack_d+0x208>
  40c5fc:	00000000 	nop
/home/mips/toolchain-mips/build/gcc-final/gcc/dp-bit.c:207
  40c600:	014b1025 	or	v0,t2,t3
  40c604:	1040ffe6 	beqz	v0,40c5a0 <__pack_d+0x40>
  40c608:	312207ff 	andi	v0,t1,0x7ff
/home/mips/toolchain-mips/build/gcc-final/gcc/dp-bit.c:213
  40c60c:	8c840008 	lw	a0,8(a0)
  40c610:	00000000 	nop
  40c614:	2882fc02 	slti	v0,a0,-1022
  40c618:	10400050 	beqz	v0,40c75c <__pack_d+0x1fc>
  40c61c:	28820400 	slti	v0,a0,1024
/home/mips/toolchain-mips/build/gcc-final/gcc/dp-bit.c:219
  40c620:	2402fc02 	li	v0,-1022
  40c624:	00446023 	subu	t4,v0,a0
/home/mips/toolchain-mips/build/gcc-final/gcc/dp-bit.c:223
  40c628:	29830039 	slti	v1,t4,57
  40c62c:	14600023 	bnez	v1,40c6bc <__pack_d+0x15c>
  40c630:	00000000 	nop
/home/mips/toolchain-mips/build/gcc-final/gcc/dp-bit.c:226
  40c634:	00005021 	move	t2,zero
  40c638:	00005821 	move	t3,zero
/home/mips/toolchain-mips/build/gcc-final/gcc/dp-bit.c:233
  40c63c:	24020000 	li	v0,0
  40c640:	240300ff 	li	v1,255
  40c644:	01422024 	and	a0,t2,v0
  40c648:	14800004 	bnez	a0,40c65c <__pack_d+0xfc>
  40c64c:	01632824 	and	a1,t3,v1
  40c650:	24020080 	li	v0,128
  40c654:	10a2000f 	beq	a1,v0,40c694 <__pack_d+0x134>
  40c658:	00000000 	nop
/home/mips/toolchain-mips/build/gcc-final/gcc/dp-bit.c:241
  40c65c:	256b007f 	addiu	t3,t3,127
  40c660:	2d62007f 	sltiu	v0,t3,127
  40c664:	01425021 	addu	t2,t2,v0
/home/mips/toolchain-mips/build/gcc-final/gcc/dp-bit.c:245
  40c668:	3c020fff 	lui	v0,0xfff
  40c66c:	3442ffff 	ori	v0,v0,0xffff
  40c670:	004a102b 	sltu	v0,v0,t2
  40c674:	10400002 	beqz	v0,40c680 <__pack_d+0x120>
  40c678:	00000000 	nop
/home/mips/toolchain-mips/build/gcc-final/gcc/dp-bit.c:247
  40c67c:	24090001 	li	t1,1
/home/mips/toolchain-mips/build/gcc-final/gcc/dp-bit.c:277
  40c680:	000a1600 	sll	v0,t2,0x18
  40c684:	000b5a02 	srl	t3,t3,0x8
  40c688:	01625825 	or	t3,t3,v0
  40c68c:	1000ffc3 	b	40c59c <__pack_d+0x3c>
  40c690:	000a5202 	srl	t2,t2,0x8
/home/mips/toolchain-mips/build/gcc-final/gcc/dp-bit.c:235
  40c694:	24020000 	li	v0,0
  40c698:	24030100 	li	v1,256
  40c69c:	01421024 	and	v0,t2,v0
  40c6a0:	01631824 	and	v1,t3,v1
  40c6a4:	00431025 	or	v0,v0,v1
  40c6a8:	1040ffef 	beqz	v0,40c668 <__pack_d+0x108>
  40c6ac:	00000000 	nop
/home/mips/toolchain-mips/build/gcc-final/gcc/dp-bit.c:236
  40c6b0:	256b0080 	addiu	t3,t3,128
  40c6b4:	1000ffeb 	b	40c664 <__pack_d+0x104>
  40c6b8:	2d620080 	sltiu	v0,t3,128
/home/mips/toolchain-mips/build/gcc-final/gcc/dp-bit.c:230
  40c6bc:	24040000 	li	a0,0
  40c6c0:	24050001 	li	a1,1
  40c6c4:	000c3680 	sll	a2,t4,0x1a
  40c6c8:	04c10004 	bgez	a2,40c6dc <__pack_d+0x17c>
  40c6cc:	00000000 	nop
  40c6d0:	01851004 	sllv	v0,a1,t4
  40c6d4:	10000007 	b	40c6f4 <__pack_d+0x194>
  40c6d8:	00001821 	move	v1,zero
  40c6dc:	10c00004 	beqz	a2,40c6f0 <__pack_d+0x190>
  40c6e0:	01841004 	sllv	v0,a0,t4
  40c6e4:	000c3023 	negu	a2,t4
  40c6e8:	00c53006 	srlv	a2,a1,a2
  40c6ec:	00461025 	or	v0,v0,a2
  40c6f0:	01851804 	sllv	v1,a1,t4
  40c6f4:	2463ffff 	addiu	v1,v1,-1
  40c6f8:	2c67ffff 	sltiu	a3,v1,-1
  40c6fc:	2442ffff 	addiu	v0,v0,-1
  40c700:	00471021 	addu	v0,v0,a3
  40c704:	01421024 	and	v0,t2,v0
  40c708:	01631824 	and	v1,t3,v1
  40c70c:	00431025 	or	v0,v0,v1
  40c710:	10400002 	beqz	v0,40c71c <__pack_d+0x1bc>
  40c714:	00003821 	move	a3,zero
  40c718:	24070001 	li	a3,1
/home/mips/toolchain-mips/build/gcc-final/gcc/dp-bit.c:231
  40c71c:	000c3680 	sll	a2,t4,0x1a
  40c720:	04c10004 	bgez	a2,40c734 <__pack_d+0x1d4>
  40c724:	00000000 	nop
  40c728:	018a2806 	srlv	a1,t2,t4
  40c72c:	10000007 	b	40c74c <__pack_d+0x1ec>
  40c730:	00002021 	move	a0,zero
  40c734:	10c00004 	beqz	a2,40c748 <__pack_d+0x1e8>
  40c738:	018b2806 	srlv	a1,t3,t4
  40c73c:	000c3023 	negu	a2,t4
  40c740:	00ca3004 	sllv	a2,t2,a2
  40c744:	00a62825 	or	a1,a1,a2
  40c748:	018a2006 	srlv	a0,t2,t4
  40c74c:	00001021 	move	v0,zero
  40c750:	00825025 	or	t2,a0,v0
  40c754:	1000ffb9 	b	40c63c <__pack_d+0xdc>
  40c758:	00a75825 	or	t3,a1,a3
/home/mips/toolchain-mips/build/gcc-final/gcc/dp-bit.c:251
  40c75c:	14400006 	bnez	v0,40c778 <__pack_d+0x218>
  40c760:	00000000 	nop
/home/mips/toolchain-mips/build/gcc-final/gcc/dp-bit.c:253
  40c764:	240907ff 	li	t1,2047
/home/mips/toolchain-mips/build/gcc-final/gcc/dp-bit.c:254
  40c768:	00005021 	move	t2,zero
  40c76c:	00005821 	move	t3,zero
  40c770:	1000ff8b 	b	40c5a0 <__pack_d+0x40>
  40c774:	312207ff 	andi	v0,t1,0x7ff
/home/mips/toolchain-mips/build/gcc-final/gcc/dp-bit.c:262
  40c778:	24020000 	li	v0,0
  40c77c:	240300ff 	li	v1,255
  40c780:	01423024 	and	a2,t2,v0
  40c784:	01633824 	and	a3,t3,v1
  40c788:	14c00004 	bnez	a2,40c79c <__pack_d+0x23c>
  40c78c:	248903ff 	addiu	t1,a0,1023
  40c790:	24020080 	li	v0,128
  40c794:	10e2000f 	beq	a3,v0,40c7d4 <__pack_d+0x274>
  40c798:	00000000 	nop
/home/mips/toolchain-mips/build/gcc-final/gcc/dp-bit.c:270
  40c79c:	256b007f 	addiu	t3,t3,127
  40c7a0:	2d62007f 	sltiu	v0,t3,127
  40c7a4:	01425021 	addu	t2,t2,v0
/home/mips/toolchain-mips/build/gcc-final/gcc/dp-bit.c:272
  40c7a8:	3c021fff 	lui	v0,0x1fff
  40c7ac:	3442ffff 	ori	v0,v0,0xffff
  40c7b0:	004a102b 	sltu	v0,v0,t2
  40c7b4:	1040ffb2 	beqz	v0,40c680 <__pack_d+0x120>
  40c7b8:	00000000 	nop
/home/mips/toolchain-mips/build/gcc-final/gcc/dp-bit.c:274
  40c7bc:	000a17c0 	sll	v0,t2,0x1f
  40c7c0:	000b5842 	srl	t3,t3,0x1
  40c7c4:	01625825 	or	t3,t3,v0
  40c7c8:	000a5042 	srl	t2,t2,0x1
/home/mips/toolchain-mips/build/gcc-final/gcc/dp-bit.c:275
  40c7cc:	1000ffac 	b	40c680 <__pack_d+0x120>
  40c7d0:	25290001 	addiu	t1,t1,1
/home/mips/toolchain-mips/build/gcc-final/gcc/dp-bit.c:264
  40c7d4:	24020000 	li	v0,0
  40c7d8:	24030100 	li	v1,256
  40c7dc:	01421024 	and	v0,t2,v0
  40c7e0:	01631824 	and	v1,t3,v1
  40c7e4:	00431025 	or	v0,v0,v1
  40c7e8:	1040ffef 	beqz	v0,40c7a8 <__pack_d+0x248>
  40c7ec:	00000000 	nop
/home/mips/toolchain-mips/build/gcc-final/gcc/dp-bit.c:265
  40c7f0:	256b0080 	addiu	t3,t3,128
  40c7f4:	1000ffeb 	b	40c7a4 <__pack_d+0x244>
  40c7f8:	2d620080 	sltiu	v0,t3,128
  40c7fc:	00000000 	nop

0040c800 <__unpack_d>:
__unpack_d():
/home/mips/toolchain-mips/build/gcc-final/gcc/dp-bit.c:309
  40c800:	3c1c0000 	lui	gp,0x0
  40c804:	279c0340 	addiu	gp,gp,832
  40c808:	0399e021 	addu	gp,gp,t9
/home/mips/toolchain-mips/build/gcc-final/gcc/dp-bit.c:330
  40c80c:	8c860000 	lw	a2,0(a0)
  40c810:	8c870004 	lw	a3,4(a0)
/home/mips/toolchain-mips/build/gcc-final/gcc/dp-bit.c:309
  40c814:	00a05821 	move	t3,a1
/home/mips/toolchain-mips/build/gcc-final/gcc/dp-bit.c:332
  40c818:	00061fc2 	srl	v1,a2,0x1f
/home/mips/toolchain-mips/build/gcc-final/gcc/dp-bit.c:331
  40c81c:	00062d02 	srl	a1,a2,0x14
/home/mips/toolchain-mips/build/gcc-final/gcc/dp-bit.c:332
  40c820:	30680001 	andi	t0,v1,0x1
/home/mips/toolchain-mips/build/gcc-final/gcc/dp-bit.c:331
  40c824:	30aa07ff 	andi	t2,a1,0x7ff
/home/mips/toolchain-mips/build/gcc-final/gcc/dp-bit.c:330
  40c828:	3c02000f 	lui	v0,0xf
  40c82c:	3442ffff 	ori	v0,v0,0xffff
  40c830:	2403ffff 	li	v1,-1
/home/mips/toolchain-mips/build/gcc-final/gcc/dp-bit.c:335
  40c834:	ad680004 	sw	t0,4(t3)
/home/mips/toolchain-mips/build/gcc-final/gcc/dp-bit.c:330
  40c838:	00e34824 	and	t1,a3,v1
/home/mips/toolchain-mips/build/gcc-final/gcc/dp-bit.c:336
  40c83c:	15400020 	bnez	t2,40c8c0 <__unpack_d+0xc0>
  40c840:	00c24024 	and	t0,a2,v0
/home/mips/toolchain-mips/build/gcc-final/gcc/dp-bit.c:339
  40c844:	01091025 	or	v0,t0,t1
  40c848:	14400004 	bnez	v0,40c85c <__unpack_d+0x5c>
  40c84c:	00091602 	srl	v0,t1,0x18
/home/mips/toolchain-mips/build/gcc-final/gcc/dp-bit.c:346
  40c850:	24020002 	li	v0,2
/home/mips/toolchain-mips/build/gcc-final/gcc/dp-bit.c:397
  40c854:	03e00008 	jr	ra
  40c858:	ad620000 	sw	v0,0(t3)
/home/mips/toolchain-mips/build/gcc-final/gcc/dp-bit.c:358
  40c85c:	3c040fff 	lui	a0,0xfff
/home/mips/toolchain-mips/build/gcc-final/gcc/dp-bit.c:354
  40c860:	00084200 	sll	t0,t0,0x8
  40c864:	01024025 	or	t0,t0,v0
/home/mips/toolchain-mips/build/gcc-final/gcc/dp-bit.c:358
  40c868:	3484ffff 	ori	a0,a0,0xffff
/home/mips/toolchain-mips/build/gcc-final/gcc/dp-bit.c:353
  40c86c:	2402fc02 	li	v0,-1022
/home/mips/toolchain-mips/build/gcc-final/gcc/dp-bit.c:356
  40c870:	24030003 	li	v1,3
/home/mips/toolchain-mips/build/gcc-final/gcc/dp-bit.c:358
  40c874:	0088202b 	sltu	a0,a0,t0
/home/mips/toolchain-mips/build/gcc-final/gcc/dp-bit.c:354
  40c878:	00094a00 	sll	t1,t1,0x8
/home/mips/toolchain-mips/build/gcc-final/gcc/dp-bit.c:353
  40c87c:	ad620008 	sw	v0,8(t3)
/home/mips/toolchain-mips/build/gcc-final/gcc/dp-bit.c:358
  40c880:	1480000c 	bnez	a0,40c8b4 <__unpack_d+0xb4>
  40c884:	ad630000 	sw	v1,0(t3)
  40c888:	3c050fff 	lui	a1,0xfff
  40c88c:	34a5ffff 	ori	a1,a1,0xffff
  40c890:	2404fc02 	li	a0,-1022
/home/mips/toolchain-mips/build/gcc-final/gcc/dp-bit.c:360
  40c894:	00091fc2 	srl	v1,t1,0x1f
  40c898:	00084040 	sll	t0,t0,0x1
  40c89c:	01034025 	or	t0,t0,v1
/home/mips/toolchain-mips/build/gcc-final/gcc/dp-bit.c:361
  40c8a0:	00a8102b 	sltu	v0,a1,t0
/home/mips/toolchain-mips/build/gcc-final/gcc/dp-bit.c:360
  40c8a4:	00094840 	sll	t1,t1,0x1
/home/mips/toolchain-mips/build/gcc-final/gcc/dp-bit.c:361
  40c8a8:	1040fffa 	beqz	v0,40c894 <__unpack_d+0x94>
  40c8ac:	2484ffff 	addiu	a0,a0,-1
  40c8b0:	ad640008 	sw	a0,8(t3)
/home/mips/toolchain-mips/build/gcc-final/gcc/dp-bit.c:387
  40c8b4:	ad680010 	sw	t0,16(t3)
  40c8b8:	03e00008 	jr	ra
/home/mips/toolchain-mips/build/gcc-final/gcc/dp-bit.c:397
  40c8bc:	ad690014 	sw	t1,20(t3)
/home/mips/toolchain-mips/build/gcc-final/gcc/dp-bit.c:367
  40c8c0:	240207ff 	li	v0,2047
  40c8c4:	1142000e 	beq	t2,v0,40c900 <__unpack_d+0x100>
  40c8c8:	00093602 	srl	a2,t1,0x18
/home/mips/toolchain-mips/build/gcc-final/gcc/dp-bit.c:395
  40c8cc:	00081200 	sll	v0,t0,0x8
  40c8d0:	00461025 	or	v0,v0,a2
  40c8d4:	3c041000 	lui	a0,0x1000
  40c8d8:	24050000 	li	a1,0
  40c8dc:	00091a00 	sll	v1,t1,0x8
  40c8e0:	00441025 	or	v0,v0,a0
  40c8e4:	00651825 	or	v1,v1,a1
/home/mips/toolchain-mips/build/gcc-final/gcc/dp-bit.c:393
  40c8e8:	2546fc01 	addiu	a2,t2,-1023
/home/mips/toolchain-mips/build/gcc-final/gcc/dp-bit.c:395
  40c8ec:	ad620010 	sw	v0,16(t3)
  40c8f0:	ad630014 	sw	v1,20(t3)
/home/mips/toolchain-mips/build/gcc-final/gcc/dp-bit.c:393
  40c8f4:	ad660008 	sw	a2,8(t3)
/home/mips/toolchain-mips/build/gcc-final/gcc/dp-bit.c:394
  40c8f8:	1000ffd6 	b	40c854 <__unpack_d+0x54>
  40c8fc:	24020003 	li	v0,3
/home/mips/toolchain-mips/build/gcc-final/gcc/dp-bit.c:370
  40c900:	01091025 	or	v0,t0,t1
  40c904:	1040ffd3 	beqz	v0,40c854 <__unpack_d+0x54>
  40c908:	24020004 	li	v0,4
/home/mips/toolchain-mips/build/gcc-final/gcc/dp-bit.c:378
  40c90c:	3c020008 	lui	v0,0x8
  40c910:	24030000 	li	v1,0
  40c914:	01021024 	and	v0,t0,v0
  40c918:	01231824 	and	v1,t1,v1
  40c91c:	00431025 	or	v0,v0,v1
  40c920:	10400003 	beqz	v0,40c930 <__unpack_d+0x130>
  40c924:	24020001 	li	v0,1
/home/mips/toolchain-mips/build/gcc-final/gcc/dp-bit.c:380
  40c928:	1000ffe2 	b	40c8b4 <__unpack_d+0xb4>
  40c92c:	ad620000 	sw	v0,0(t3)
/home/mips/toolchain-mips/build/gcc-final/gcc/dp-bit.c:384
  40c930:	1000ffe0 	b	40c8b4 <__unpack_d+0xb4>
  40c934:	ad600000 	sw	zero,0(t3)
	...

0040c940 <__fpcmp_parts_d>:
__fpcmp_parts_d():
/home/mips/toolchain-mips/build/gcc-final/gcc/dp-bit.c:895
  40c940:	3c1c0000 	lui	gp,0x0
  40c944:	279c0200 	addiu	gp,gp,512
  40c948:	0399e021 	addu	gp,gp,t9
/home/mips/toolchain-mips/build/gcc-final/gcc/dp-bit.c:152
  40c94c:	8c860000 	lw	a2,0(a0)
  40c950:	00000000 	nop
  40c954:	2cc20002 	sltiu	v0,a2,2
/home/mips/toolchain-mips/build/gcc-final/gcc/dp-bit.c:151
  40c958:	14400010 	bnez	v0,40c99c <__fpcmp_parts_d+0x5c>
  40c95c:	24030001 	li	v1,1
/home/mips/toolchain-mips/build/gcc-final/gcc/dp-bit.c:152
  40c960:	8ca70000 	lw	a3,0(a1)
  40c964:	00000000 	nop
  40c968:	2ce20002 	sltiu	v0,a3,2
/home/mips/toolchain-mips/build/gcc-final/gcc/dp-bit.c:151
  40c96c:	1440000b 	bnez	v0,40c99c <__fpcmp_parts_d+0x5c>
  40c970:	00000000 	nop
/home/mips/toolchain-mips/build/gcc-final/gcc/dp-bit.c:159
  40c974:	38c20004 	xori	v0,a2,0x4
/home/mips/toolchain-mips/build/gcc-final/gcc/dp-bit.c:158
  40c978:	1440000b 	bnez	v0,40c9a8 <__fpcmp_parts_d+0x68>
  40c97c:	00000000 	nop
/home/mips/toolchain-mips/build/gcc-final/gcc/dp-bit.c:159
  40c980:	38e20004 	xori	v0,a3,0x4
/home/mips/toolchain-mips/build/gcc-final/gcc/dp-bit.c:158
  40c984:	14400007 	bnez	v0,40c9a4 <__fpcmp_parts_d+0x64>
  40c988:	00000000 	nop
/home/mips/toolchain-mips/build/gcc-final/gcc/dp-bit.c:919
  40c98c:	8ca30004 	lw	v1,4(a1)
  40c990:	8c820004 	lw	v0,4(a0)
  40c994:	00000000 	nop
  40c998:	00621823 	subu	v1,v1,v0
/home/mips/toolchain-mips/build/gcc-final/gcc/dp-bit.c:968
  40c99c:	03e00008 	jr	ra
  40c9a0:	00601021 	move	v0,v1
/home/mips/toolchain-mips/build/gcc-final/gcc/dp-bit.c:159
  40c9a4:	38c20004 	xori	v0,a2,0x4
/home/mips/toolchain-mips/build/gcc-final/gcc/dp-bit.c:158
  40c9a8:	10400012 	beqz	v0,40c9f4 <__fpcmp_parts_d+0xb4>
  40c9ac:	38e20004 	xori	v0,a3,0x4
  40c9b0:	10400008 	beqz	v0,40c9d4 <__fpcmp_parts_d+0x94>
  40c9b4:	38c20002 	xori	v0,a2,0x2
/home/mips/toolchain-mips/build/gcc-final/gcc/dp-bit.c:167
  40c9b8:	1440000c 	bnez	v0,40c9ec <__fpcmp_parts_d+0xac>
  40c9bc:	38e20002 	xori	v0,a3,0x2
  40c9c0:	1040fff6 	beqz	v0,40c99c <__fpcmp_parts_d+0x5c>
  40c9c4:	00001821 	move	v1,zero
/home/mips/toolchain-mips/build/gcc-final/gcc/dp-bit.c:168
  40c9c8:	38c20002 	xori	v0,a2,0x2
/home/mips/toolchain-mips/build/gcc-final/gcc/dp-bit.c:167
  40c9cc:	14400007 	bnez	v0,40c9ec <__fpcmp_parts_d+0xac>
  40c9d0:	38e20002 	xori	v0,a3,0x2
/home/mips/toolchain-mips/build/gcc-final/gcc/dp-bit.c:936
  40c9d4:	8ca20004 	lw	v0,4(a1)
  40c9d8:	00000000 	nop
  40c9dc:	1440ffef 	bnez	v0,40c99c <__fpcmp_parts_d+0x5c>
  40c9e0:	24030001 	li	v1,1
  40c9e4:	1000ffed 	b	40c99c <__fpcmp_parts_d+0x5c>
  40c9e8:	2403ffff 	li	v1,-1
/home/mips/toolchain-mips/build/gcc-final/gcc/dp-bit.c:167
  40c9ec:	14400007 	bnez	v0,40ca0c <__fpcmp_parts_d+0xcc>
  40c9f0:	00000000 	nop
/home/mips/toolchain-mips/build/gcc-final/gcc/dp-bit.c:940
  40c9f4:	8c820004 	lw	v0,4(a0)
  40c9f8:	00000000 	nop
  40c9fc:	1440ffe7 	bnez	v0,40c99c <__fpcmp_parts_d+0x5c>
  40ca00:	2403ffff 	li	v1,-1
  40ca04:	1000ffe5 	b	40c99c <__fpcmp_parts_d+0x5c>
  40ca08:	24030001 	li	v1,1
/home/mips/toolchain-mips/build/gcc-final/gcc/dp-bit.c:943
  40ca0c:	8c860004 	lw	a2,4(a0)
  40ca10:	8ca20004 	lw	v0,4(a1)
  40ca14:	00000000 	nop
  40ca18:	10c20006 	beq	a2,v0,40ca34 <__fpcmp_parts_d+0xf4>
  40ca1c:	00000000 	nop
/home/mips/toolchain-mips/build/gcc-final/gcc/dp-bit.c:960
  40ca20:	14c00002 	bnez	a2,40ca2c <__fpcmp_parts_d+0xec>
  40ca24:	2402ffff 	li	v0,-1
  40ca28:	24020001 	li	v0,1
  40ca2c:	1000ffdb 	b	40c99c <__fpcmp_parts_d+0x5c>
  40ca30:	00401821 	move	v1,v0
/home/mips/toolchain-mips/build/gcc-final/gcc/dp-bit.c:949
  40ca34:	8c870008 	lw	a3,8(a0)
  40ca38:	8ca30008 	lw	v1,8(a1)
  40ca3c:	00000000 	nop
  40ca40:	0067102a 	slt	v0,v1,a3
  40ca44:	1440fff6 	bnez	v0,40ca20 <__fpcmp_parts_d+0xe0>
  40ca48:	00000000 	nop
/home/mips/toolchain-mips/build/gcc-final/gcc/dp-bit.c:953
  40ca4c:	00e3102a 	slt	v0,a3,v1
  40ca50:	14400014 	bnez	v0,40caa4 <__fpcmp_parts_d+0x164>
  40ca54:	00000000 	nop
/home/mips/toolchain-mips/build/gcc-final/gcc/dp-bit.c:958
  40ca58:	8c880010 	lw	t0,16(a0)
  40ca5c:	8ca70010 	lw	a3,16(a1)
  40ca60:	00000000 	nop
  40ca64:	00e8102b 	sltu	v0,a3,t0
  40ca68:	1440ffed 	bnez	v0,40ca20 <__fpcmp_parts_d+0xe0>
  40ca6c:	00000000 	nop
  40ca70:	11070010 	beq	t0,a3,40cab4 <__fpcmp_parts_d+0x174>
  40ca74:	00000000 	nop
/home/mips/toolchain-mips/build/gcc-final/gcc/dp-bit.c:962
  40ca78:	0107102b 	sltu	v0,t0,a3
  40ca7c:	14400009 	bnez	v0,40caa4 <__fpcmp_parts_d+0x164>
  40ca80:	00000000 	nop
  40ca84:	14e8ffc5 	bne	a3,t0,40c99c <__fpcmp_parts_d+0x5c>
  40ca88:	00001821 	move	v1,zero
/home/mips/toolchain-mips/build/gcc-final/gcc/dp-bit.c:967
  40ca8c:	8ca30014 	lw	v1,20(a1)
  40ca90:	8c820014 	lw	v0,20(a0)
  40ca94:	00000000 	nop
  40ca98:	0043102b 	sltu	v0,v0,v1
  40ca9c:	1040ffbf 	beqz	v0,40c99c <__fpcmp_parts_d+0x5c>
  40caa0:	00001821 	move	v1,zero
/home/mips/toolchain-mips/build/gcc-final/gcc/dp-bit.c:964
  40caa4:	14c0ffe1 	bnez	a2,40ca2c <__fpcmp_parts_d+0xec>
  40caa8:	24020001 	li	v0,1
  40caac:	1000ffdf 	b	40ca2c <__fpcmp_parts_d+0xec>
  40cab0:	2402ffff 	li	v0,-1
  40cab4:	8c830014 	lw	v1,20(a0)
  40cab8:	8ca20014 	lw	v0,20(a1)
  40cabc:	00000000 	nop
  40cac0:	0043102b 	sltu	v0,v0,v1
  40cac4:	1040ffec 	beqz	v0,40ca78 <__fpcmp_parts_d+0x138>
  40cac8:	00000000 	nop
  40cacc:	1000ffd4 	b	40ca20 <__fpcmp_parts_d+0xe0>
  40cad0:	00000000 	nop
	...

0040cae0 <_init>:
_init():
  40cae0:	3c1c0000 	lui	gp,0x0
  40cae4:	279c0060 	addiu	gp,gp,96
  40cae8:	0399e021 	addu	gp,gp,t9
  40caec:	27bdffe0 	addiu	sp,sp,-32
  40caf0:	afbc0010 	sw	gp,16(sp)
  40caf4:	afbf001c 	sw	ra,28(sp)
  40caf8:	afbc0018 	sw	gp,24(sp)
  40cafc:	8fbf001c 	lw	ra,28(sp)
  40cb00:	00000000 	nop
  40cb04:	03e00008 	jr	ra
  40cb08:	27bd0020 	addiu	sp,sp,32

0040cb0c <_fini>:
_fini():
  40cb0c:	3c1c0000 	lui	gp,0x0
  40cb10:	279c0034 	addiu	gp,gp,52
  40cb14:	0399e021 	addu	gp,gp,t9
  40cb18:	27bdffe0 	addiu	sp,sp,-32
  40cb1c:	afbc0010 	sw	gp,16(sp)
  40cb20:	afbf001c 	sw	ra,28(sp)
  40cb24:	afbc0018 	sw	gp,24(sp)
  40cb28:	8fbf001c 	lw	ra,28(sp)
  40cb2c:	00000000 	nop
  40cb30:	03e00008 	jr	ra
  40cb34:	27bd0020 	addiu	sp,sp,32
	...
Disassembly of section .data:

0040cb40 <_GLOBAL_OFFSET_TABLE_>:
__data_start():
  40cb40:	00000000 	nop
  40cb44:	80000000 	lb	zero,0(zero)
  40cb48:	00410000 	0x410000
  40cb4c:	00400000 	0x400000
	...
  40cb5c:	00406fa0 	0x406fa0
  40cb60:	00409ce0 	0x409ce0
  40cb64:	00405300 	0x405300
  40cb68:	0040c560 	0x40c560
  40cb6c:	0040e778 	0x40e778
  40cb70:	004078c0 	0x4078c0
  40cb74:	004040f4 	0x4040f4
  40cb78:	00405c10 	0x405c10
  40cb7c:	0040b800 	0x40b800
  40cb80:	00403320 	0x403320
  40cb84:	00407b10 	0x407b10
  40cb88:	00403a5c 	0x403a5c
  40cb8c:	0040ad60 	0x40ad60
  40cb90:	0040a800 	0x40a800
  40cb94:	0040f6c0 	0x40f6c0
  40cb98:	0040e314 	0x40e314
  40cb9c:	0040ec60 	0x40ec60
  40cba0:	00408ffc 	0x408ffc
  40cba4:	0040e2c0 	0x40e2c0
  40cba8:	0040c140 	0x40c140
  40cbac:	00407830 	0x407830
  40cbb0:	00405690 	0x405690
  40cbb4:	004049e8 	0x4049e8
  40cbb8:	004076a0 	0x4076a0
  40cbbc:	0040f8d0 	0x40f8d0
  40cbc0:	00406310 	0x406310
  40cbc4:	0040e774 	0x40e774
  40cbc8:	0040e67c 	0x40e67c
  40cbcc:	004073b0 	0x4073b0
  40cbd0:	0040965c 	0x40965c
  40cbd4:	004079b0 	0x4079b0
  40cbd8:	0040f580 	0x40f580
  40cbdc:	00405038 	0x405038
  40cbe0:	00406610 	0x406610
  40cbe4:	004063b0 	0x4063b0
  40cbe8:	00404d50 	0x404d50
  40cbec:	0040e2ac 	0x40e2ac
  40cbf0:	0040e2bc 	0x40e2bc
  40cbf4:	004082f8 	0x4082f8
  40cbf8:	00000000 	nop
  40cbfc:	00402aa4 	0x402aa4
  40cc00:	00408c50 	0x408c50
  40cc04:	0040f800 	0x40f800
  40cc08:	00404b08 	0x404b08
  40cc0c:	0040aeb0 	0x40aeb0
  40cc10:	00405dd0 	0x405dd0
  40cc14:	00407cd0 	0x407cd0
  40cc18:	0040af8c 	syscall	0x102be
  40cc1c:	0040acc0 	0x40acc0
  40cc20:	00408424 	0x408424
  40cc24:	00401650 	0x401650
  40cc28:	00409d90 	0x409d90
  40cc2c:	0040484c 	syscall	0x10121
  40cc30:	00408cc0 	0x408cc0
  40cc34:	0040e770 	0x40e770
  40cc38:	00407ea0 	0x407ea0
  40cc3c:	00000000 	nop
  40cc40:	0040e674 	0x40e674
  40cc44:	00404f1c 	0x404f1c
  40cc48:	00403430 	0x403430
  40cc4c:	00405ed0 	0x405ed0
  40cc50:	0040f4e0 	0x40f4e0
  40cc54:	004038f8 	0x4038f8
  40cc58:	00000000 	nop
  40cc5c:	004052a0 	0x4052a0
  40cc60:	00401eb0 	0x401eb0
  40cc64:	00404ba0 	0x404ba0
  40cc68:	0040cb0c 	syscall	0x1032c
  40cc6c:	0040c070 	0x40c070
  40cc70:	00000000 	nop
  40cc74:	004082f8 	0x4082f8
  40cc78:	004060c0 	0x4060c0
  40cc7c:	004057c0 	0x4057c0
  40cc80:	0040f3e0 	0x40f3e0
  40cc84:	00404ecc 	syscall	0x1013b
  40cc88:	0040e170 	0x40e170
  40cc8c:	004035a4 	0x4035a4
  40cc90:	0040219c 	0x40219c
  40cc94:	0040e22c 	0x40e22c
  40cc98:	00405b40 	0x405b40
  40cc9c:	004040ec 	0x4040ec
  40cca0:	00405e7c 	0x405e7c
  40cca4:	00401718 	0x401718
  40cca8:	00403888 	0x403888
  40ccac:	0040eca0 	0x40eca0
  40ccb0:	0040e2b4 	0x40e2b4
  40ccb4:	00404160 	0x404160
  40ccb8:	00400080 	0x400080
  40ccbc:	0040a790 	0x40a790
  40ccc0:	00406250 	0x406250
  40ccc4:	0040f3b0 	0x40f3b0
  40ccc8:	0040e298 	0x40e298
  40cccc:	0040f880 	0x40f880
  40ccd0:	00404c00 	0x404c00
  40ccd4:	00409c90 	0x409c90
  40ccd8:	0040b8d0 	0x40b8d0
  40ccdc:	0040a9c0 	0x40a9c0
  40cce0:	00407ed0 	0x407ed0
  40cce4:	0040bd00 	0x40bd00
  40cce8:	004055a0 	0x4055a0
  40ccec:	0040c4e0 	0x40c4e0
  40ccf0:	00405520 	0x405520
  40ccf4:	004095e0 	0x4095e0
  40ccf8:	00400b20 	0x400b20
  40ccfc:	0040e6a4 	0x40e6a4
  40cd00:	0040c940 	0x40c940
  40cd04:	004071c0 	0x4071c0
  40cd08:	00407fb0 	0x407fb0
  40cd0c:	00406a70 	0x406a70
  40cd10:	00405720 	0x405720
  40cd14:	004056d0 	0x4056d0
  40cd18:	00404bb0 	0x404bb0
  40cd1c:	00407710 	0x407710
  40cd20:	00406140 	0x406140
  40cd24:	0040e768 	0x40e768
  40cd28:	0040e700 	0x40e700
  40cd2c:	00404a90 	0x404a90
  40cd30:	0040e318 	0x40e318
  40cd34:	0040e764 	0x40e764
  40cd38:	004059f0 	0x4059f0
  40cd3c:	0040b040 	0x40b040
  40cd40:	00406000 	0x406000
  40cd44:	0040e760 	0x40e760
  40cd48:	00403160 	0x403160
  40cd4c:	0040eb60 	0x40eb60
  40cd50:	0040f8a0 	0x40f8a0
  40cd54:	0040e678 	0x40e678
  40cd58:	004042c4 	0x4042c4
  40cd5c:	0040a7c0 	0x40a7c0
  40cd60:	0040ae1c 	0x40ae1c
  40cd64:	004051e0 	0x4051e0
  40cd68:	00403e44 	0x403e44
  40cd6c:	00401830 	0x401830
  40cd70:	004077a0 	0x4077a0
  40cd74:	00401fb8 	0x401fb8
  40cd78:	00404504 	0x404504
  40cd7c:	0040e6a0 	0x40e6a0
  40cd80:	0040f2b0 	0x40f2b0
  40cd84:	0040e75c 	0x40e75c
  40cd88:	0040c3e0 	0x40c3e0
  40cd8c:	0040ac40 	0x40ac40
  40cd90:	004043b4 	0x4043b4
  40cd94:	0040e758 	0x40e758
  40cd98:	004016b4 	0x4016b4
  40cd9c:	00406288 	0x406288
  40cda0:	00405a80 	0x405a80
  40cda4:	0040a920 	0x40a920
  40cda8:	00406360 	0x406360
  40cdac:	00403ac8 	0x403ac8
  40cdb0:	004024b0 	0x4024b0
  40cdb4:	0040cae0 	0x40cae0
  40cdb8:	0040f1b0 	0x40f1b0
  40cdbc:	00407930 	0x407930
  40cdc0:	004027d0 	0x4027d0
  40cdc4:	00405f60 	0x405f60
  40cdc8:	00405570 	0x405570
  40cdcc:	0040a970 	0x40a970
  40cdd0:	00407b80 	0x407b80
  40cdd4:	00407e10 	0x407e10
  40cdd8:	004038c4 	0x4038c4
  40cddc:	0040e530 	0x40e530
  40cde0:	0040e6e0 	0x40e6e0
  40cde4:	0040b350 	0x40b350
  40cde8:	0040d4a0 	0x40d4a0
  40cdec:	00408340 	0x408340
  40cdf0:	0040a750 	0x40a750
  40cdf4:	0040e3b8 	0x40e3b8
  40cdf8:	0040c800 	0x40c800
  40cdfc:	00408280 	0x408280
  40ce00:	0040372c 	0x40372c
  40ce04:	00402898 	0x402898
  40ce08:	00407d50 	0x407d50
  40ce0c:	00000000 	nop
  40ce10:	0040eee0 	0x40eee0
  40ce14:	0040ea20 	0x40ea20
  40ce18:	00402578 	0x402578
  40ce1c:	0040e754 	0x40e754
  40ce20:	0040e750 	0x40e750
  40ce24:	004050e0 	0x4050e0
  40ce28:	0040e74c 	syscall	0x1039d
  40ce2c:	00408210 	0x408210
  40ce30:	004059a0 	0x4059a0
  40ce34:	00406e00 	0x406e00
  40ce38:	00404bd0 	0x404bd0
  40ce3c:	00407a90 	0x407a90
  40ce40:	0040b1e0 	0x40b1e0
  40ce44:	00408b00 	0x408b00
  40ce48:	004017dc 	0x4017dc
  40ce4c:	0040b2a0 	0x40b2a0
  40ce50:	0040c210 	0x40c210
  40ce54:	00404d70 	0x404d70
  40ce58:	0040c2e0 	0x40c2e0
  40ce5c:	0040e2c8 	0x40e2c8
  40ce60:	004055e0 	0x4055e0
  40ce64:	00407550 	0x407550
  40ce68:	00404674 	0x404674
  40ce6c:	0040eea0 	0x40eea0
  40ce70:	0040abb0 	0x40abb0
  40ce74:	00403f78 	0x403f78
  40ce78:	00404b90 	0x404b90
  40ce7c:	00407480 	0x407480
  40ce80:	0040e6f0 	0x40e6f0
  40ce84:	0040aad0 	0x40aad0
  40ce88:	004066e0 	0x4066e0
  40ce8c:	0040e3bc 	0x40e3bc
  40ce90:	0040226c 	0x40226c
  40ce94:	0040f0b0 	0x40f0b0
  40ce98:	004089d0 	0x4089d0
  40ce9c:	00407c50 	0x407c50
  40cea0:	00405620 	0x405620
  40cea4:	0040176c 	0x40176c
  40cea8:	0040a870 	0x40a870
  40ceac:	0040e30c 	syscall	0x1038c
  40ceb0:	00405760 	0x405760
  40ceb4:	0040e748 	0x40e748
  40ceb8:	0040e310 	0x40e310
  40cebc:	00408694 	0x408694
  40cec0:	004034c0 	0x4034c0
  40cec4:	0040353c 	0x40353c
  40cec8:	0040e670 	0x40e670
  40cecc:	00405230 	0x405230
  40ced0:	0040e740 	0x40e740
  40ced4:	00407a3c 	0x407a3c
  40ced8:	0040bfa0 	0x40bfa0
  40cedc:	00406ab8 	0x406ab8
  40cee0:	0040a840 	0x40a840
  40cee4:	0040e238 	0x40e238
  40cee8:	0040e744 	0x40e744
	...
  40cf00:	ffffffff 	0xffffffff
	...
  40cf10:	2f62696e 	sltiu	v0,k1,26990
  40cf14:	2f6c6f67 	sltiu	t4,k1,28519
  40cf18:	696e0000 	0x696e0000
  40cf1c:	25733a20 	addiu	s3,t3,14880
  40cf20:	00000000 	nop
  40cf24:	67657470 	0x67657470
  40cf28:	6565726e 	0x6565726e
  40cf2c:	616d6500 	0x616d6500
  40cf30:	55736167 	0x55736167
  40cf34:	653a2074 	0x653a2074
  40cf38:	656c6e65 	0x656c6e65
  40cf3c:	74640000 	0x74640000
  40cf40:	205b2d64 	addi	k1,v0,11620
  40cf44:	65627567 	0x65627567
  40cf48:	5d000000 	0x5d000000
  40cf4c:	205b2d68 	addi	k1,v0,11624
  40cf50:	5d000000 	0x5d000000
  40cf54:	205b2d4c 	addi	k1,v0,11596
  40cf58:	206c6f67 	addi	t4,v1,28519
  40cf5c:	696e5f70 	0x696e5f70
  40cf60:	726f6772 	0x726f6772
  40cf64:	616d5d00 	0x616d5d00
  40cf68:	205b2d6e 	addi	k1,v0,11630
  40cf6c:	5d000000 	0x5d000000
  40cf70:	205b706f 	addi	k1,v0,28783
  40cf74:	72745d0a 	0x72745d0a
  40cf78:	00000000 	nop
  40cf7c:	416c6c20 	0x416c6c20
  40cf80:	6e657477 	0x6e657477
  40cf84:	6f726b20 	0x6f726b20
  40cf88:	706f7274 	0x706f7274
  40cf8c:	7320696e 	0x7320696e
  40cf90:	20757365 	addi	s5,v1,29541
  40cf94:	00000000 	nop
  40cf98:	2f646576 	sltiu	a0,k1,25974
  40cf9c:	2f747479 	sltiu	s4,k1,29817
  40cfa0:	00000000 	nop
  40cfa4:	25632563 	addiu	v1,t3,9571
  40cfa8:	25632563 	addiu	v1,t3,9571
  40cfac:	25632563 	addiu	v1,t3,9571
  40cfb0:	00000000 	nop
  40cfb4:	0d0a5b25 	jal	4296c94 <_ebss+0x3e8739c>
  40cfb8:	73203a20 	0x73203a20
  40cfbc:	7965735d 	0x7965735d
  40cfc0:	0d0a0000 	jal	4280000 <_ebss+0x3e70708>
  40cfc4:	00000000 	nop
	...
  40cfd0:	74656c6e 	0x74656c6e
  40cfd4:	6574643a 	0x6574643a
  40cfd8:	2070616e 	addi	s0,v1,24942
  40cfdc:	69632073 	0x69632073
  40cfe0:	74617465 	0x74617465
  40cfe4:	3d25640a 	0x3d25640a
  40cfe8:	00000000 	nop
  40cfec:	ffff4dbc 	0xffff4dbc
  40cff0:	ffff4e5c 	0xffff4e5c
  40cff4:	ffff4d9c 	0xffff4d9c
  40cff8:	ffff510c 	0xffff510c
  40cffc:	ffff5148 	0xffff5148
  40d000:	ffff52e4 	0xffff52e4
  40d004:	ffff52fc 	0xffff52fc
  40d008:	ffff5314 	0xffff5314
  40d00c:	ffff532c 	0xffff532c
  40d010:	ffff4eb4 	0xffff4eb4
  40d014:	ffff4ecc 	0xffff4ecc
  40d018:	ffff4ee4 	0xffff4ee4
  40d01c:	ffff4efc 	0xffff4efc
  40d020:	ffff4ea0 	0xffff4ea0
  40d024:	ffff4ea0 	0xffff4ea0
  40d028:	ffff4f20 	0xffff4f20
  40d02c:	ffff4ee4 	0xffff4ee4
  40d030:	ffff4e90 	0xffff4e90
  40d034:	ffff4f68 	0xffff4f68
  40d038:	ffff5018 	0xffff5018
  40d03c:	ffff5030 	0xffff5030
  40d040:	ffff5030 	0xffff5030
  40d044:	ffff4ea0 	0xffff4ea0
  40d048:	ffff50b0 	0xffff50b0
  40d04c:	ffff50d8 	0xffff50d8
  40d050:	ffff50e0 	0xffff50e0
  40d054:	ffff50e8 	0xffff50e8
  40d058:	ffff50f0 	0xffff50f0
  40d05c:	ffff50f8 	0xffff50f8
  40d060:	ffff553c 	0xffff553c
  40d064:	ffff55fc 	0xffff55fc
  40d068:	ffff5570 	0xffff5570
  40d06c:	ffff556c 	0xffff556c
  40d070:	ffff5570 	0xffff5570
  40d074:	ffff5570 	0xffff5570
  40d078:	ffff55b0 	0xffff55b0
  40d07c:	ffff5570 	0xffff5570
  40d080:	ffff5570 	0xffff5570
  40d084:	ffff5570 	0xffff5570
  40d088:	ffff5570 	0xffff5570
  40d08c:	ffff5570 	0xffff5570
  40d090:	ffff5570 	0xffff5570
  40d094:	ffff5570 	0xffff5570
  40d098:	ffff5570 	0xffff5570
  40d09c:	ffff5570 	0xffff5570
  40d0a0:	ffff5570 	0xffff5570
  40d0a4:	ffff5570 	0xffff5570
  40d0a8:	ffff5570 	0xffff5570
  40d0ac:	ffff5570 	0xffff5570
  40d0b0:	ffff5570 	0xffff5570
  40d0b4:	ffff5570 	0xffff5570
  40d0b8:	ffff5570 	0xffff5570
  40d0bc:	ffff5570 	0xffff5570
  40d0c0:	ffff556c 	0xffff556c
  40d0c4:	ffff5570 	0xffff5570
  40d0c8:	ffff5570 	0xffff5570
  40d0cc:	ffff5570 	0xffff5570
  40d0d0:	ffff5570 	0xffff5570
  40d0d4:	ffff5570 	0xffff5570
  40d0d8:	ffff5570 	0xffff5570
  40d0dc:	ffff556c 	0xffff556c
  40d0e0:	ffff556c 	0xffff556c
  40d0e4:	ffff560c 	0xffff560c
  40d0e8:	ffff5570 	0xffff5570
  40d0ec:	ffff556c 	0xffff556c
  40d0f0:	ffff5570 	0xffff5570
  40d0f4:	ffff5570 	0xffff5570
  40d0f8:	ffff5570 	0xffff5570
  40d0fc:	ffff556c 	0xffff556c
  40d100:	ffff5854 	0xffff5854
  40d104:	ffff57f4 	0xffff57f4
  40d108:	ffff5804 	0xffff5804
  40d10c:	ffff5804 	0xffff5804
  40d110:	ffff5804 	0xffff5804
  40d114:	ffff5804 	0xffff5804
  40d118:	ffff588c 	0xffff588c
  40d11c:	ffff5804 	0xffff5804
  40d120:	ffff5804 	0xffff5804
  40d124:	ffff5804 	0xffff5804
  40d128:	ffff5804 	0xffff5804
  40d12c:	ffff5804 	0xffff5804
  40d130:	ffff5804 	0xffff5804
  40d134:	ffff5804 	0xffff5804
  40d138:	ffff5804 	0xffff5804
  40d13c:	ffff5804 	0xffff5804
  40d140:	ffff5804 	0xffff5804
  40d144:	ffff5804 	0xffff5804
  40d148:	ffff5804 	0xffff5804
  40d14c:	ffff5804 	0xffff5804
  40d150:	ffff5804 	0xffff5804
  40d154:	ffff5804 	0xffff5804
  40d158:	ffff5804 	0xffff5804
  40d15c:	ffff5804 	0xffff5804
  40d160:	ffff58ac 	0xffff58ac
  40d164:	ffff5804 	0xffff5804
  40d168:	ffff5804 	0xffff5804
  40d16c:	ffff5804 	0xffff5804
  40d170:	ffff5804 	0xffff5804
  40d174:	ffff5804 	0xffff5804
  40d178:	ffff5804 	0xffff5804
  40d17c:	ffff5804 	0xffff5804
  40d180:	ffff58d0 	0xffff58d0
  40d184:	ffff58f4 	0xffff58f4
  40d188:	ffff5804 	0xffff5804
  40d18c:	ffff5928 	0xffff5928
  40d190:	ffff5804 	0xffff5804
  40d194:	ffff5804 	0xffff5804
  40d198:	ffff5804 	0xffff5804
  40d19c:	ffff594c 	0xffff594c
  40d1a0:	ffff5bc4 	0xffff5bc4
  40d1a4:	ffff5b00 	0xffff5b00
  40d1a8:	ffff5b34 	0xffff5b34
  40d1ac:	ffff5bec 	0xffff5bec
  40d1b0:	ffff5b34 	0xffff5b34
  40d1b4:	ffff5b30 	0xffff5b30
  40d1b8:	ffff5c00 	0xffff5c00
  40d1bc:	ffff5b34 	0xffff5b34
  40d1c0:	ffff5b34 	0xffff5b34
  40d1c4:	ffff5b34 	0xffff5b34
  40d1c8:	ffff5b34 	0xffff5b34
  40d1cc:	ffff5b34 	0xffff5b34
  40d1d0:	ffff5b34 	0xffff5b34
  40d1d4:	ffff5b34 	0xffff5b34
  40d1d8:	ffff5b34 	0xffff5b34
  40d1dc:	ffff5b34 	0xffff5b34
  40d1e0:	ffff5b34 	0xffff5b34
  40d1e4:	ffff5b34 	0xffff5b34
  40d1e8:	ffff5c24 	0xffff5c24
  40d1ec:	ffff5b34 	0xffff5b34
  40d1f0:	ffff5b34 	0xffff5b34
  40d1f4:	ffff5b34 	0xffff5b34
  40d1f8:	ffff5b34 	0xffff5b34
  40d1fc:	ffff5b34 	0xffff5b34
  40d200:	ffff5b34 	0xffff5b34
  40d204:	ffff5b34 	0xffff5b34
  40d208:	ffff5b34 	0xffff5b34
  40d20c:	ffff5b34 	0xffff5b34
  40d210:	ffff5b34 	0xffff5b34
  40d214:	ffff5b34 	0xffff5b34
  40d218:	ffff5b34 	0xffff5b34
  40d21c:	ffff5b34 	0xffff5b34
  40d220:	ffff5b34 	0xffff5b34
  40d224:	ffff5b34 	0xffff5b34
  40d228:	ffff5b34 	0xffff5b34
  40d22c:	ffff5b34 	0xffff5b34
  40d230:	ffff5b34 	0xffff5b34
  40d234:	ffff5b34 	0xffff5b34
  40d238:	ffff5b34 	0xffff5b34
  40d23c:	ffff5b34 	0xffff5b34
  40d240:	44495350 	0x44495350
  40d244:	4c415900 	0x4c415900
  40d248:	ffff6104 	0xffff6104
  40d24c:	ffff60a0 	0xffff60a0
  40d250:	ffff60a0 	0xffff60a0
  40d254:	ffff60a0 	0xffff60a0
  40d258:	ffff60a0 	0xffff60a0
  40d25c:	ffff60a0 	0xffff60a0
  40d260:	ffff60a0 	0xffff60a0
  40d264:	ffff60a0 	0xffff60a0
  40d268:	ffff60a0 	0xffff60a0
  40d26c:	ffff60a0 	0xffff60a0
  40d270:	ffff60a0 	0xffff60a0
  40d274:	ffff60a0 	0xffff60a0
  40d278:	ffff60a0 	0xffff60a0
  40d27c:	ffff60a0 	0xffff60a0
  40d280:	ffff60a0 	0xffff60a0
  40d284:	ffff60a0 	0xffff60a0
  40d288:	ffff60a0 	0xffff60a0
  40d28c:	ffff60a0 	0xffff60a0
  40d290:	ffff60a0 	0xffff60a0
  40d294:	ffff618c 	0xffff618c
  40d298:	ffff60a0 	0xffff60a0
  40d29c:	ffff60a0 	0xffff60a0
  40d2a0:	ffff60a0 	0xffff60a0
  40d2a4:	ffff60a0 	0xffff60a0
  40d2a8:	ffff60a0 	0xffff60a0
  40d2ac:	ffff60a0 	0xffff60a0
  40d2b0:	ffff6320 	0xffff6320
  40d2b4:	ffff5fcc 	0xffff5fcc
  40d2b8:	ffff60a0 	0xffff60a0
  40d2bc:	ffff60a0 	0xffff60a0
  40d2c0:	ffff63ec 	0xffff63ec
  40d2c4:	ffff60a0 	0xffff60a0
  40d2c8:	ffff60a0 	0xffff60a0
  40d2cc:	ffff60a0 	0xffff60a0
  40d2d0:	ffff6484 	0xffff6484
	...
  40d2e0:	ffff6abc 	0xffff6abc
  40d2e4:	ffff6afc 	0xffff6afc
  40d2e8:	ffff6afc 	0xffff6afc
  40d2ec:	ffff6acc 	0xffff6acc
  40d2f0:	ffff6ae4 	0xffff6ae4
  40d2f4:	ffff6afc 	0xffff6afc
  40d2f8:	ffff6afc 	0xffff6afc
  40d2fc:	ffff6b0c 	0xffff6b0c
  40d300:	ffff6a98 	0xffff6a98
  40d304:	ffff6b20 	0xffff6b20
  40d308:	ffff6b38 	0xffff6b38
  40d30c:	ffff6b4c 	0xffff6b4c
  40d310:	ffff6b60 	0xffff6b60
  40d314:	ffff6b74 	0xffff6b74
  40d318:	ffff6b88 	0xffff6b88
  40d31c:	ffff6b9c 	0xffff6b9c
  40d320:	ffff6bb0 	0xffff6bb0
  40d324:	ffff6bc4 	0xffff6bc4
  40d328:	ffff6bd8 	0xffff6bd8
  40d32c:	2f646576 	sltiu	a0,k1,25974
  40d330:	2f707479 	sltiu	s0,k1,29817
  40d334:	58580000 	0x58580000
  40d338:	70717273 	0x70717273
  40d33c:	74757677 	0x74757677
  40d340:	78797a61 	0x78797a61
  40d344:	62636465 	0x62636465
  40d348:	00000000 	nop
  40d34c:	30313233 	andi	s1,at,0x3233
  40d350:	34353637 	ori	s5,at,0x3637
  40d354:	38396162 	xori	t9,at,0x6162
  40d358:	63646566 	0x63646566
  40d35c:	00000000 	nop
  40d360:	2f646576 	sltiu	a0,k1,25974
  40d364:	2f747479 	sltiu	s4,k1,29817
  40d368:	00000000 	nop
  40d36c:	6c6f6769 	0x6c6f6769
  40d370:	6e5f7474 	0x6e5f7474
  40d374:	79000000 	0x79000000
  40d378:	696f6374 	0x696f6374
  40d37c:	6c287363 	0x6c287363
  40d380:	74747929 	0x74747929
  40d384:	00000000 	nop
  40d388:	73657473 	0x73657473
  40d38c:	69642829 	0x69642829
  40d390:	00000000 	nop
  40d394:	666f726b 	0x666f726b
  40d398:	00000000 	nop
  40d39c:	6c6f6769 	0x6c6f6769
  40d3a0:	6e000000 	0x6e000000
  40d3a4:	2d680000 	sltiu	t0,t3,0
  40d3a8:	73680000 	0x73680000
  40d3ac:	00000000 	nop
  40d3b0:	73656c65 	0x73656c65
  40d3b4:	63740000 	0x63740000
  40d3b8:	74656c6e 	0x74656c6e
  40d3bc:	6574643a 	0x6574643a
  40d3c0:	2025732e 	addi	a1,at,29486
  40d3c4:	0d0a0000 	jal	4280000 <_ebss+0x3e70708>
  40d3c8:	25733a20 	addiu	s3,t3,14880
  40d3cc:	25730d0a 	addiu	s3,t3,3338
	...
  40d3e0:	25732573 	addiu	s3,t3,9587
  40d3e4:	256d0a00 	addiu	t5,t3,2560
  40d3e8:	3a200000 	xori	zero,s1,0x0
	...
  40d3fc:	00000001 	0x1
	...
  40d410:	00010203 	sra	zero,at,0x8
  40d414:	04050607 	0x4050607
  40d418:	08090a0b 	j	24282c <_stext-0x1bd7d8>
  40d41c:	0c0d0e0f 	jal	34383c <_stext-0xbc7c8>
  40d420:	10111213 	beq	zero,s1,411c70 <_ebss+0x2378>
  40d424:	14151617 	bne	zero,s5,412c84 <_ebss+0x338c>
  40d428:	18191a1b 	0x18191a1b
  40d42c:	1c1d1e1f 	0x1c1d1e1f
  40d430:	2021222d 	addi	at,at,8749
  40d434:	4e2e595d 	c3	0x2e595d
  40d438:	5a002324 	0x5a002324
  40d43c:	25262728 	addiu	a2,t1,10024
  40d440:	292a2b2c 	slti	t2,t1,11052
  40d444:	32333435 	andi	s3,s1,0x3435
  40d448:	3637003b 	ori	s7,s1,0x3b
  40d44c:	3c3d3e3f 	0x3c3d3e3f
  40d450:	40414243 	0x40414243
  40d454:	44454647 	0x44454647
  40d458:	4a494d4f 	c2	0x494d4f
  40d45c:	50515253 	0x50515253
  40d460:	54555657 	0x54555657
  40d464:	585b5c5e 	0x585b5c5e
  40d468:	5f606162 	0x5f606162
  40d46c:	6378797a 	0x6378797a
  40d470:	7b7c7d7e 	0x7b7c7d7e
  40d474:	7f808182 	0x7f808182
  40d478:	83848586 	lb	a0,-31354(gp)
  40d47c:	8f909192 	lw	s0,-28270(gp)
  40d480:	93949596 	lbu	s4,-27242(gp)
  40d484:	9787898a 	lhu	a3,-30326(gp)
  40d488:	8b8c009f 	lwl	t4,159(gp)
  40d48c:	a0380000 	sb	t8,0(at)
  40d490:	556e6b6e 	0x556e6b6e
  40d494:	6f776e20 	0x6f776e20
  40d498:	6572726f 	0x6572726f
  40d49c:	72200000 	0x72200000

0040d4a0 <_string_syserrmsgs>:
  40d4a0:	53756363 	0x53756363
  40d4a4:	65737300 	0x65737300
  40d4a8:	4f706572 	c3	0x1706572
  40d4ac:	6174696f 	0x6174696f
  40d4b0:	6e206e6f 	0x6e206e6f
  40d4b4:	74207065 	0x74207065
  40d4b8:	726d6974 	0x726d6974
  40d4bc:	74656400 	0x74656400
  40d4c0:	4e6f2073 	c3	0x6f2073
  40d4c4:	75636820 	0x75636820
  40d4c8:	66696c65 	0x66696c65
  40d4cc:	206f7220 	addi	t7,v1,29216
  40d4d0:	64697265 	0x64697265
  40d4d4:	63746f72 	0x63746f72
  40d4d8:	79004e6f 	0x79004e6f
  40d4dc:	20737563 	addi	s3,v1,30051
  40d4e0:	68207072 	0x68207072
  40d4e4:	6f636573 	0x6f636573
  40d4e8:	7300496e 	0x7300496e
  40d4ec:	74657272 	0x74657272
  40d4f0:	75707465 	0x75707465
  40d4f4:	64207379 	0x64207379
  40d4f8:	7374656d 	0x7374656d
  40d4fc:	2063616c 	addi	v1,v1,24940
  40d500:	6c00496e 	0x6c00496e
  40d504:	7075742f 	0x7075742f
  40d508:	6f757470 	0x6f757470
  40d50c:	75742065 	0x75742065
  40d510:	72726f72 	0x72726f72
  40d514:	004e6f20 	0x4e6f20
  40d518:	73756368 	0x73756368
  40d51c:	20646576 	addi	a0,v1,25974
  40d520:	69636520 	0x69636520
  40d524:	6f722061 	0x6f722061
  40d528:	64647265 	0x64647265
  40d52c:	73730041 	0x73730041
  40d530:	7267756d 	0x7267756d
  40d534:	656e7420 	0x656e7420
  40d538:	6c697374 	0x6c697374
  40d53c:	20746f6f 	addi	s4,v1,28527
  40d540:	206c6f6e 	addi	t4,v1,28526
  40d544:	67004578 	0x67004578
  40d548:	65632066 	0x65632066
  40d54c:	6f726d61 	0x6f726d61
  40d550:	74206572 	0x74206572
  40d554:	726f7200 	0x726f7200
  40d558:	42616420 	c0	0x616420
  40d55c:	66696c65 	0x66696c65
  40d560:	20646573 	addi	a0,v1,25971
  40d564:	63726970 	0x63726970
  40d568:	746f7200 	0x746f7200
  40d56c:	4e6f2063 	c3	0x6f2063
  40d570:	68696c64 	0x68696c64
  40d574:	2070726f 	addi	s0,v1,29295
  40d578:	63657373 	0x63657373
  40d57c:	65730052 	0x65730052
  40d580:	65736f75 	0x65736f75
  40d584:	72636520 	0x72636520
  40d588:	74656d70 	0x74656d70
  40d58c:	6f726172 	0x6f726172
  40d590:	696c7920 	0x696c7920
  40d594:	756e6176 	0x756e6176
  40d598:	61696c61 	0x61696c61
  40d59c:	626c6500 	0x626c6500
  40d5a0:	43616e6e 	c0	0x1616e6e
  40d5a4:	6f742061 	0x6f742061
  40d5a8:	6c6c6f63 	0x6c6c6f63
  40d5ac:	61746520 	0x61746520
  40d5b0:	6d656d6f 	0x6d656d6f
  40d5b4:	72790050 	0x72790050
  40d5b8:	65726d69 	0x65726d69
  40d5bc:	7373696f 	0x7373696f
  40d5c0:	6e206465 	0x6e206465
  40d5c4:	6e696564 	0x6e696564
  40d5c8:	00426164 	0x426164
  40d5cc:	20616464 	addi	at,v1,25700
  40d5d0:	72657373 	0x72657373
  40d5d4:	00426c6f 	0x426c6f
  40d5d8:	636b2064 	0x636b2064
  40d5dc:	65766963 	0x65766963
  40d5e0:	65207265 	0x65207265
  40d5e4:	71756972 	0x71756972
  40d5e8:	65640044 	0x65640044
  40d5ec:	65766963 	0x65766963
  40d5f0:	65206f72 	0x65206f72
  40d5f4:	20726573 	addi	s2,v1,25971
  40d5f8:	6f757263 	0x6f757263
  40d5fc:	65206275 	0x65206275
  40d600:	73790046 	0x73790046
  40d604:	696c6520 	0x696c6520
  40d608:	65786973 	0x65786973
  40d60c:	74730049 	0x74730049
  40d610:	6e76616c 	0x6e76616c
  40d614:	69642063 	0x69642063
  40d618:	726f7373 	0x726f7373
  40d61c:	2d646576 	sltiu	a0,t3,25974
  40d620:	69636520 	0x69636520
  40d624:	6c696e6b 	0x6c696e6b
  40d628:	004e6f20 	0x4e6f20
  40d62c:	73756368 	0x73756368
  40d630:	20646576 	addi	a0,v1,25974
  40d634:	69636500 	0x69636500
  40d638:	4e6f7420 	c3	0x6f7420
  40d63c:	61206469 	0x61206469
  40d640:	72656374 	0x72656374
  40d644:	6f727900 	0x6f727900
  40d648:	49732061 	0x49732061
  40d64c:	20646972 	addi	a0,v1,26994
  40d650:	6563746f 	0x6563746f
  40d654:	72790049 	0x72790049
  40d658:	6e76616c 	0x6e76616c
  40d65c:	69642061 	0x69642061
  40d660:	7267756d 	0x7267756d
  40d664:	656e7400 	0x656e7400
  40d668:	546f6f20 	0x546f6f20
  40d66c:	6d616e79 	0x6d616e79
  40d670:	206f7065 	addi	t7,v1,28773
  40d674:	6e206669 	0x6e206669
  40d678:	6c657320 	0x6c657320
  40d67c:	696e2073 	0x696e2073
  40d680:	79737465 	0x79737465
  40d684:	6d00546f 	0x6d00546f
  40d688:	6f206d61 	0x6f206d61
  40d68c:	6e79206f 	0x6e79206f
  40d690:	70656e20 	0x70656e20
  40d694:	66696c65 	0x66696c65
  40d698:	7300496e 	0x7300496e
  40d69c:	61707072 	0x61707072
  40d6a0:	6f707269 	0x6f707269
  40d6a4:	61746520 	0x61746520
  40d6a8:	696f6374 	0x696f6374
  40d6ac:	6c20666f 	0x6c20666f
  40d6b0:	72206465 	0x72206465
  40d6b4:	76696365 	0x76696365
  40d6b8:	00546578 	0x546578
  40d6bc:	74206669 	0x74206669
  40d6c0:	6c652062 	0x6c652062
  40d6c4:	75737900 	0x75737900
  40d6c8:	46696c65 	c1	0x696c65
  40d6cc:	20746f6f 	addi	s4,v1,28527
  40d6d0:	206c6172 	addi	t4,v1,24946
  40d6d4:	6765004e 	0x6765004e
  40d6d8:	6f207370 	0x6f207370
  40d6dc:	61636520 	0x61636520
  40d6e0:	6c656674 	0x6c656674
  40d6e4:	206f6e20 	addi	t7,v1,28192
  40d6e8:	64657669 	0x64657669
  40d6ec:	63650049 	0x63650049
  40d6f0:	6c6c6567 	0x6c6c6567
  40d6f4:	616c2073 	0x616c2073
  40d6f8:	65656b00 	0x65656b00
  40d6fc:	52656164 	0x52656164
  40d700:	2d6f6e6c 	sltiu	t7,t3,28268
  40d704:	79206669 	0x79206669
  40d708:	6c652073 	0x6c652073
  40d70c:	79737465 	0x79737465
  40d710:	6d00546f 	0x6d00546f
  40d714:	6f206d61 	0x6f206d61
  40d718:	6e79206c 	0x6e79206c
  40d71c:	696e6b73 	0x696e6b73
  40d720:	0042726f 	0x42726f
  40d724:	6b656e20 	0x6b656e20
  40d728:	70697065 	0x70697065
  40d72c:	004e756d 	0x4e756d
  40d730:	65726963 	0x65726963
  40d734:	616c2061 	0x616c2061
  40d738:	7267756d 	0x7267756d
  40d73c:	656e7420 	0x656e7420
  40d740:	6f757420 	0x6f757420
  40d744:	6f662064 	0x6f662064
  40d748:	6f6d6169 	0x6f6d6169
  40d74c:	6e004e75 	0x6e004e75
  40d750:	6d657269 	0x6d657269
  40d754:	63616c20 	0x63616c20
  40d758:	72657375 	0x72657375
  40d75c:	6c74206f 	0x6c74206f
  40d760:	7574206f 	0x7574206f
  40d764:	66207261 	0x66207261
  40d768:	6e676500 	0x6e676500
  40d76c:	5265736f 	0x5265736f
  40d770:	75726365 	0x75726365
  40d774:	20646561 	addi	a0,v1,25953
  40d778:	646c6f63 	0x646c6f63
  40d77c:	6b206176 	0x6b206176
  40d780:	6f696465 	0x6f696465
  40d784:	64004669 	0x64004669
  40d788:	6c65206e 	0x6c65206e
  40d78c:	616d6520 	0x616d6520
  40d790:	746f6f20 	0x746f6f20
  40d794:	6c6f6e67 	0x6c6f6e67
  40d798:	004e6f20 	0x4e6f20
  40d79c:	6c6f636b 	0x6c6f636b
  40d7a0:	73206176 	0x73206176
  40d7a4:	61696c61 	0x61696c61
  40d7a8:	626c6500 	0x626c6500
  40d7ac:	46756e63 	c1	0x756e63
  40d7b0:	74696f6e 	0x74696f6e
  40d7b4:	206e6f74 	addi	t6,v1,28532
  40d7b8:	20696d70 	addi	t1,v1,28016
  40d7bc:	6c656d65 	0x6c656d65
  40d7c0:	6e746564 	0x6e746564
  40d7c4:	00446972 	0x446972
  40d7c8:	6563746f 	0x6563746f
  40d7cc:	7279206e 	0x7279206e
  40d7d0:	6f742065 	0x6f742065
  40d7d4:	6d707479 	0x6d707479
  40d7d8:	00546f6f 	0x546f6f
  40d7dc:	206d616e 	addi	t5,v1,24942
  40d7e0:	79206c65 	0x79206c65
  40d7e4:	76656c73 	0x76656c73
  40d7e8:	206f6620 	addi	t7,v1,26144
  40d7ec:	73796d62 	0x73796d62
  40d7f0:	6f6c6963 	0x6f6c6963
  40d7f4:	206c696e 	addi	t4,v1,26990
  40d7f8:	6b730000 	0x6b730000
  40d7fc:	4e6f206d 	c3	0x6f206d
  40d800:	65737361 	0x65737361
  40d804:	6765206f 	0x6765206f
  40d808:	66206465 	0x66206465
  40d80c:	73697265 	0x73697265
  40d810:	64207479 	0x64207479
  40d814:	70650049 	0x70650049
  40d818:	64656e74 	0x64656e74
  40d81c:	69666965 	0x69666965
  40d820:	72207265 	0x72207265
  40d824:	6d6f7665 	0x6d6f7665
  40d828:	64004368 	0x64004368
  40d82c:	616e6e65 	0x616e6e65
  40d830:	6c206e75 	0x6c206e75
  40d834:	6d626572 	0x6d626572
  40d838:	206f7574 	addi	t7,v1,30068
  40d83c:	206f6620 	addi	t7,v1,26144
  40d840:	72616e67 	0x72616e67
  40d844:	65004c65 	0x65004c65
  40d848:	76656c20 	0x76656c20
  40d84c:	32206e6f 	andi	zero,s1,0x6e6f
  40d850:	74207379 	0x74207379
  40d854:	6e636872 	0x6e636872
  40d858:	6f6e697a 	0x6f6e697a
  40d85c:	6564004c 	0x6564004c
  40d860:	6576656c 	0x6576656c
  40d864:	20332068 	addi	s3,at,8296
  40d868:	616c7465 	0x616c7465
  40d86c:	64004c65 	0x64004c65
  40d870:	76656c20 	0x76656c20
  40d874:	33207265 	andi	zero,t9,0x7265
  40d878:	73657400 	0x73657400
  40d87c:	4c696e6b 	0x4c696e6b
  40d880:	206e756d 	addi	t6,v1,30061
  40d884:	62657220 	0x62657220
  40d888:	6f757420 	0x6f757420
  40d88c:	6f662072 	0x6f662072
  40d890:	616e6765 	0x616e6765
  40d894:	0050726f 	0x50726f
  40d898:	746f636f 	0x746f636f
  40d89c:	6c206472 	0x6c206472
  40d8a0:	69766572 	0x69766572
  40d8a4:	206e6f74 	addi	t6,v1,28532
  40d8a8:	20617474 	addi	at,v1,29812
  40d8ac:	61636865 	0x61636865
  40d8b0:	64004e6f 	0x64004e6f
  40d8b4:	20435349 	addi	v1,v0,21321
  40d8b8:	20737472 	addi	s3,v1,29810
  40d8bc:	75637475 	0x75637475
  40d8c0:	72652061 	0x72652061
  40d8c4:	7661696c 	0x7661696c
  40d8c8:	61626c65 	0x61626c65
  40d8cc:	004c6576 	0x4c6576
  40d8d0:	656c2032 	0x656c2032
  40d8d4:	2068616c 	addi	t0,v1,24940
  40d8d8:	74656400 	0x74656400
  40d8dc:	496e7661 	0x496e7661
  40d8e0:	6c696420 	0x6c696420
  40d8e4:	65786368 	0x65786368
  40d8e8:	616e6765 	0x616e6765
  40d8ec:	00496e76 	0x496e76
  40d8f0:	616c6964 	0x616c6964
  40d8f4:	20726571 	addi	s2,v1,25969
  40d8f8:	75657374 	0x75657374
  40d8fc:	20646573 	addi	a0,v1,25971
  40d900:	63726970 	0x63726970
  40d904:	746f7200 	0x746f7200
  40d908:	45786368 	0x45786368
  40d90c:	616e6765 	0x616e6765
  40d910:	2066756c 	addi	a2,v1,30060
  40d914:	6c004e6f 	0x6c004e6f
  40d918:	20616e6f 	addi	at,v1,28271
  40d91c:	64650049 	0x64650049
  40d920:	6e76616c 	0x6e76616c
  40d924:	69642072 	0x69642072
  40d928:	65717565 	0x65717565
  40d92c:	73742063 	0x73742063
  40d930:	6f646500 	0x6f646500
  40d934:	496e7661 	0x496e7661
  40d938:	6c696420 	0x6c696420
  40d93c:	736c6f74 	0x736c6f74
  40d940:	00004261 	0x4261
  40d944:	6420666f 	0x6420666f
  40d948:	6e742066 	0x6e742066
  40d94c:	696c6520 	0x696c6520
  40d950:	666f726d 	0x666f726d
  40d954:	61740044 	0x61740044
  40d958:	65766963 	0x65766963
  40d95c:	65206e6f 	0x65206e6f
  40d960:	74206120 	0x74206120
  40d964:	73747265 	0x73747265
  40d968:	616d004e 	0x616d004e
  40d96c:	6f206461 	0x6f206461
  40d970:	74612061 	0x74612061
  40d974:	7661696c 	0x7661696c
  40d978:	61626c65 	0x61626c65
  40d97c:	0054696d 	0x54696d
  40d980:	65722065 	0x65722065
  40d984:	78706972 	0x78706972
  40d988:	6564004f 	0x6564004f
  40d98c:	7574206f 	0x7574206f
  40d990:	66207374 	0x66207374
  40d994:	7265616d 	0x7265616d
  40d998:	73207265 	0x73207265
  40d99c:	736f7572 	0x736f7572
  40d9a0:	63657300 	0x63657300
  40d9a4:	4d616368 	0x4d616368
  40d9a8:	696e6520 	0x696e6520
  40d9ac:	6973206e 	0x6973206e
  40d9b0:	6f74206f 	0x6f74206f
  40d9b4:	6e207468 	0x6e207468
  40d9b8:	65206e65 	0x65206e65
  40d9bc:	74776f72 	0x74776f72
  40d9c0:	6b005061 	0x6b005061
  40d9c4:	636b6167 	0x636b6167
  40d9c8:	65206e6f 	0x65206e6f
  40d9cc:	7420696e 	0x7420696e
  40d9d0:	7374616c 	0x7374616c
  40d9d4:	6c656400 	0x6c656400
  40d9d8:	4f626a65 	c3	0x1626a65
  40d9dc:	63742069 	0x63742069
  40d9e0:	73207265 	0x73207265
  40d9e4:	6d6f7465 	0x6d6f7465
  40d9e8:	004c696e 	0x4c696e
  40d9ec:	6b206861 	0x6b206861
  40d9f0:	73206265 	0x73206265
  40d9f4:	656e2073 	0x656e2073
  40d9f8:	65766572 	0x65766572
  40d9fc:	65640041 	0x65640041
  40da00:	64766572 	0x64766572
  40da04:	74697365 	0x74697365
  40da08:	20657272 	addi	a1,v1,29298
  40da0c:	6f720053 	0x6f720053
  40da10:	726d6f75 	0x726d6f75
  40da14:	6e742065 	0x6e742065
  40da18:	72726f72 	0x72726f72
  40da1c:	00436f6d 	0x436f6d
  40da20:	6d756e69 	0x6d756e69
  40da24:	63617469 	0x63617469
  40da28:	6f6e2065 	0x6f6e2065
  40da2c:	72726f72 	0x72726f72
  40da30:	206f6e20 	addi	t7,v1,28192
  40da34:	73656e64 	0x73656e64
  40da38:	0050726f 	0x50726f
  40da3c:	746f636f 	0x746f636f
  40da40:	6c206572 	0x6c206572
  40da44:	726f7200 	0x726f7200
  40da48:	4d756c74 	0x4d756c74
  40da4c:	69686f70 	0x69686f70
  40da50:	20617474 	addi	at,v1,29812
  40da54:	656d7074 	0x656d7074
  40da58:	65640052 	0x65640052
  40da5c:	46532073 	c1	0x532073
  40da60:	70656369 	0x70656369
  40da64:	66696320 	0x66696320
  40da68:	6572726f 	0x6572726f
  40da6c:	72004261 	0x72004261
  40da70:	64206d65 	0x64206d65
  40da74:	73736167 	0x73736167
  40da78:	65005661 	0x65005661
  40da7c:	6c756520 	0x6c756520
  40da80:	746f6f20 	0x746f6f20
  40da84:	6c617267 	0x6c617267
  40da88:	6520666f 	0x6520666f
  40da8c:	72206465 	0x72206465
  40da90:	66696e65 	0x66696e65
  40da94:	64206461 	0x64206461
  40da98:	74612074 	0x74612074
  40da9c:	79706500 	0x79706500
  40daa0:	4e616d65 	c3	0x616d65
  40daa4:	206e6f74 	addi	t6,v1,28532
  40daa8:	20756e69 	addi	s5,v1,28265
  40daac:	71756520 	0x71756520
  40dab0:	6f6e206e 	0x6f6e206e
  40dab4:	6574776f 	0x6574776f
  40dab8:	726b0046 	0x726b0046
  40dabc:	696c6520 	0x696c6520
  40dac0:	64657363 	0x64657363
  40dac4:	72697074 	0x72697074
  40dac8:	6f722069 	0x6f722069
  40dacc:	6e206261 	0x6e206261
  40dad0:	64207374 	0x64207374
  40dad4:	61746500 	0x61746500
  40dad8:	52656d6f 	0x52656d6f
  40dadc:	74652061 	0x74652061
  40dae0:	64647265 	0x64647265
  40dae4:	73732063 	0x73732063
  40dae8:	68616e67 	0x68616e67
  40daec:	65640043 	0x65640043
  40daf0:	616e206e 	0x616e206e
  40daf4:	6f742061 	0x6f742061
  40daf8:	63636573 	0x63636573
  40dafc:	73206120 	0x73206120
  40db00:	6e656564 	0x6e656564
  40db04:	65642073 	0x65642073
  40db08:	68617265 	0x68617265
  40db0c:	64206c69 	0x64206c69
  40db10:	62726172 	0x62726172
  40db14:	79004163 	0x79004163
  40db18:	63657373 	0x63657373
  40db1c:	696e6720 	0x696e6720
  40db20:	6120636f 	0x6120636f
  40db24:	72727570 	0x72727570
  40db28:	74656420 	0x74656420
  40db2c:	73686172 	0x73686172
  40db30:	6564206c 	0x6564206c
  40db34:	69627261 	0x69627261
  40db38:	7279002e 	0x7279002e
  40db3c:	6c696220 	0x6c696220
  40db40:	73656374 	0x73656374
  40db44:	696f6e20 	0x696f6e20
  40db48:	696e2061 	0x696e2061
  40db4c:	2e6f7574 	sltiu	t7,s3,30068
  40db50:	20636f72 	addi	v1,v1,28530
  40db54:	72757074 	0x72757074
  40db58:	65640041 	0x65640041
  40db5c:	7474656d 	0x7474656d
  40db60:	7074696e 	0x7074696e
  40db64:	6720746f 	0x6720746f
  40db68:	206c696e 	addi	t4,v1,26990
  40db6c:	6b20696e 	0x6b20696e
  40db70:	20746f6f 	addi	s4,v1,28527
  40db74:	206d616e 	addi	t5,v1,24942
  40db78:	79207368 	0x79207368
  40db7c:	61726564 	0x61726564
  40db80:	206c6962 	addi	t4,v1,26978
  40db84:	72617269 	0x72617269
  40db88:	65730043 	0x65730043
  40db8c:	616e6e6f 	0x616e6e6f
  40db90:	74206578 	0x74206578
  40db94:	65632061 	0x65632061
  40db98:	20736861 	addi	s3,v1,26721
  40db9c:	72656420 	0x72656420
  40dba0:	6c696272 	0x6c696272
  40dba4:	61727920 	0x61727920
  40dba8:	64697265 	0x64697265
  40dbac:	63746c79 	0x63746c79
  40dbb0:	00496e76 	0x496e76
  40dbb4:	616c6964 	0x616c6964
  40dbb8:	206f7220 	addi	t7,v1,29216
  40dbbc:	696e636f 	0x696e636f
  40dbc0:	6d706c65 	0x6d706c65
  40dbc4:	7465206d 	0x7465206d
  40dbc8:	756c7469 	0x756c7469
  40dbcc:	62797465 	0x62797465
  40dbd0:	206f7220 	addi	t7,v1,29216
  40dbd4:	77696465 	0x77696465
  40dbd8:	20636861 	addi	v1,v1,26721
  40dbdc:	72616374 	0x72616374
  40dbe0:	65720049 	0x65720049
  40dbe4:	6e746572 	0x6e746572
  40dbe8:	72757074 	0x72757074
  40dbec:	65642073 	0x65642073
  40dbf0:	79737465 	0x79737465
  40dbf4:	6d206361 	0x6d206361
  40dbf8:	6c6c2073 	0x6c6c2073
  40dbfc:	686f756c 	0x686f756c
  40dc00:	64206265 	0x64206265
  40dc04:	20726573 	addi	s2,v1,25971
  40dc08:	74617274 	0x74617274
  40dc0c:	65640053 	0x65640053
  40dc10:	74726561 	0x74726561
  40dc14:	6d732070 	0x6d732070
  40dc18:	69706520 	0x69706520
  40dc1c:	6572726f 	0x6572726f
  40dc20:	7200546f 	0x7200546f
  40dc24:	6f206d61 	0x6f206d61
  40dc28:	6e792075 	0x6e792075
  40dc2c:	73657273 	0x73657273
  40dc30:	00536f63 	0x536f63
  40dc34:	6b657420 	0x6b657420
  40dc38:	6f706572 	0x6f706572
  40dc3c:	6174696f 	0x6174696f
  40dc40:	6e206f6e 	0x6e206f6e
  40dc44:	206e6f6e 	addi	t6,v1,28526
  40dc48:	2d736f63 	sltiu	s3,t3,28515
  40dc4c:	6b657400 	0x6b657400
  40dc50:	44657374 	0x44657374
  40dc54:	696e6174 	0x696e6174
  40dc58:	696f6e20 	0x696f6e20
  40dc5c:	61646472 	0x61646472
  40dc60:	65737320 	0x65737320
  40dc64:	72657175 	0x72657175
  40dc68:	69726564 	0x69726564
  40dc6c:	004d6573 	0x4d6573
  40dc70:	73616765 	0x73616765
  40dc74:	20746f6f 	addi	s4,v1,28527
  40dc78:	206c6f6e 	addi	t4,v1,28526
  40dc7c:	67005072 	0x67005072
  40dc80:	6f746f63 	0x6f746f63
  40dc84:	6f6c2077 	0x6f6c2077
  40dc88:	726f6e67 	0x726f6e67
  40dc8c:	20747970 	addi	s4,v1,31088
  40dc90:	6520666f 	0x6520666f
  40dc94:	7220736f 	0x7220736f
  40dc98:	636b6574 	0x636b6574
  40dc9c:	0050726f 	0x50726f
  40dca0:	746f636f 	0x746f636f
  40dca4:	6c206e6f 	0x6c206e6f
  40dca8:	74206176 	0x74206176
  40dcac:	61696c61 	0x61696c61
  40dcb0:	626c6500 	0x626c6500
  40dcb4:	50726f74 	0x50726f74
  40dcb8:	6f636f6c 	0x6f636f6c
  40dcbc:	206e6f74 	addi	t6,v1,28532
  40dcc0:	20737570 	addi	s3,v1,30064
  40dcc4:	706f7274 	0x706f7274
  40dcc8:	65640053 	0x65640053
  40dccc:	6f636b65 	0x6f636b65
  40dcd0:	74207479 	0x74207479
  40dcd4:	7065206e 	0x7065206e
  40dcd8:	6f742073 	0x6f742073
  40dcdc:	7570706f 	0x7570706f
  40dce0:	72746564 	0x72746564
  40dce4:	004f7065 	0x4f7065
  40dce8:	72617469 	0x72617469
  40dcec:	6f6e206e 	0x6f6e206e
  40dcf0:	6f742073 	0x6f742073
  40dcf4:	7570706f 	0x7570706f
  40dcf8:	72746564 	0x72746564
  40dcfc:	0050726f 	0x50726f
  40dd00:	746f636f 	0x746f636f
  40dd04:	6c206661 	0x6c206661
  40dd08:	6d696c79 	0x6d696c79
  40dd0c:	206e6f74 	addi	t6,v1,28532
  40dd10:	20737570 	addi	s3,v1,30064
  40dd14:	706f7274 	0x706f7274
  40dd18:	65640041 	0x65640041
  40dd1c:	64647265 	0x64647265
  40dd20:	73732066 	0x73732066
  40dd24:	616d696c 	0x616d696c
  40dd28:	79206e6f 	0x79206e6f
  40dd2c:	74207375 	0x74207375
  40dd30:	70706f72 	0x70706f72
  40dd34:	74656420 	0x74656420
  40dd38:	62792070 	0x62792070
  40dd3c:	726f746f 	0x726f746f
  40dd40:	636f6c00 	0x636f6c00
  40dd44:	41646472 	0x41646472
  40dd48:	65737320 	0x65737320
  40dd4c:	616c7265 	0x616c7265
  40dd50:	61647920 	0x61647920
  40dd54:	696e2075 	0x696e2075
  40dd58:	73650043 	0x73650043
  40dd5c:	616e6e6f 	0x616e6e6f
  40dd60:	74206173 	0x74206173
  40dd64:	7369676e 	0x7369676e
  40dd68:	20726571 	addi	s2,v1,25969
  40dd6c:	75657374 	0x75657374
  40dd70:	65642061 	0x65642061
  40dd74:	64647265 	0x64647265
  40dd78:	7373004e 	0x7373004e
  40dd7c:	6574776f 	0x6574776f
  40dd80:	726b2069 	0x726b2069
  40dd84:	7320646f 	0x7320646f
  40dd88:	776e004e 	0x776e004e
  40dd8c:	6574776f 	0x6574776f
  40dd90:	726b2069 	0x726b2069
  40dd94:	7320756e 	0x7320756e
  40dd98:	72656163 	0x72656163
  40dd9c:	6861626c 	0x6861626c
  40dda0:	65004e65 	0x65004e65
  40dda4:	74776f72 	0x74776f72
  40dda8:	6b206472 	0x6b206472
  40ddac:	6f707065 	0x6f707065
  40ddb0:	6420636f 	0x6420636f
  40ddb4:	6e6e6563 	0x6e6e6563
  40ddb8:	74696f6e 	0x74696f6e
  40ddbc:	206f6e20 	addi	t7,v1,28192
  40ddc0:	72657365 	0x72657365
  40ddc4:	7400536f 	0x7400536f
  40ddc8:	66747761 	0x66747761
  40ddcc:	72652063 	0x72652063
  40ddd0:	61757365 	0x61757365
  40ddd4:	6420636f 	0x6420636f
  40ddd8:	6e6e6563 	0x6e6e6563
  40dddc:	74696f6e 	0x74696f6e
  40dde0:	2061626f 	addi	at,v1,25199
  40dde4:	72740043 	0x72740043
  40dde8:	6f6e6e65 	0x6f6e6e65
  40ddec:	6374696f 	0x6374696f
  40ddf0:	6e207265 	0x6e207265
  40ddf4:	73657420 	0x73657420
  40ddf8:	62792070 	0x62792070
  40ddfc:	65657200 	0x65657200
  40de00:	4e6f2062 	c3	0x6f2062
  40de04:	75666665 	0x75666665
  40de08:	72207370 	0x72207370
  40de0c:	61636520 	0x61636520
  40de10:	61766169 	0x61766169
  40de14:	6c61626c 	0x6c61626c
  40de18:	65005472 	0x65005472
  40de1c:	616e7370 	0x616e7370
  40de20:	6f727420 	0x6f727420
  40de24:	656e6470 	0x656e6470
  40de28:	6f696e74 	0x6f696e74
  40de2c:	20697320 	addi	t1,v1,29472
  40de30:	616c7265 	0x616c7265
  40de34:	61647920 	0x61647920
  40de38:	636f6e6e 	0x636f6e6e
  40de3c:	65637465 	0x65637465
  40de40:	64005472 	0x64005472
  40de44:	616e7370 	0x616e7370
  40de48:	6f727420 	0x6f727420
  40de4c:	656e6470 	0x656e6470
  40de50:	6f696e74 	0x6f696e74
  40de54:	20697320 	addi	t1,v1,29472
  40de58:	6e6f7420 	0x6e6f7420
  40de5c:	636f6e6e 	0x636f6e6e
  40de60:	65637465 	0x65637465
  40de64:	64004361 	0x64004361
  40de68:	6e6e6f74 	0x6e6e6f74
  40de6c:	2073656e 	addi	s3,v1,25966
  40de70:	64206166 	0x64206166
  40de74:	74657220 	0x74657220
  40de78:	7472616e 	0x7472616e
  40de7c:	73706f72 	0x73706f72
  40de80:	7420656e 	0x7420656e
  40de84:	64706f69 	0x64706f69
  40de88:	6e742073 	0x6e742073
  40de8c:	68757464 	0x68757464
  40de90:	6f776e00 	0x6f776e00
  40de94:	546f6f20 	0x546f6f20
  40de98:	6d616e79 	0x6d616e79
  40de9c:	20726566 	addi	s2,v1,25958
  40dea0:	6572656e 	0x6572656e
  40dea4:	6365733a 	0x6365733a
  40dea8:	2063616e 	addi	v1,v1,24942
  40deac:	6e6f7420 	0x6e6f7420
  40deb0:	73706c69 	0x73706c69
  40deb4:	63650043 	0x63650043
  40deb8:	6f6e6e65 	0x6f6e6e65
  40debc:	6374696f 	0x6374696f
  40dec0:	6e207469 	0x6e207469
  40dec4:	6d656420 	0x6d656420
  40dec8:	6f757400 	0x6f757400
  40decc:	436f6e6e 	c0	0x16f6e6e
  40ded0:	65637469 	0x65637469
  40ded4:	6f6e2072 	0x6f6e2072
  40ded8:	65667573 	0x65667573
  40dedc:	65640048 	0x65640048
  40dee0:	6f737420 	0x6f737420
  40dee4:	69732064 	0x69732064
  40dee8:	6f776e00 	0x6f776e00
  40deec:	4e6f2072 	c3	0x6f2072
  40def0:	6f757465 	0x6f757465
  40def4:	20746f20 	addi	s4,v1,28448
  40def8:	686f7374 	0x686f7374
  40defc:	004f7065 	0x4f7065
  40df00:	72617469 	0x72617469
  40df04:	6f6e2061 	0x6f6e2061
  40df08:	6c726561 	0x6c726561
  40df0c:	64792069 	0x64792069
  40df10:	6e207072 	0x6e207072
  40df14:	6f677265 	0x6f677265
  40df18:	7373004f 	0x7373004f
  40df1c:	70657261 	0x70657261
  40df20:	74696f6e 	0x74696f6e
  40df24:	206e6f77 	addi	t6,v1,28535
  40df28:	20696e20 	addi	t1,v1,28192
  40df2c:	70726f67 	0x70726f67
  40df30:	72657373 	0x72657373
  40df34:	00537461 	0x537461
  40df38:	6c65204e 	0x6c65204e
  40df3c:	46532066 	c1	0x532066
  40df40:	696c6520 	0x696c6520
  40df44:	68616e64 	0x68616e64
  40df48:	6c650053 	0x6c650053
  40df4c:	74727563 	0x74727563
  40df50:	74757265 	0x74757265
  40df54:	206e6565 	addi	t6,v1,25957
  40df58:	64732063 	0x64732063
  40df5c:	6c65616e 	0x6c65616e
  40df60:	696e6700 	0x696e6700
  40df64:	4e6f7420 	c3	0x6f7420
  40df68:	61205845 	0x61205845
  40df6c:	4e495820 	c3	0x495820
  40df70:	6e616d65 	0x6e616d65
  40df74:	64207479 	0x64207479
  40df78:	70652066 	0x70652066
  40df7c:	696c6500 	0x696c6500
  40df80:	4e6f2058 	c3	0x6f2058
  40df84:	454e4958 	0x454e4958
  40df88:	2073656d 	addi	s3,v1,25965
  40df8c:	6170686f 	0x6170686f
  40df90:	72657320 	0x72657320
  40df94:	61766169 	0x61766169
  40df98:	6c61626c 	0x6c61626c
  40df9c:	65004973 	0x65004973
  40dfa0:	2061206e 	addi	at,v1,8302
  40dfa4:	616d6564 	0x616d6564
  40dfa8:	20747970 	addi	s4,v1,31088
  40dfac:	65206669 	0x65206669
  40dfb0:	6c650052 	0x6c650052
  40dfb4:	656d6f74 	0x656d6f74
  40dfb8:	6520492f 	0x6520492f
  40dfbc:	4f206572 	c3	0x1206572
  40dfc0:	726f7200 	0x726f7200
  40dfc4:	4469736b 	0x4469736b
  40dfc8:	2071756f 	addi	s1,v1,30063
  40dfcc:	74612065 	0x74612065
  40dfd0:	78636565 	0x78636565
  40dfd4:	64656400 	0x64656400
  40dfd8:	4e6f206d 	c3	0x6f206d
  40dfdc:	65646975 	0x65646975
  40dfe0:	6d20666f 	0x6d20666f
  40dfe4:	756e6400 	0x756e6400
  40dfe8:	57726f6e 	0x57726f6e
  40dfec:	67206d65 	0x67206d65
  40dff0:	6469756d 	0x6469756d
  40dff4:	20747970 	addi	s4,v1,31088
  40dff8:	65004669 	0x65004669
  40dffc:	6c65206c 	0x6c65206c
  40e000:	6f636b69 	0x6f636b69
  40e004:	6e672064 	0x6e672064
  40e008:	6561646c 	0x6561646c
  40e00c:	6f636b20 	0x6f636b20
  40e010:	6572726f 	0x6572726f
  40e014:	72000000 	0x72000000
	...
  40e020:	50415448 	0x50415448
  40e024:	00000000 	nop
  40e028:	2f000000 	sltiu	zero,t8,0
  40e02c:	2f62696e 	sltiu	v0,k1,26990
  40e030:	3a2f7573 	xori	t7,s1,0x7573
  40e034:	722f6269 	0x722f6269
  40e038:	6e000000 	0x6e000000
  40e03c:	00000000 	nop
  40e040:	00080005 	0x80005
  40e044:	00030004 	sllv	zero,v1,zero
  40e048:	00010200 	sll	zero,at,0x8
  40e04c:	00000400 	sll	zero,zero,0x10
  40e050:	08000002 	j	8 <_stext-0x3ffffc>
  40e054:	00070807 	srav	at,a3,zero
  40e058:	00010101 	0x10101
  40e05c:	04020101 	0x4020101
  40e060:	01010101 	0x1010101
  40e064:	202b302d 	addi	t3,at,12333
  40e068:	23274900 	addi	a3,t9,18688
  40e06c:	6e707858 	0x6e707858
  40e070:	6f756469 	0x6f756469
  40e074:	66466545 	0x66466545
  40e078:	67476141 	0x67476141
  40e07c:	43536373 	c0	0x1536373
  40e080:	00000000 	nop
  40e084:	0001070f 	0x1070f
  40e088:	10111213 	beq	zero,s1,4128d8 <_ebss+0x2fe0>
  40e08c:	15000000 	bnez	t0,40e090 <_string_syserrmsgs+0xbf0>
  40e090:	10000005 	b	40e0a8 <_string_syserrmsgs+0xc08>
  40e094:	00000007 	srav	zero,zero,zero
  40e098:	00020004 	sllv	zero,v0,zero
  40e09c:	00010003 	sra	zero,at,0x0
  40e0a0:	1f000005 	bgtz	t8,40e0b8 <_string_syserrmsgs+0xc18>
  40e0a4:	0f000807 	jal	c00201c <_ebss+0xbbf2724>
  40e0a8:	00020004 	sllv	zero,v0,zero
  40e0ac:	00010003 	sra	zero,at,0x0
  40e0b0:	686c4c6a 	0x686c4c6a
  40e0b4:	7a74715a 	0x7a74715a
  40e0b8:	00020408 	0x20408
  40e0bc:	08000008 	j	20 <_stext-0x3fffe4>
  40e0c0:	00000108 	0x108
	...
  40e0d0:	10101008 	beq	zero,s0,4120f4 <_ebss+0x27fc>
  40e0d4:	0a0a0a00 	j	8282800 <_ebss+0x7e72f08>
  40e0d8:	2b002d00 	slti	zero,t8,11520
  40e0dc:	20003078 	addi	zero,zero,12408
  40e0e0:	00305800 	0x305800
  40e0e4:	286e696c 	slti	t6,v1,26988
  40e0e8:	29000000 	slti	zero,t0,0
  40e0ec:	286e756c 	slti	t6,v1,30060
  40e0f0:	6c290000 	0x6c290000
	...
  40e100:	25302a64 	addiu	s0,t1,10852
  40e104:	00000000 	nop
  40e108:	252e2a73 	addiu	t6,t1,10867
  40e10c:	00000000 	nop
  40e110:	2e000000 	sltiu	zero,s0,0
  40e114:	696e6600 	0x696e6600
  40e118:	494e4600 	0x494e4600
  40e11c:	6e616e00 	0x6e616e00
  40e120:	4e414e00 	c3	0x414e00
  40e124:	252a7300 	addiu	t2,t1,29440
  40e128:	00000000 	nop
  40e12c:	252e2a64 	addiu	t6,t1,10852
  40e130:	00000000 	nop
  40e134:	2563252b 	addiu	v1,t3,9515
  40e138:	2e326400 	sltiu	s2,s1,25600
  40e13c:	00000000 	nop
  40e140:	4197d784 	0x4197d784
  40e144:	00000000 	nop
  40e148:	41cdcd65 	0x41cdcd65
  40e14c:	00000000 	nop
  40e150:	41cdcd65 	0x41cdcd65
  40e154:	00000000 	nop
  40e158:	41cdcd65 	0x41cdcd65
  40e15c:	00000000 	nop
  40e160:	4197d784 	0x4197d784
	...

0040e170 <__thenan_df>:
	...

0040e190 <copyright>:
  40e190:	40282329 	0x40282329
  40e194:	20436f70 	addi	v1,v0,28528
  40e198:	79726967 	0x79726967
  40e19c:	68742028 	0x68742028
  40e1a0:	63292031 	0x63292031
  40e1a4:	39383920 	xori	t8,t1,0x3920
  40e1a8:	52656765 	0x52656765
  40e1ac:	6e747320 	0x6e747320
  40e1b0:	6f662074 	0x6f662074
  40e1b4:	68652055 	0x68652055
  40e1b8:	6e697665 	0x6e697665
  40e1bc:	72736974 	0x72736974
  40e1c0:	79206f66 	0x79206f66
  40e1c4:	2043616c 	addi	v1,v0,24940
  40e1c8:	69666f72 	0x69666f72
  40e1cc:	6e69612e 	0x6e69612e
  40e1d0:	0a416c6c 	j	905b1b0 <_ebss+0x8c4b8b8>
  40e1d4:	20726967 	addi	s2,v1,26983
  40e1d8:	68747320 	0x68747320
  40e1dc:	72657365 	0x72657365
  40e1e0:	72766564 	0x72766564
  40e1e4:	2e0a0000 	sltiu	t2,s0,0

0040e1e8 <telnetd_rcsid>:
  40e1e8:	244f7269 	addiu	t7,v0,29289
  40e1ec:	67696e61 	0x67696e61
  40e1f0:	6c2d4964 	0x6c2d4964
  40e1f4:	3a207465 	xori	zero,s1,0x7465
  40e1f8:	6c6e6574 	0x6c6e6574
  40e1fc:	642e632c 	0x642e632c
  40e200:	7620312e 	0x7620312e
  40e204:	39203139 	xori	zero,t1,0x3139
  40e208:	39362f31 	xori	s6,t1,0x2f31
  40e20c:	322f3239 	andi	t7,s1,0x3239
  40e210:	2031383a 	addi	s1,at,14394
  40e214:	31363a33 	andi	s6,t1,0x3a33
  40e218:	33206468 	andi	zero,t9,0x6468
  40e21c:	6f6c6c61 	0x6f6c6c61
  40e220:	6e642045 	0x6e642045
  40e224:	78702024 	0x78702024
  40e228:	00000000 	nop

0040e22c <ptyip>:
  40e22c:	0040eb60 	0x40eb60

0040e230 <hostinfo>:
  40e230:	00000001 	0x1

0040e234 <debug>:
  40e234:	00000000 	nop

0040e238 <keepalive>:
  40e238:	00000001 	0x1

0040e23c <loginprg>:
  40e23c:	0040cf10 	0x40cf10

0040e240 <ttytype_sbbuf>:
  40e240:	fffa1801 	0xfffa1801
  40e244:	fff00000 	0xfff00000

0040e248 <sbbuf.0>:
  40e248:	fffa2001 	0xfffa2001
  40e24c:	fff00000 	0xfff00000

0040e250 <sbbuf.1>:
  40e250:	fffa2301 	0xfffa2301
  40e254:	fff00000 	0xfff00000

0040e258 <sbbuf.2>:
  40e258:	fffa2701 	0xfffa2701
  40e25c:	fff00000 	0xfff00000

0040e260 <state_rcsid>:
  40e260:	2449643a 	addiu	t1,v0,25658
  40e264:	20737461 	addi	s3,v1,29793
  40e268:	74652e63 	0x74652e63
  40e26c:	2c762031 	sltiu	s6,v1,8241
  40e270:	2e312e31 	sltiu	s1,s1,11825
  40e274:	2e312031 	sltiu	s1,s1,8241
  40e278:	3939392f 	xori	t9,t1,0x392f
  40e27c:	31312f32 	andi	s1,t1,0x2f32
  40e280:	32203033 	andi	zero,s1,0x3033
  40e284:	3a34373a 	xori	s4,s1,0x373a
  40e288:	35372063 	ori	s7,t1,0x2063
  40e28c:	68726973 	0x68726973
  40e290:	74204578 	0x74204578
  40e294:	70202400 	0x70202400

0040e298 <not42>:
  40e298:	00000001 	0x1

0040e29c <doopt>:
  40e29c:	fffd2563 	0xfffd2563
  40e2a0:	00000000 	nop

0040e2a4 <dont>:
  40e2a4:	fffe2563 	0xfffe2563
  40e2a8:	00000000 	nop

0040e2ac <will>:
  40e2ac:	fffb2563 	0xfffb2563
  40e2b0:	00000000 	nop

0040e2b4 <wont>:
  40e2b4:	fffc2563 	0xfffc2563
  40e2b8:	00000000 	nop

0040e2bc <subpointer>:
  40e2bc:	0040eca0 	0x40eca0

0040e2c0 <subend>:
  40e2c0:	0040eca0 	0x40eca0

0040e2c4 <state.0>:
  40e2c4:	00000000 	nop

0040e2c8 <turn_on_sga>:
	...

0040e2d0 <termstat_rcsid>:
  40e2d0:	2449643a 	addiu	t1,v0,25658
  40e2d4:	20746572 	addi	s4,v1,25970
  40e2d8:	6d737461 	0x6d737461
  40e2dc:	742e632c 	0x742e632c
  40e2e0:	7620312e 	0x7620312e
  40e2e4:	312e312e 	andi	t6,t1,0x312e
  40e2e8:	31203139 	andi	zero,t1,0x3139
  40e2ec:	39392f31 	xori	t9,t1,0x2f31
  40e2f0:	312f3232 	andi	t7,t1,0x3232
  40e2f4:	2030333a 	addi	s0,at,13114
  40e2f8:	34373a35 	ori	s7,at,0x3a35
  40e2fc:	38206368 	xori	zero,at,0x6368
  40e300:	72697374 	0x72697374
  40e304:	20457870 	addi	a1,v0,30832
  40e308:	20240000 	addi	a0,at,0

0040e30c <def_tspeed>:
  40e30c:	ffffffff 	0xffffffff

0040e310 <def_rspeed>:
  40e310:	ffffffff 	0xffffffff

0040e314 <def_row>:
  40e314:	00000000 	nop

0040e318 <def_col>:
	...

0040e320 <slc_rcsid>:
  40e320:	2449643a 	addiu	t1,v0,25658
  40e324:	20736c63 	addi	s3,v1,27747
  40e328:	2e632c76 	sltiu	v1,s3,11382
  40e32c:	20312e31 	addi	s1,at,11825
  40e330:	2e312e31 	sltiu	s1,s1,11825
  40e334:	20313939 	addi	s1,at,14649
  40e338:	392f3131 	xori	t7,t1,0x3131
  40e33c:	2f323220 	sltiu	s2,t9,12832
  40e340:	30333a34 	andi	s3,at,0x3a34
  40e344:	373a3537 	ori	k0,t9,0x3537
  40e348:	20636872 	addi	v1,v1,26738
  40e34c:	69737420 	0x69737420
  40e350:	45787020 	0x45787020
  40e354:	24000000 	li	zero,0
	...

0040e360 <st_rcsid>:
  40e360:	2449643a 	addiu	t1,v0,25658
  40e364:	20737973 	addi	s3,v1,31091
  40e368:	5f746572 	0x5f746572
  40e36c:	6d2e632c 	0x6d2e632c
  40e370:	7620312e 	0x7620312e
  40e374:	33203230 	andi	zero,t9,0x3230
  40e378:	30322f31 	andi	s2,at,0x2f31
  40e37c:	302f3234 	andi	t7,at,0x3234
  40e380:	2030333a 	addi	s0,at,13114
  40e384:	33313a30 	andi	s1,t9,0x3a30
  40e388:	37207064 	ori	zero,t9,0x7064
  40e38c:	68204578 	0x68204578
  40e390:	70202400 	0x70202400

0040e394 <wtmpf>:
  40e394:	2f766172 	sltiu	s6,k1,24946
  40e398:	2f6c6f67 	sltiu	t4,k1,28519
  40e39c:	2f77746d 	sltiu	s7,k1,29805
  40e3a0:	70000000 	0x70000000

0040e3a4 <Xline>:
	...

0040e3b8 <line>:
  40e3b8:	00000000 	nop

0040e3bc <termspeeds>:
	...
  40e3c4:	00000032 	0x32
  40e3c8:	00000001 	0x1
  40e3cc:	0000004b 	0x4b
  40e3d0:	00000002 	srl	zero,zero,0x0
  40e3d4:	0000006e 	0x6e
  40e3d8:	00000003 	sra	zero,zero,0x0
  40e3dc:	00000086 	0x86
  40e3e0:	00000004 	sllv	zero,zero,zero
  40e3e4:	00000096 	0x96
  40e3e8:	00000005 	0x5
  40e3ec:	000000c8 	0xc8
  40e3f0:	00000006 	srlv	zero,zero,zero
  40e3f4:	0000012c 	0x12c
  40e3f8:	00000007 	srav	zero,zero,zero
  40e3fc:	00000258 	0x258
  40e400:	00000008 	jr	zero
  40e404:	000004b0 	0x4b0
  40e408:	00000009 	jalr	zero,zero
  40e40c:	00000708 	0x708
  40e410:	0000000a 	0xa
  40e414:	00000960 	0x960
  40e418:	0000000b 	0xb
  40e41c:	000012c0 	sll	v0,zero,0xb
  40e420:	0000000c 	syscall
  40e424:	00002580 	sll	a0,zero,0x16
  40e428:	0000000d 	break
  40e42c:	00004b00 	sll	t1,zero,0xc
  40e430:	0000000d 	break
  40e434:	00009600 	sll	s2,zero,0x18
  40e438:	0000000d 	break
  40e43c:	ffffffff 	0xffffffff
  40e440:	0000000d 	break
	...

0040e450 <util_rcsid>:
  40e450:	2449643a 	addiu	t1,v0,25658
  40e454:	20757469 	addi	s5,v1,29801
  40e458:	6c697479 	0x6c697479
  40e45c:	2e632c76 	sltiu	v1,s3,11382
  40e460:	20312e31 	addi	s1,at,11825
  40e464:	2e312e31 	sltiu	s1,s1,11825
  40e468:	20313939 	addi	s1,at,14649
  40e46c:	392f3131 	xori	t7,t1,0x3131
  40e470:	2f323220 	sltiu	s2,t9,12832
  40e474:	30333a34 	andi	s3,at,0x3a34
  40e478:	373a3538 	ori	k0,t9,0x3538
  40e47c:	20636872 	addi	v1,v1,26738
  40e480:	69737420 	0x69737420
  40e484:	45787020 	0x45787020
  40e488:	24000000 	li	zero,0

0040e48c <timeout.0>:
	...

0040e4a0 <global_rcsid>:
  40e4a0:	2449643a 	addiu	t1,v0,25658
  40e4a4:	20676c6f 	addi	a3,v1,27759
  40e4a8:	62616c2e 	0x62616c2e
  40e4ac:	632c7620 	0x632c7620
  40e4b0:	312e312e 	andi	t6,t1,0x312e
  40e4b4:	312e3120 	andi	t6,t1,0x3120
  40e4b8:	31393939 	andi	t9,t1,0x3939
  40e4bc:	2f31312f 	sltiu	s1,t9,12591
  40e4c0:	32322030 	andi	s2,s1,0x2030
  40e4c4:	333a3437 	andi	k0,t9,0x3437
  40e4c8:	3a353720 	xori	s5,s1,0x3720
  40e4cc:	63687269 	0x63687269
  40e4d0:	73742045 	0x73742045
  40e4d4:	78702024 	0x78702024
	...

0040e4e0 <authenc_rcsid>:
  40e4e0:	2449643a 	addiu	t1,v0,25658
  40e4e4:	20617574 	addi	at,v1,30068
  40e4e8:	68656e63 	0x68656e63
  40e4ec:	2e632c76 	sltiu	v1,s3,11382
  40e4f0:	20312e31 	addi	s1,at,11825
  40e4f4:	2e312e31 	sltiu	s1,s1,11825
  40e4f8:	20313939 	addi	s1,at,14649
  40e4fc:	392f3131 	xori	t7,t1,0x3131
  40e500:	2f323220 	sltiu	s2,t9,12832
  40e504:	30333a34 	andi	s3,at,0x3a34
  40e508:	373a3537 	ori	k0,t9,0x3537
  40e50c:	20636872 	addi	v1,v1,26738
  40e510:	69737420 	0x69737420
  40e514:	45787020 	0x45787020
  40e518:	24000000 	li	zero,0
  40e51c:	00000000 	nop

0040e520 <rcsid_logout>:
  40e520:	24496400 	addiu	t1,v0,25600
	...

0040e530 <__environ>:
	...
  40e540:	01200000 	0x1200000
	...
  40e550:	0040e5a4 	0x40e5a4
  40e554:	0040e7b0 	0x40e7b0
  40e558:	0040e8b0 	0x40e8b0
  40e55c:	0040e7b0 	0x40e7b0
  40e560:	0040e7b0 	0x40e7b0
  40e564:	0040e7b0 	0x40e7b0
  40e568:	0040e7b0 	0x40e7b0
  40e56c:	0040e54c 	syscall	0x10395
  40e570:	00404e00 	0x404e00
  40e574:	00404e44 	0x404e44
  40e578:	00000000 	nop
  40e57c:	00404e88 	0x404e88
	...
  40e598:	00000001 	0x1
	...
  40e5a4:	01100000 	0x1100000
	...
  40e5b0:	00000001 	0x1
  40e5b4:	0040e608 	0x40e608
  40e5b8:	0040e8b0 	0x40e8b0
  40e5bc:	0040e9b0 	0x40e9b0
  40e5c0:	0040e8b0 	0x40e8b0
  40e5c4:	0040e8b0 	0x40e8b0
  40e5c8:	0040e8b0 	0x40e8b0
  40e5cc:	0040e8b0 	0x40e8b0
  40e5d0:	0040e5b0 	0x40e5b0
  40e5d4:	00404e00 	0x404e00
  40e5d8:	00404e44 	0x404e44
  40e5dc:	00000000 	nop
  40e5e0:	00404e88 	0x404e88
	...
  40e5fc:	00000001 	0x1
	...
  40e608:	02100000 	0x2100000
	...
  40e614:	00000002 	srl	zero,zero,0x0
	...
  40e634:	0040e614 	0x40e614
  40e638:	00404e00 	0x404e00
  40e63c:	00404e44 	0x404e44
  40e640:	00000000 	nop
  40e644:	00404e88 	0x404e88
	...
  40e660:	00000001 	0x1
	...

0040e66c <stdin>:
  40e66c:	0040e540 	0x40e540

0040e670 <stdout>:
  40e670:	0040e5a4 	0x40e5a4

0040e674 <stderr>:
  40e674:	0040e608 	0x40e608

0040e678 <_stdio_openlist>:
  40e678:	0040e540 	0x40e540

0040e67c <_stdio_openlist_lock>:
	...
  40e688:	00000001 	0x1
	...

0040e6a0 <__exit_cleanup>:
  40e6a0:	00000000 	nop

0040e6a4 <mylock>:
	...
  40e6b0:	00000001 	0x1
	...

0040e6e0 <__malloc_heap>:
	...

0040e6f0 <_errno>:
  40e6f0:	00000000 	nop

0040e6f4 <_h_errno>:
	...

0040e700 <_custom_printf_spec>:
  40e700:	0040ea10 	0x40ea10
	...
  40e710:	0040e100 	0x40e100
  40e714:	0040e108 	0x40e108
  40e718:	0040e110 	0x40e110
  40e71c:	0040e114 	0x40e114
  40e720:	0040e118 	0x40e118
  40e724:	0040e11c 	0x40e11c
  40e728:	0040e120 	0x40e120
  40e72c:	0040e124 	0x40e124
	...
Disassembly of section .junk:
